---
triple:          'arm64-apple-darwin'
binary-path:     '/Users/yezhidong/Documents/code/LingoGo/whisper.cpp/build-ios-device/framework/whisper.framework/whisper'
relocations:
  - { offset: 0x52, size: 0x8, addend: 0x0, symName: __MergedGlobals, symObjAddr: 0x503D18, symBinAddr: 0x1FD778, symSize: 0x0 }
  - { offset: 0x155F7, size: 0x8, addend: 0x0, symName: __ZNSt3__1L19piecewise_constructE, symObjAddr: 0x423CC, symBinAddr: 0x13D8B4, symSize: 0x0 }
  - { offset: 0x52890, size: 0x8, addend: 0x0, symName: '__ZNSt3__111__introsortINS_17_ClassicAlgPolicyERZL11whisper_vadP15whisper_contextP13whisper_state19whisper_full_paramsPKfiRNS_6vectorIfNS_9allocatorIfEEEEE3$_0P16vad_time_mappingLb0EEEvT1_SI_T0_NS_15iterator_traitsISI_E15difference_typeEb', symObjAddr: 0x31864, symBinAddr: 0x35864, symSize: 0xB68 }
  - { offset: 0x54096, size: 0x8, addend: 0x0, symName: '__ZNSt3__127__insertion_sort_incompleteB8ne200100INS_17_ClassicAlgPolicyERZL11whisper_vadP15whisper_contextP13whisper_state19whisper_full_paramsPKfiRNS_6vectorIfNS_9allocatorIfEEEEE3$_0P16vad_time_mappingEEbT1_SI_T0_', symObjAddr: 0x32550, symBinAddr: 0x36550, symSize: 0x380 }
  - { offset: 0x56E98, size: 0x8, addend: 0x0, symName: '__ZNSt3__111__introsortINS_17_ClassicAlgPolicyERZ35whisper_lang_auto_detect_with_stateE3$_0P12whisper_pairIdiELb0EEEvT1_S7_T0_NS_15iterator_traitsIS7_E15difference_typeEb', symObjAddr: 0x34E7C, symBinAddr: 0x38E7C, symSize: 0xE18 }
  - { offset: 0x586BE, size: 0x8, addend: 0x0, symName: '__ZNSt3__127__insertion_sort_incompleteB8ne200100INS_17_ClassicAlgPolicyERZ35whisper_lang_auto_detect_with_stateE3$_0P12whisper_pairIdiEEEbT1_S7_T0_', symObjAddr: 0x35F2C, symBinAddr: 0x39F2C, symSize: 0x4DC }
  - { offset: 0x5CD51, size: 0x8, addend: 0x0, symName: '__ZNSt3__111__introsortINS_17_ClassicAlgPolicyERZ23whisper_full_with_stateE3$_1PZ23whisper_full_with_stateE14beam_candidateLb0EEEvT1_S6_T0_NS_15iterator_traitsIS6_E15difference_typeEb', symObjAddr: 0x3747C, symBinAddr: 0x3B47C, symSize: 0x1B8C }
  - { offset: 0x63B08, size: 0x8, addend: 0x0, symName: '__ZNSt3__127__insertion_sort_incompleteB8ne200100INS_17_ClassicAlgPolicyERZ23whisper_full_with_stateE3$_1PZ23whisper_full_with_stateE14beam_candidateEEbT1_S6_T0_', symObjAddr: 0x392F4, symBinAddr: 0x3D2F4, symSize: 0x4A4 }
  - { offset: 0x6B3C2, size: 0x8, addend: 0x0, symName: __ZNSt3__120__throw_out_of_rangeB8ne200100EPKc, symObjAddr: 0x1B680, symBinAddr: 0x1F680, symSize: 0x50 }
  - { offset: 0x6B65F, size: 0x8, addend: 0x0, symName: __ZNSt3__125__throw_bad_function_callB8ne200100Ev, symObjAddr: 0x1B744, symBinAddr: 0x1F744, symSize: 0x34 }
  - { offset: 0x6BB47, size: 0x8, addend: 0x0, symName: __ZNSt3__127__tree_balance_after_insertB8ne200100IPNS_16__tree_node_baseIPvEEEEvT_S5_, symObjAddr: 0x1A9E4, symBinAddr: 0x1E9E4, symSize: 0x1AC }
  - { offset: 0x6C769, size: 0x8, addend: 0x0, symName: __ZNSt3__113__tree_removeB8ne200100IPNS_16__tree_node_baseIPvEEEEvT_S5_, symObjAddr: 0x1E6D8, symBinAddr: 0x226D8, symSize: 0x3B4 }
  - { offset: 0x71C29, size: 0x8, addend: 0x0, symName: __ZNSt3__18__rotateB8ne200100INS_17_ClassicAlgPolicyENS_11__wrap_iterIPiEES4_EENS_4pairIT0_S6_EES6_S6_T1_, symObjAddr: 0x36CEC, symBinAddr: 0x3ACEC, symSize: 0x1B8 }
  - { offset: 0x72891, size: 0x8, addend: 0x0, symName: __ZNSt3__111regex_matchB8ne200100INS_11__wrap_iterIPKcEEcNS_12regex_traitsIcEEEEbT_S7_RKNS_11basic_regexIT0_T1_EENS_15regex_constants15match_flag_typeE, symObjAddr: 0x2ED7C, symBinAddr: 0x32D7C, symSize: 0x128 }
  - { offset: 0x75398, size: 0x8, addend: 0x0, symName: __ZNSt3__120__throw_length_errorB8ne200100EPKc, symObjAddr: 0x1B16C, symBinAddr: 0x1F16C, symSize: 0x50 }
  - { offset: 0x764A5, size: 0x8, addend: 0x0, symName: __ZNSt3__114__thread_proxyB8ne200100INS_5tupleIJNS_10unique_ptrINS_15__thread_structENS_14default_deleteIS3_EEEEPFviPKfRKNS_6vectorIfNS_9allocatorIfEEEEiiiiRK15whisper_filtersR11whisper_melEiS8_NS_17reference_wrapperISD_EExiiiNSM_ISG_EENSM_ISI_EEEEEEEPvSR_, symObjAddr: 0x1DB98, symBinAddr: 0x21B98, symSize: 0x94 }
  - { offset: 0x768F2, size: 0x8, addend: 0x0, symName: __ZNSt3__119__throw_regex_errorB8ne200100ILNS_15regex_constants10error_typeE17EEEvv, symObjAddr: 0x1FA40, symBinAddr: 0x23A40, symSize: 0x4C }
  - { offset: 0x77077, size: 0x8, addend: 0x0, symName: __ZNSt3__119__throw_regex_errorB8ne200100ILNS_15regex_constants10error_typeE14EEEvv, symObjAddr: 0x202F8, symBinAddr: 0x242F8, symSize: 0x4C }
  - { offset: 0x77351, size: 0x8, addend: 0x0, symName: __ZNSt3__119__throw_regex_errorB8ne200100ILNS_15regex_constants10error_typeE15EEEvv, symObjAddr: 0x274A4, symBinAddr: 0x2B4A4, symSize: 0x4C }
  - { offset: 0x7771C, size: 0x8, addend: 0x0, symName: __ZNSt3__119__throw_regex_errorB8ne200100ILNS_15regex_constants10error_typeE6EEEvv, symObjAddr: 0x20FA0, symBinAddr: 0x24FA0, symSize: 0x4C }
  - { offset: 0x778C2, size: 0x8, addend: 0x0, symName: __ZNSt3__119__throw_regex_errorB8ne200100ILNS_15regex_constants10error_typeE11EEEvv, symObjAddr: 0x22844, symBinAddr: 0x26844, symSize: 0x4C }
  - { offset: 0x77906, size: 0x8, addend: 0x0, symName: __ZNSt3__119__throw_regex_errorB8ne200100ILNS_15regex_constants10error_typeE8EEEvv, symObjAddr: 0x26E94, symBinAddr: 0x2AE94, symSize: 0x4C }
  - { offset: 0x7792C, size: 0x8, addend: 0x0, symName: __ZNSt3__119__throw_regex_errorB8ne200100ILNS_15regex_constants10error_typeE7EEEvv, symObjAddr: 0x26EE0, symBinAddr: 0x2AEE0, symSize: 0x4C }
  - { offset: 0x77B66, size: 0x8, addend: 0x0, symName: __ZNSt3__119__throw_regex_errorB8ne200100ILNS_15regex_constants10error_typeE12EEEvv, symObjAddr: 0x21D14, symBinAddr: 0x25D14, symSize: 0x4C }
  - { offset: 0x77B8C, size: 0x8, addend: 0x0, symName: __ZNSt3__119__throw_regex_errorB8ne200100ILNS_15regex_constants10error_typeE16EEEvv, symObjAddr: 0x21D60, symBinAddr: 0x25D60, symSize: 0x4C }
  - { offset: 0x78523, size: 0x8, addend: 0x0, symName: __ZNSt3__119__throw_regex_errorB8ne200100ILNS_15regex_constants10error_typeE4EEEvv, symObjAddr: 0x23114, symBinAddr: 0x27114, symSize: 0x4C }
  - { offset: 0x78549, size: 0x8, addend: 0x0, symName: __ZNSt3__119__throw_regex_errorB8ne200100ILNS_15regex_constants10error_typeE3EEEvv, symObjAddr: 0x2299C, symBinAddr: 0x2699C, symSize: 0x4C }
  - { offset: 0x7856F, size: 0x8, addend: 0x0, symName: __ZNSt3__119__throw_regex_errorB8ne200100ILNS_15regex_constants10error_typeE5EEEvv, symObjAddr: 0x24C48, symBinAddr: 0x28C48, symSize: 0x4C }
  - { offset: 0x79218, size: 0x8, addend: 0x0, symName: __ZNSt3__119__throw_regex_errorB8ne200100ILNS_15regex_constants10error_typeE1EEEvv, symObjAddr: 0x25FC0, symBinAddr: 0x29FC0, symSize: 0x4C }
  - { offset: 0x7923E, size: 0x8, addend: 0x0, symName: __ZNSt3__119__throw_regex_errorB8ne200100ILNS_15regex_constants10error_typeE2EEEvv, symObjAddr: 0x26598, symBinAddr: 0x2A598, symSize: 0x4C }
  - { offset: 0x792A0, size: 0x8, addend: 0x0, symName: __ZNSt3__119__throw_regex_errorB8ne200100ILNS_15regex_constants10error_typeE9EEEvv, symObjAddr: 0x26B5C, symBinAddr: 0x2AB5C, symSize: 0x4C }
  - { offset: 0x7B65D, size: 0x8, addend: 0x0, symName: __ZNSt3__135__uninitialized_allocator_copy_implB8ne200100INS_9allocatorINS_6vectorI23whisper_grammar_elementNS1_IS3_EEEEEEPS5_S7_S7_EET2_RT_T0_T1_S8_, symObjAddr: 0x30910, symBinAddr: 0x34910, symSize: 0xF8 }
  - { offset: 0x7BBD3, size: 0x8, addend: 0x0, symName: __ZNSt3__135__uninitialized_allocator_copy_implB8ne200100INS_9allocatorINS_6vectorIPK23whisper_grammar_elementNS1_IS5_EEEEEEPS7_S9_S9_EET2_RT_T0_T1_SA_, symObjAddr: 0x30AF8, symBinAddr: 0x34AF8, symSize: 0xF8 }
  - { offset: 0x7D2C9, size: 0x8, addend: 0x0, symName: '__ZNSt3__17__sort5B8ne200100INS_17_ClassicAlgPolicyERZL11whisper_vadP15whisper_contextP13whisper_state19whisper_full_paramsPKfiRNS_6vectorIfNS_9allocatorIfEEEEE3$_0P16vad_time_mappingLi0EEEvT1_SI_SI_SI_SI_T0_', symObjAddr: 0x323CC, symBinAddr: 0x363CC, symSize: 0x184 }
  - { offset: 0x7F492, size: 0x8, addend: 0x0, symName: '__ZNSt3__17__sort5B8ne200100INS_17_ClassicAlgPolicyERZ35whisper_lang_auto_detect_with_stateE3$_0P12whisper_pairIdiELi0EEEvT1_S7_S7_S7_S7_T0_', symObjAddr: 0x35C94, symBinAddr: 0x39C94, symSize: 0x298 }
  - { offset: 0x80F64, size: 0x8, addend: 0x0, symName: '__ZNSt3__114__thread_proxyB8ne200100INS_5tupleIJNS_10unique_ptrINS_15__thread_structENS_14default_deleteIS3_EEEEZ23whisper_full_with_stateE3$_0EEEEEPvS9_', symObjAddr: 0x373BC, symBinAddr: 0x3B3BC, symSize: 0x78 }
  - { offset: 0x81A11, size: 0x8, addend: 0x0, symName: '__ZNSt3__17__sort3B8ne200100INS_17_ClassicAlgPolicyERZ23whisper_full_with_stateE3$_1PZ23whisper_full_with_stateE14beam_candidateLi0EEEbT1_S6_S6_T0_', symObjAddr: 0x39008, symBinAddr: 0x3D008, symSize: 0x114 }
  - { offset: 0x81BAB, size: 0x8, addend: 0x0, symName: __ZNSt3__19iter_swapB8ne200100IPZ23whisper_full_with_stateE14beam_candidateS2_EEvT_T0_, symObjAddr: 0x39798, symBinAddr: 0x3D798, symSize: 0x1FC }
  - { offset: 0x82543, size: 0x8, addend: 0x0, symName: '__ZNSt3__17__sort5B8ne200100INS_17_ClassicAlgPolicyERZ23whisper_full_with_stateE3$_1PZ23whisper_full_with_stateE14beam_candidateLi0EEEvT1_S6_S6_S6_S6_T0_', symObjAddr: 0x3911C, symBinAddr: 0x3D11C, symSize: 0x1D8 }
  - { offset: 0x828BA, size: 0x8, addend: 0x0, symName: '__ZNSt3__114__thread_proxyB8ne200100INS_5tupleIJNS_10unique_ptrINS_15__thread_structENS_14default_deleteIS3_EEEEZ23whisper_full_with_stateE3$_2EEEEEPvS9_', symObjAddr: 0x39994, symBinAddr: 0x3D994, symSize: 0x134 }
  - { offset: 0x8307C, size: 0x8, addend: 0x0, symName: __ZNSt3__114__thread_proxyB8ne200100INS_5tupleIJNS_10unique_ptrINS_15__thread_structENS_14default_deleteIS3_EEEEPFiP15whisper_contextP13whisper_state19whisper_full_paramsPKfiES8_SA_SB_SD_iEEEEEPvSH_, symObjAddr: 0x39C4C, symBinAddr: 0x3DC4C, symSize: 0xB0 }
  - { offset: 0x834B8, size: 0x8, addend: 0x0, symName: '__ZNSt3__114__thread_proxyB8ne200100INS_5tupleIJNS_10unique_ptrINS_15__thread_structENS_14default_deleteIS3_EEEEZ24whisper_bench_memcpy_strE3$_0iEEEEEPvS9_', symObjAddr: 0x39D44, symBinAddr: 0x3DD44, symSize: 0x120 }
  - { offset: 0x866A8, size: 0x8, addend: 0x0, symName: __ZSt28__throw_bad_array_new_lengthB8ne200100v, symObjAddr: 0x1A9BC, symBinAddr: 0x1E9BC, symSize: 0x28 }
  - { offset: 0x86F6E, size: 0x8, addend: 0x0, symName: __MergedGlobals, symObjAddr: 0x503D18, symBinAddr: 0x1FD778, symSize: 0x0 }
  - { offset: 0x874FB, size: 0x8, addend: 0x0, symName: __MergedGlobals, symObjAddr: 0x503D18, symBinAddr: 0x1FD778, symSize: 0x0 }
  - { offset: 0x878C3, size: 0x8, addend: 0x0, symName: __MergedGlobals, symObjAddr: 0x503D18, symBinAddr: 0x1FD778, symSize: 0x0 }
  - { offset: 0x87C0A, size: 0x8, addend: 0x0, symName: __MergedGlobals, symObjAddr: 0x503D18, symBinAddr: 0x1FD778, symSize: 0x0 }
  - { offset: 0x880CF, size: 0x8, addend: 0x0, symName: __MergedGlobals, symObjAddr: 0x503D18, symBinAddr: 0x1FD778, symSize: 0x0 }
  - { offset: 0x88445, size: 0x8, addend: 0x0, symName: __MergedGlobals, symObjAddr: 0x503D18, symBinAddr: 0x1FD778, symSize: 0x0 }
  - { offset: 0x88877, size: 0x8, addend: 0x0, symName: __ZN12_GLOBAL__N_112global_cacheE, symObjAddr: 0x502A50, symBinAddr: 0x1FC4B0, symSize: 0x0 }
  - { offset: 0x88922, size: 0x8, addend: 0x0, symName: _whisper_print_system_info, symObjAddr: 0x84E8, symBinAddr: 0xC4E8, symSize: 0x398 }
  - { offset: 0x8894A, size: 0x8, addend: 0x0, symName: __MergedGlobals, symObjAddr: 0x503D18, symBinAddr: 0x1FD778, symSize: 0x0 }
  - { offset: 0x89669, size: 0x8, addend: 0x0, symName: __MergedGlobals, symObjAddr: 0x503D18, symBinAddr: 0x1FD778, symSize: 0x0 }
  - { offset: 0x897A0, size: 0x8, addend: 0x0, symName: _whisper_bench_memcpy_str, symObjAddr: 0x18DE0, symBinAddr: 0x1CDE0, symSize: 0x11BC }
  - { offset: 0x897C8, size: 0x8, addend: 0x0, symName: __MergedGlobals, symObjAddr: 0x503D18, symBinAddr: 0x1FD778, symSize: 0x0 }
  - { offset: 0x8A791, size: 0x8, addend: 0x0, symName: _whisper_bench_ggml_mul_mat_str, symObjAddr: 0x19FC4, symBinAddr: 0x1DFC4, symSize: 0x6E4 }
  - { offset: 0x8A7B9, size: 0x8, addend: 0x0, symName: __MergedGlobals, symObjAddr: 0x503D18, symBinAddr: 0x1FD778, symSize: 0x0 }
  - { offset: 0x8B839, size: 0x8, addend: 0x0, symName: __ZL16g_aheads_tiny_en, symObjAddr: 0x41F60, symBinAddr: 0x13D448, symSize: 0x0 }
  - { offset: 0x8B862, size: 0x8, addend: 0x0, symName: __ZL13g_aheads_tiny, symObjAddr: 0x41FA0, symBinAddr: 0x13D488, symSize: 0x0 }
  - { offset: 0x8B88B, size: 0x8, addend: 0x0, symName: __ZL16g_aheads_base_en, symObjAddr: 0x41FD0, symBinAddr: 0x13D4B8, symSize: 0x0 }
  - { offset: 0x8B8B4, size: 0x8, addend: 0x0, symName: __ZL13g_aheads_base, symObjAddr: 0x41FF8, symBinAddr: 0x13D4E0, symSize: 0x0 }
  - { offset: 0x8B8CF, size: 0x8, addend: 0x0, symName: __ZL17g_aheads_small_en, symObjAddr: 0x42038, symBinAddr: 0x13D520, symSize: 0x0 }
  - { offset: 0x8B8F8, size: 0x8, addend: 0x0, symName: __ZL14g_aheads_small, symObjAddr: 0x420D0, symBinAddr: 0x13D5B8, symSize: 0x0 }
  - { offset: 0x8B921, size: 0x8, addend: 0x0, symName: __ZL18g_aheads_medium_en, symObjAddr: 0x42120, symBinAddr: 0x13D608, symSize: 0x0 }
  - { offset: 0x8B94A, size: 0x8, addend: 0x0, symName: __ZL15g_aheads_medium, symObjAddr: 0x421B0, symBinAddr: 0x13D698, symSize: 0x0 }
  - { offset: 0x8B965, size: 0x8, addend: 0x0, symName: __ZL17g_aheads_large_v1, symObjAddr: 0x421E0, symBinAddr: 0x13D6C8, symSize: 0x0 }
  - { offset: 0x8B98E, size: 0x8, addend: 0x0, symName: __ZL17g_aheads_large_v2, symObjAddr: 0x42228, symBinAddr: 0x13D710, symSize: 0x0 }
  - { offset: 0x8B9B7, size: 0x8, addend: 0x0, symName: __ZL17g_aheads_large_v3, symObjAddr: 0x422E0, symBinAddr: 0x13D7C8, symSize: 0x0 }
  - { offset: 0x8B9D2, size: 0x8, addend: 0x0, symName: __ZL23g_aheads_large_v3_turbo, symObjAddr: 0x42330, symBinAddr: 0x13D818, symSize: 0x0 }
  - { offset: 0x8B9F0, size: 0x8, addend: 0x0, symName: __ZL27whisper_build_graph_encoderR15whisper_contextR13whisper_state, symObjAddr: 0x1DE50, symBinAddr: 0x21E50, symSize: 0x5C8 }
  - { offset: 0x8C3DF, size: 0x8, addend: 0x0, symName: __ZL25whisper_build_graph_crossR15whisper_contextR13whisper_state, symObjAddr: 0x1E418, symBinAddr: 0x22418, symSize: 0x2C0 }
  - { offset: 0x8C6C9, size: 0x8, addend: 0x0, symName: __ZL11decode_utf8PKc20whisper_partial_utf8, symObjAddr: 0x2EEA4, symBinAddr: 0x32EA4, symSize: 0x394 }
  - { offset: 0x8C6F5, size: 0x8, addend: 0x0, symName: __ZZL11decode_utf8PKc20whisper_partial_utf8E6lookup, symObjAddr: 0x42904, symBinAddr: 0x13DDEC, symSize: 0x0 }
  - { offset: 0x8D68D, size: 0x8, addend: 0x0, symName: __ZL7g_state.0, symObjAddr: 0x42B20, symBinAddr: 0x174898, symSize: 0x0 }
  - { offset: 0x8D698, size: 0x8, addend: 0x0, symName: __ZL7g_state.1, symObjAddr: 0x503D10, symBinAddr: 0x1FD770, symSize: 0x0 }
  - { offset: 0x8D72E, size: 0x8, addend: 0x0, symName: _whisper_vad_segments_from_probs, symObjAddr: 0xB908, symBinAddr: 0xF908, symSize: 0xAA0 }
  - { offset: 0x9052F, size: 0x8, addend: 0x0, symName: _whisper_init_from_buffer_with_params_no_state, symObjAddr: 0x4974, symBinAddr: 0x8974, symSize: 0x88 }
  - { offset: 0x93CDE, size: 0x8, addend: 0x0, symName: _whisper_full_with_state, symObjAddr: 0xC880, symBinAddr: 0x10880, symSize: 0x69E8 }
  - { offset: 0xAB34E, size: 0x8, addend: 0x0, symName: _whisper_init_state, symObjAddr: 0x214, symBinAddr: 0x4214, symSize: 0x15FC }
  - { offset: 0xB1D29, size: 0x8, addend: 0x0, symName: __ZNSt3__13mapI10asr_systemNS0_I10asr_tensorPKcNS_4lessIS2_EENS_9allocatorINS_4pairIKS2_S4_EEEEEENS5_IS1_EENS7_INS8_IKS1_SC_EEEEED1B8ne200100Ev, symObjAddr: 0x0, symBinAddr: 0x4000, symSize: 0x28 }
  - { offset: 0xB1DE7, size: 0x8, addend: 0x0, symName: __ZNSt3__16__treeINS_12__value_typeI10asr_systemNS_3mapI10asr_tensorPKcNS_4lessIS4_EENS_9allocatorINS_4pairIKS4_S6_EEEEEEEENS_19__map_value_compareIS2_SF_NS7_IS2_EELb1EEENS9_ISF_EEE7destroyEPNS_11__tree_nodeISF_PvEE, symObjAddr: 0x33084, symBinAddr: 0x37084, symSize: 0x50 }
  - { offset: 0xB2068, size: 0x8, addend: 0x0, symName: __ZNSt3__13mapI10asr_tensor7ggml_opNS_4lessIS1_EENS_9allocatorINS_4pairIKS1_S2_EEEEED1B8ne200100Ev, symObjAddr: 0x28, symBinAddr: 0x4028, symSize: 0x28 }
  - { offset: 0xB2126, size: 0x8, addend: 0x0, symName: __ZNSt3__16__treeINS_12__value_typeI10asr_tensor7ggml_opEENS_19__map_value_compareIS2_S4_NS_4lessIS2_EELb1EEENS_9allocatorIS4_EEE7destroyEPNS_11__tree_nodeIS4_PvEE, symObjAddr: 0x33370, symBinAddr: 0x37370, symSize: 0x44 }
  - { offset: 0xB22BE, size: 0x8, addend: 0x0, symName: __ZNSt3__13mapI10vad_tensor7ggml_opNS_4lessIS1_EENS_9allocatorINS_4pairIKS1_S2_EEEEED1B8ne200100Ev, symObjAddr: 0x50, symBinAddr: 0x4050, symSize: 0x28 }
  - { offset: 0xB237C, size: 0x8, addend: 0x0, symName: __ZNSt3__16__treeINS_12__value_typeI10vad_tensor7ggml_opEENS_19__map_value_compareIS2_S4_NS_4lessIS2_EELb1EEENS_9allocatorIS4_EEE7destroyEPNS_11__tree_nodeIS4_PvEE, symObjAddr: 0x33650, symBinAddr: 0x37650, symSize: 0x44 }
  - { offset: 0xB2514, size: 0x8, addend: 0x0, symName: __ZNSt3__13mapI10vad_tensorPKcNS_4lessIS1_EENS_9allocatorINS_4pairIKS1_S3_EEEEED1B8ne200100Ev, symObjAddr: 0x78, symBinAddr: 0x4078, symSize: 0x28 }
  - { offset: 0xB25D2, size: 0x8, addend: 0x0, symName: __ZNSt3__16__treeINS_12__value_typeI10vad_tensorPKcEENS_19__map_value_compareIS2_S5_NS_4lessIS2_EELb1EEENS_9allocatorIS5_EEE7destroyEPNS_11__tree_nodeIS5_PvEE, symObjAddr: 0x33930, symBinAddr: 0x37930, symSize: 0x44 }
  - { offset: 0xB276A, size: 0x8, addend: 0x0, symName: __ZNSt3__13mapI7e_modelNS_12basic_stringIcNS_11char_traitsIcEENS_9allocatorIcEEEENS_4lessIS1_EENS5_INS_4pairIKS1_S7_EEEEED1B8ne200100Ev, symObjAddr: 0xA0, symBinAddr: 0x40A0, symSize: 0x28 }
  - { offset: 0xB2828, size: 0x8, addend: 0x0, symName: __ZNSt3__16__treeINS_12__value_typeI7e_modelNS_12basic_stringIcNS_11char_traitsIcEENS_9allocatorIcEEEEEENS_19__map_value_compareIS2_S9_NS_4lessIS2_EELb1EEENS6_IS9_EEE7destroyEPNS_11__tree_nodeIS9_PvEE, symObjAddr: 0x33C84, symBinAddr: 0x37C84, symSize: 0x60 }
  - { offset: 0xB2C2C, size: 0x8, addend: 0x0, symName: __ZNSt3__112basic_stringIcNS_11char_traitsIcEENS_9allocatorIcEEEC1B8ne200100ILi0EEEPKc, symObjAddr: 0xC8, symBinAddr: 0x40C8, symSize: 0xA4 }
  - { offset: 0xB2EC4, size: 0x8, addend: 0x0, symName: __ZNSt3__14pairIKNS_12basic_stringIcNS_11char_traitsIcEENS_9allocatorIcEEEENS0_IiS6_EEED1Ev, symObjAddr: 0x16C, symBinAddr: 0x416C, symSize: 0x58 }
  - { offset: 0xB2EE1, size: 0x8, addend: 0x0, symName: __ZNSt3__112basic_stringIcNS_11char_traitsIcEENS_9allocatorIcEEE20__throw_length_errorB8ne200100Ev, symObjAddr: 0x1B730, symBinAddr: 0x1F730, symSize: 0x14 }
  - { offset: 0xB2EF9, size: 0x8, addend: 0x0, symName: __ZNSt3__125__throw_bad_function_callB8ne200100Ev, symObjAddr: 0x1B744, symBinAddr: 0x1F744, symSize: 0x34 }
  - { offset: 0xB301C, size: 0x8, addend: 0x0, symName: __ZNSt3__14pairIKNS_12basic_stringIcNS_11char_traitsIcEENS_9allocatorIcEEEENS0_IiS6_EEED1Ev, symObjAddr: 0x16C, symBinAddr: 0x416C, symSize: 0x58 }
  - { offset: 0xB32FD, size: 0x8, addend: 0x0, symName: __ZNSt3__13mapINS_12basic_stringIcNS_11char_traitsIcEENS_9allocatorIcEEEENS_4pairIiS6_EENS_4lessIS6_EENS4_INS7_IKS6_S8_EEEEED1B8ne200100Ev, symObjAddr: 0x1C4, symBinAddr: 0x41C4, symSize: 0x28 }
  - { offset: 0xB33BB, size: 0x8, addend: 0x0, symName: __ZNSt3__16__treeINS_12__value_typeINS_12basic_stringIcNS_11char_traitsIcEENS_9allocatorIcEEEENS_4pairIiS7_EEEENS_19__map_value_compareIS7_SA_NS_4lessIS7_EELb1EEENS5_ISA_EEE7destroyEPNS_11__tree_nodeISA_PvEE, symObjAddr: 0x343AC, symBinAddr: 0x383AC, symSize: 0x78 }
  - { offset: 0xB37D3, size: 0x8, addend: 0x0, symName: __ZNSt3__13mapI30whisper_alignment_heads_preset14whisper_aheadsNS_4lessIS1_EENS_9allocatorINS_4pairIKS1_S2_EEEEED1B8ne200100Ev, symObjAddr: 0x1EC, symBinAddr: 0x41EC, symSize: 0x28 }
  - { offset: 0xB3891, size: 0x8, addend: 0x0, symName: __ZNSt3__16__treeINS_12__value_typeI30whisper_alignment_heads_preset14whisper_aheadsEENS_19__map_value_compareIS2_S4_NS_4lessIS2_EELb1EEENS_9allocatorIS4_EEE7destroyEPNS_11__tree_nodeIS4_PvEE, symObjAddr: 0x346CC, symBinAddr: 0x386CC, symSize: 0x44 }
  - { offset: 0xB5A26, size: 0x8, addend: 0x0, symName: __ZN13whisper_stateC2Ev, symObjAddr: 0x1ABD4, symBinAddr: 0x1EBD4, symSize: 0x430 }
  - { offset: 0xB5F13, size: 0x8, addend: 0x0, symName: __ZL20whisper_backend_initRK22whisper_context_params, symObjAddr: 0x1810, symBinAddr: 0x5810, symSize: 0x4BC }
  - { offset: 0xB6F5F, size: 0x8, addend: 0x0, symName: __ZL21whisper_kv_cache_initR16whisper_kv_cacheP12ggml_backend9ggml_typexxi, symObjAddr: 0x1EE4, symBinAddr: 0x5EE4, symSize: 0x278 }
  - { offset: 0xB79BE, size: 0x8, addend: 0x0, symName: __ZL19aheads_masks_nbytesR20whisper_aheads_masks, symObjAddr: 0x215C, symBinAddr: 0x615C, symSize: 0x6C }
  - { offset: 0xB79E7, size: 0x8, addend: 0x0, symName: __ZL20whisper_log_internal14ggml_log_levelPKcz, symObjAddr: 0x1CCC, symBinAddr: 0x5CCC, symSize: 0xF4 }
  - { offset: 0xB7AF7, size: 0x8, addend: 0x0, symName: _whisper_free_state, symObjAddr: 0x1DC0, symBinAddr: 0x5DC0, symSize: 0x124 }
  - { offset: 0xB7DD1, size: 0x8, addend: 0x0, symName: __ZL28get_alignment_heads_by_layerRK22whisper_context_paramsiii, symObjAddr: 0x1B3C8, symBinAddr: 0x1F3C8, symSize: 0x2B8 }
  - { offset: 0xB8932, size: 0x8, addend: 0x0, symName: __ZL19aheads_masks_nbytesR20whisper_aheads_masks, symObjAddr: 0x215C, symBinAddr: 0x615C, symSize: 0x6C }
  - { offset: 0xB89BB, size: 0x8, addend: 0x0, symName: __ZNSt3__112basic_stringIcNS_11char_traitsIcEENS_9allocatorIcEEE25__init_copy_ctor_externalEPKcm, symObjAddr: 0x33CE4, symBinAddr: 0x37CE4, symSize: 0x88 }
  - { offset: 0xB8B9B, size: 0x8, addend: 0x0, symName: __ZNSt3__13mapINS_12basic_stringIcNS_11char_traitsIcEENS_9allocatorIcEEEENS_4pairIiS6_EENS_4lessIS6_EENS4_INS7_IKS6_S8_EEEEEC2B8ne200100ESt16initializer_listISC_ERKSA_, symObjAddr: 0x33D6C, symBinAddr: 0x37D6C, symSize: 0xF0 }
  - { offset: 0xB8BCA, size: 0x8, addend: 0x0, symName: __ZL24whisper_sched_graph_initR13whisper_schedNSt3__16vectorIP12ggml_backendNS1_9allocatorIS4_EEEEONS1_8functionIFP11ggml_cgraphvEEE, symObjAddr: 0x21C8, symBinAddr: 0x61C8, symSize: 0x180 }
  - { offset: 0xB923A, size: 0x8, addend: 0x0, symName: __ZNSt3__16vectorIP12ggml_backendNS_9allocatorIS2_EEEC1B8ne200100ERKS5_, symObjAddr: 0x2348, symBinAddr: 0x6348, symSize: 0x88 }
  - { offset: 0xB9288, size: 0x8, addend: 0x0, symName: __ZNSt3__16vectorIP12ggml_backendNS_9allocatorIS2_EEEC1B8ne200100ERKS5_, symObjAddr: 0x2348, symBinAddr: 0x6348, symSize: 0x88 }
  - { offset: 0xB96F1, size: 0x8, addend: 0x0, symName: __ZL18whisper_sched_sizeR13whisper_sched, symObjAddr: 0x23D0, symBinAddr: 0x63D0, symSize: 0x74 }
  - { offset: 0xB979D, size: 0x8, addend: 0x0, symName: __ZNSt3__16vectorIfNS_9allocatorIfEEE20__throw_length_errorB8ne200100Ev, symObjAddr: 0x32C8C, symBinAddr: 0x36C8C, symSize: 0x14 }
  - { offset: 0xB97B5, size: 0x8, addend: 0x0, symName: __ZNSt3__13mapI10asr_tensorPKcNS_4lessIS1_EENS_9allocatorINS_4pairIKS1_S3_EEEEEC2B8ne200100ESt16initializer_listIS9_ERKS5_, symObjAddr: 0x32CA0, symBinAddr: 0x36CA0, symSize: 0xEC }
  - { offset: 0xB97C0, size: 0x8, addend: 0x0, symName: __ZNSt3__16vectorIP11ggml_tensorNS_9allocatorIS2_EEE20__throw_length_errorB8ne200100Ev, symObjAddr: 0x1B708, symBinAddr: 0x1F708, symSize: 0x14 }
  - { offset: 0xB97D8, size: 0x8, addend: 0x0, symName: __ZNSt3__112basic_stringIcNS_11char_traitsIcEENS_9allocatorIcEEE20__throw_out_of_rangeB8ne200100Ev, symObjAddr: 0x1B71C, symBinAddr: 0x1F71C, symSize: 0x14 }
  - { offset: 0xB97E3, size: 0x8, addend: 0x0, symName: __ZNSt3__112basic_stringIcNS_11char_traitsIcEENS_9allocatorIcEEE20__throw_out_of_rangeB8ne200100Ev, symObjAddr: 0x1B71C, symBinAddr: 0x1F71C, symSize: 0x14 }
  - { offset: 0xB97FB, size: 0x8, addend: 0x0, symName: __ZNSt3__112basic_stringIcNS_11char_traitsIcEENS_9allocatorIcEEE20__throw_length_errorB8ne200100Ev, symObjAddr: 0x1B730, symBinAddr: 0x1F730, symSize: 0x14 }
  - { offset: 0xB9806, size: 0x8, addend: 0x0, symName: __ZNSt3__16vectorIP12ggml_backendNS_9allocatorIS2_EEE20__throw_length_errorB8ne200100Ev, symObjAddr: 0x1B158, symBinAddr: 0x1F158, symSize: 0x14 }
  - { offset: 0xB981E, size: 0x8, addend: 0x0, symName: __ZNSt3__120__throw_length_errorB8ne200100EPKc, symObjAddr: 0x1B16C, symBinAddr: 0x1F16C, symSize: 0x50 }
  - { offset: 0xB9829, size: 0x8, addend: 0x0, symName: __ZNSt3__16vectorI18whisper_token_dataNS_9allocatorIS1_EEE20__throw_length_errorB8ne200100Ev, symObjAddr: 0x30068, symBinAddr: 0x34068, symSize: 0x14 }
  - { offset: 0xB9841, size: 0x8, addend: 0x0, symName: __ZNSt3__121discrete_distributionIiE10param_type6__initEv, symObjAddr: 0x3007C, symBinAddr: 0x3407C, symSize: 0x200 }
  - { offset: 0xB984C, size: 0x8, addend: 0x0, symName: __ZNSt3__16vectorI12whisper_pairIdiENS_9allocatorIS2_EEE20__throw_length_errorB8ne200100Ev, symObjAddr: 0x30678, symBinAddr: 0x34678, symSize: 0x14 }
  - { offset: 0xB9864, size: 0x8, addend: 0x0, symName: __ZNSt3__16vectorIZ23whisper_full_with_stateE14beam_candidateNS_9allocatorIS1_EEE20__throw_length_errorB8ne200100Ev, symObjAddr: 0x3068C, symBinAddr: 0x3468C, symSize: 0x14 }
  - { offset: 0xB9D96, size: 0x8, addend: 0x0, symName: _whisper_vad_free, symObjAddr: 0x4EE0, symBinAddr: 0x8EE0, symSize: 0xC0 }
  - { offset: 0xB9FAC, size: 0x8, addend: 0x0, symName: __ZN13whisper_stateD2Ev, symObjAddr: 0x1C8D0, symBinAddr: 0x208D0, symSize: 0x2DC }
  - { offset: 0xBCE5A, size: 0x8, addend: 0x0, symName: __ZNSt3__16__treeIiNS_4lessIiEENS_9allocatorIiEEE7destroyEPNS_11__tree_nodeIiPvEE, symObjAddr: 0x1B114, symBinAddr: 0x1F114, symSize: 0x44 }
  - { offset: 0xBCF7E, size: 0x8, addend: 0x0, symName: __ZNSt3__16vectorI15whisper_kv_cellNS_9allocatorIS1_EEE8__appendEm, symObjAddr: 0x1B1F4, symBinAddr: 0x1F1F4, symSize: 0x1C0 }
  - { offset: 0xBD798, size: 0x8, addend: 0x0, symName: __ZNSt3__16vectorI15whisper_kv_cellNS_9allocatorIS1_EEE20__throw_length_errorB8ne200100Ev, symObjAddr: 0x1B3B4, symBinAddr: 0x1F3B4, symSize: 0x14 }
  - { offset: 0xBD7D2, size: 0x8, addend: 0x0, symName: __ZNSt3__16vectorIhNS_9allocatorIhEEE20__throw_length_errorB8ne200100Ev, symObjAddr: 0x1B1E0, symBinAddr: 0x1F1E0, symSize: 0x14 }
  - { offset: 0xBD7EA, size: 0x8, addend: 0x0, symName: __ZNSt3__16vectorI15whisper_kv_cellNS_9allocatorIS1_EEE8__appendEm, symObjAddr: 0x1B1F4, symBinAddr: 0x1F1F4, symSize: 0x1C0 }
  - { offset: 0xBD906, size: 0x8, addend: 0x0, symName: _whisper_ctx_init_openvino_encoder_with_state, symObjAddr: 0x2444, symBinAddr: 0x6444, symSize: 0x8 }
  - { offset: 0xBD96F, size: 0x8, addend: 0x0, symName: _whisper_ctx_init_openvino_encoder, symObjAddr: 0x244C, symBinAddr: 0x644C, symSize: 0x8 }
  - { offset: 0xBD9C9, size: 0x8, addend: 0x0, symName: _whisper_context_default_params, symObjAddr: 0x2454, symBinAddr: 0x6454, symSize: 0x24 }
  - { offset: 0xBDA59, size: 0x8, addend: 0x0, symName: _whisper_init_from_file_with_params_no_state, symObjAddr: 0x2478, symBinAddr: 0x6478, symSize: 0x18C }
  - { offset: 0xBDC6F, size: 0x8, addend: 0x0, symName: __ZNSt3__114basic_ifstreamIcNS_11char_traitsIcEEEC1EPKcj, symObjAddr: 0x2604, symBinAddr: 0x6604, symSize: 0x118 }
  - { offset: 0xBDD98, size: 0x8, addend: 0x0, symName: _whisper_init_with_params_no_state, symObjAddr: 0x271C, symBinAddr: 0x671C, symSize: 0x2200 }
  - { offset: 0xC33CD, size: 0x8, addend: 0x0, symName: __ZNSt3__114basic_ifstreamIcNS_11char_traitsIcEEED1Ev, symObjAddr: 0x491C, symBinAddr: 0x891C, symSize: 0x58 }
  - { offset: 0xC5481, size: 0x8, addend: 0x0, symName: __ZNSt3__16vectorIfNS_9allocatorIfEEE8__appendEm, symObjAddr: 0x34710, symBinAddr: 0x38710, symSize: 0x120 }
  - { offset: 0xC588E, size: 0x8, addend: 0x0, symName: __ZNSt3__16__treeINS_12__value_typeIP24ggml_backend_buffer_typeP12ggml_contextEENS_19__map_value_compareIS3_S6_NS_4lessIS3_EELb1EEENS_9allocatorIS6_EEE7destroyEPNS_11__tree_nodeIS6_PvEE, symObjAddr: 0x34830, symBinAddr: 0x38830, symSize: 0x44 }
  - { offset: 0xC5899, size: 0x8, addend: 0x0, symName: __ZNSt3__16__treeINS_12__value_typeINS_12basic_stringIcNS_11char_traitsIcEENS_9allocatorIcEEEEiEENS_19__map_value_compareIS7_S8_NS_4lessIS7_EELb1EEENS5_IS8_EEE25__emplace_unique_key_argsIS7_JRKNS_21piecewise_construct_tENS_5tupleIJRKS7_EEENSJ_IJEEEEEENS_4pairINS_15__tree_iteratorIS8_PNS_11__tree_nodeIS8_PvEElEEbEERKT_DpOT0_, symObjAddr: 0x1BF80, symBinAddr: 0x1FF80, symSize: 0x1A8 }
  - { offset: 0xC5F37, size: 0x8, addend: 0x0, symName: _whisper_lang_str, symObjAddr: 0x795C, symBinAddr: 0xB95C, symSize: 0xBC }
  - { offset: 0xC6109, size: 0x8, addend: 0x0, symName: __ZL14make_buft_listR22whisper_context_params, symObjAddr: 0xA394, symBinAddr: 0xE394, symSize: 0x3F0 }
  - { offset: 0xC7177, size: 0x8, addend: 0x0, symName: __ZNSt3__16vectorI21whisper_layer_encoderNS_9allocatorIS1_EEE8__appendEm, symObjAddr: 0x1C188, symBinAddr: 0x20188, symSize: 0x184 }
  - { offset: 0xC7573, size: 0x8, addend: 0x0, symName: __ZNSt3__16vectorI21whisper_layer_encoderNS_9allocatorIS1_EEE20__throw_length_errorB8ne200100Ev, symObjAddr: 0x1C30C, symBinAddr: 0x2030C, symSize: 0x14 }
  - { offset: 0xC757E, size: 0x8, addend: 0x0, symName: __ZNSt3__16vectorI21whisper_layer_decoderNS_9allocatorIS1_EEE8__appendEm, symObjAddr: 0x1C320, symBinAddr: 0x20320, symSize: 0x180 }
  - { offset: 0xC797A, size: 0x8, addend: 0x0, symName: __ZNSt3__16vectorI21whisper_layer_decoderNS_9allocatorIS1_EEE20__throw_length_errorB8ne200100Ev, symObjAddr: 0x1C4A0, symBinAddr: 0x204A0, symSize: 0x14 }
  - { offset: 0xC7985, size: 0x8, addend: 0x0, symName: '__ZZL18whisper_model_loadP20whisper_model_loaderR15whisper_contextENK3$_1clE10asr_tensor10asr_systemP11ggml_tensori', symObjAddr: 0x1B880, symBinAddr: 0x1F880, symSize: 0x6EC }
  - { offset: 0xC9035, size: 0x8, addend: 0x0, symName: __ZNSt3__16__treeINS_12__value_typeINS_12basic_stringIcNS_11char_traitsIcEENS_9allocatorIcEEEEP11ggml_tensorEENS_19__map_value_compareIS7_SA_NS_4lessIS7_EELb1EEENS5_ISA_EEE25__emplace_unique_key_argsIS7_JRKNS_21piecewise_construct_tENS_5tupleIJOS7_EEENSL_IJEEEEEENS_4pairINS_15__tree_iteratorISA_PNS_11__tree_nodeISA_PvEElEEbEERKT_DpOT0_, symObjAddr: 0x34874, symBinAddr: 0x38874, symSize: 0x174 }
  - { offset: 0xC96AC, size: 0x8, addend: 0x0, symName: __ZNSt3__16vectorIcNS_9allocatorIcEEE6resizeEm, symObjAddr: 0xAE1C, symBinAddr: 0xEE1C, symSize: 0x110 }
  - { offset: 0xC9BBA, size: 0x8, addend: 0x0, symName: _whisper_vad_detect_speech, symObjAddr: 0xAF2C, symBinAddr: 0xEF2C, symSize: 0x3E0 }
  - { offset: 0xC9BD7, size: 0x8, addend: 0x0, symName: __ZNSt3__16__treeINS_12__value_typeIP24ggml_backend_buffer_typeP12ggml_contextEENS_19__map_value_compareIS3_S6_NS_4lessIS3_EELb1EEENS_9allocatorIS6_EEE7destroyEPNS_11__tree_nodeIS6_PvEE, symObjAddr: 0x34830, symBinAddr: 0x38830, symSize: 0x44 }
  - { offset: 0xC9CFB, size: 0x8, addend: 0x0, symName: __ZN15whisper_contextD2Ev, symObjAddr: 0x1C70C, symBinAddr: 0x2070C, symSize: 0xA4 }
  - { offset: 0xCA67B, size: 0x8, addend: 0x0, symName: __ZNSt3__16vectorIcNS_9allocatorIcEEE20__throw_length_errorB8ne200100Ev, symObjAddr: 0x1BF6C, symBinAddr: 0x1FF6C, symSize: 0x14 }
  - { offset: 0xCA693, size: 0x8, addend: 0x0, symName: __ZNSt3__16__treeINS_12__value_typeINS_12basic_stringIcNS_11char_traitsIcEENS_9allocatorIcEEEEiEENS_19__map_value_compareIS7_S8_NS_4lessIS7_EELb1EEENS5_IS8_EEE25__emplace_unique_key_argsIS7_JRKNS_21piecewise_construct_tENS_5tupleIJRKS7_EEENSJ_IJEEEEEENS_4pairINS_15__tree_iteratorIS8_PNS_11__tree_nodeIS8_PvEElEEbEERKT_DpOT0_, symObjAddr: 0x1BF80, symBinAddr: 0x1FF80, symSize: 0x1A8 }
  - { offset: 0xCA69E, size: 0x8, addend: 0x0, symName: __ZNSt3__16vectorIP19ggml_backend_bufferNS_9allocatorIS2_EEE20__throw_length_errorB8ne200100Ev, symObjAddr: 0x349E8, symBinAddr: 0x389E8, symSize: 0x14 }
  - { offset: 0xCA6B6, size: 0x8, addend: 0x0, symName: __ZNSt3__128__exception_guard_exceptionsINS_6vectorINS_6threadENS_9allocatorIS2_EEE16__destroy_vectorEED1B8ne200100Ev, symObjAddr: 0x349FC, symBinAddr: 0x389FC, symSize: 0x70 }
  - { offset: 0xCA756, size: 0x8, addend: 0x0, symName: _whisper_init_from_file_with_params, symObjAddr: 0x49FC, symBinAddr: 0x89FC, symSize: 0xC4 }
  - { offset: 0xCA929, size: 0x8, addend: 0x0, symName: _whisper_free, symObjAddr: 0x4AC0, symBinAddr: 0x8AC0, symSize: 0x74 }
  - { offset: 0xCAB50, size: 0x8, addend: 0x0, symName: _whisper_init_from_buffer_with_params, symObjAddr: 0x4B34, symBinAddr: 0x8B34, symSize: 0x110 }
  - { offset: 0xCAD87, size: 0x8, addend: 0x0, symName: _whisper_init_with_params, symObjAddr: 0x4C44, symBinAddr: 0x8C44, symSize: 0xC4 }
  - { offset: 0xCAF76, size: 0x8, addend: 0x0, symName: _whisper_init_from_file, symObjAddr: 0x4D08, symBinAddr: 0x8D08, symSize: 0x40 }
  - { offset: 0xCAFE1, size: 0x8, addend: 0x0, symName: _whisper_init_from_buffer, symObjAddr: 0x4D48, symBinAddr: 0x8D48, symSize: 0x40 }
  - { offset: 0xCB065, size: 0x8, addend: 0x0, symName: _whisper_init, symObjAddr: 0x4D88, symBinAddr: 0x8D88, symSize: 0x40 }
  - { offset: 0xCB0D0, size: 0x8, addend: 0x0, symName: _whisper_init_from_file_no_state, symObjAddr: 0x4DC8, symBinAddr: 0x8DC8, symSize: 0x40 }
  - { offset: 0xCB13B, size: 0x8, addend: 0x0, symName: _whisper_init_from_buffer_no_state, symObjAddr: 0x4E08, symBinAddr: 0x8E08, symSize: 0x98 }
  - { offset: 0xCB21A, size: 0x8, addend: 0x0, symName: _whisper_init_no_state, symObjAddr: 0x4EA0, symBinAddr: 0x8EA0, symSize: 0x40 }
  - { offset: 0xCB2A8, size: 0x8, addend: 0x0, symName: __ZN19whisper_vad_contextD2Ev, symObjAddr: 0x2A9FC, symBinAddr: 0x2E9FC, symSize: 0xD0 }
  - { offset: 0xCBE1B, size: 0x8, addend: 0x0, symName: _whisper_free_context_params, symObjAddr: 0x4FA0, symBinAddr: 0x8FA0, symSize: 0xC }
  - { offset: 0xCBE42, size: 0x8, addend: 0x0, symName: _whisper_free_params, symObjAddr: 0x4FAC, symBinAddr: 0x8FAC, symSize: 0xC }
  - { offset: 0xCC5C8, size: 0x8, addend: 0x0, symName: _whisper_pcm_to_mel_with_state, symObjAddr: 0x4FB8, symBinAddr: 0x8FB8, symSize: 0x790 }
  - { offset: 0xCD57F, size: 0x8, addend: 0x0, symName: __ZNSt3__16threadC2IRFviPKfRKNS_6vectorIfNS_9allocatorIfEEEEiiiiRK15whisper_filtersR11whisper_melEJiRS3_NS_17reference_wrapperIS8_EExRKiSL_SL_NSI_ISB_EENSI_ISD_EEELi0EEEOT_DpOT0_, symObjAddr: 0x1DA5C, symBinAddr: 0x21A5C, symSize: 0x13C }
  - { offset: 0xCDB6C, size: 0x8, addend: 0x0, symName: __ZL33log_mel_spectrogram_worker_threadiPKfRKNSt3__16vectorIfNS1_9allocatorIfEEEEiiiiRK15whisper_filtersR11whisper_mel, symObjAddr: 0x1CBAC, symBinAddr: 0x20BAC, symSize: 0x854 }
  - { offset: 0xCE35D, size: 0x8, addend: 0x0, symName: __ZNSt3__16vectorINS_6threadENS_9allocatorIS1_EEE20__throw_length_errorB8ne200100Ev, symObjAddr: 0x34A6C, symBinAddr: 0x38A6C, symSize: 0x14 }
  - { offset: 0xCE375, size: 0x8, addend: 0x0, symName: __ZNSt3__16vectorIiNS_9allocatorIiEEE20__throw_length_errorB8ne200100Ev, symObjAddr: 0x34A80, symBinAddr: 0x38A80, symSize: 0x14 }
  - { offset: 0xCE380, size: 0x8, addend: 0x0, symName: __ZNSt3__128__exception_guard_exceptionsINS_6vectorINS_6threadENS_9allocatorIS2_EEE16__destroy_vectorEED1B8ne200100Ev, symObjAddr: 0x349FC, symBinAddr: 0x389FC, symSize: 0x70 }
  - { offset: 0xCE3AE, size: 0x8, addend: 0x0, symName: __ZNSt3__128__exception_guard_exceptionsINS_6vectorINS_6threadENS_9allocatorIS2_EEE16__destroy_vectorEED1B8ne200100Ev, symObjAddr: 0x349FC, symBinAddr: 0x389FC, symSize: 0x70 }
  - { offset: 0xCE52F, size: 0x8, addend: 0x0, symName: __ZNSt3__16vectorINS_6threadENS_9allocatorIS1_EEED1B8ne200100Ev, symObjAddr: 0x15E98, symBinAddr: 0x19E98, symSize: 0x58 }
  - { offset: 0xCE6C4, size: 0x8, addend: 0x0, symName: _whisper_pcm_to_mel, symObjAddr: 0x5748, symBinAddr: 0x9748, symSize: 0x28 }
  - { offset: 0xCE753, size: 0x8, addend: 0x0, symName: _whisper_set_mel_with_state, symObjAddr: 0x5770, symBinAddr: 0x9770, symSize: 0xD4 }
  - { offset: 0xCE895, size: 0x8, addend: 0x0, symName: _whisper_set_mel, symObjAddr: 0x5844, symBinAddr: 0x9844, symSize: 0xCC }
  - { offset: 0xCE9EF, size: 0x8, addend: 0x0, symName: _whisper_encode_with_state, symObjAddr: 0x5910, symBinAddr: 0x9910, symSize: 0x58 }
  - { offset: 0xCEA7C, size: 0x8, addend: 0x0, symName: __ZL23whisper_encode_internalR15whisper_contextR13whisper_stateiiPFbPvES3_, symObjAddr: 0x5968, symBinAddr: 0x9968, symSize: 0x43C }
  - { offset: 0xCEF71, size: 0x8, addend: 0x0, symName: __ZL24whisper_build_graph_convR15whisper_contextR13whisper_state, symObjAddr: 0x1DCB0, symBinAddr: 0x21CB0, symSize: 0x1A0 }
  - { offset: 0xCF290, size: 0x8, addend: 0x0, symName: __ZL25ggml_graph_compute_helperP18ggml_backend_schedP11ggml_cgraphib, symObjAddr: 0xB7E4, symBinAddr: 0xF7E4, symSize: 0xD4 }
  - { offset: 0xCF433, size: 0x8, addend: 0x0, symName: __ZL25whisper_build_graph_crossR15whisper_contextR13whisper_state, symObjAddr: 0x1E418, symBinAddr: 0x22418, symSize: 0x2C0 }
  - { offset: 0xCF8B8, size: 0x8, addend: 0x0, symName: _whisper_encode, symObjAddr: 0x5DA4, symBinAddr: 0x9DA4, symSize: 0x64 }
  - { offset: 0xCF9B0, size: 0x8, addend: 0x0, symName: _whisper_decode_with_state, symObjAddr: 0x5E08, symBinAddr: 0x9E08, symSize: 0x128 }
  - { offset: 0xCFAE1, size: 0x8, addend: 0x0, symName: __ZL23whisper_kv_cache_seq_rmR16whisper_kv_cacheiii, symObjAddr: 0x5F30, symBinAddr: 0x9F30, symSize: 0x200 }
  - { offset: 0xCFFEA, size: 0x8, addend: 0x0, symName: __ZL23whisper_decode_internalR15whisper_contextR13whisper_stateRK13whisper_batchibPFbPvES6_, symObjAddr: 0x6130, symBinAddr: 0xA130, symSize: 0x824 }
  - { offset: 0xD155F, size: 0x8, addend: 0x0, symName: __ZL27whisper_build_graph_decoderR15whisper_contextR13whisper_stateRK13whisper_batchbb, symObjAddr: 0x1EA8C, symBinAddr: 0x22A8C, symSize: 0xC10 }
  - { offset: 0xD282D, size: 0x8, addend: 0x0, symName: __ZNSt3__111basic_regexIcNS_12regex_traitsIcEEED1Ev, symObjAddr: 0x1F69C, symBinAddr: 0x2369C, symSize: 0x64 }
  - { offset: 0xD287F, size: 0x8, addend: 0x0, symName: _whisper_decode, symObjAddr: 0x6954, symBinAddr: 0xA954, symSize: 0x54 }
  - { offset: 0xD3BD4, size: 0x8, addend: 0x0, symName: _whisper_tokenize, symObjAddr: 0x69A8, symBinAddr: 0xA9A8, symSize: 0xB2C }
  - { offset: 0xD71BB, size: 0x8, addend: 0x0, symName: __ZNSt3__111basic_regexIcNS_12regex_traitsIcEEEC2B8ne200100INS_11char_traitsIcEENS_9allocatorIcEEEERKNS_12basic_stringIcT_T0_EENS_15regex_constants18syntax_option_typeE, symObjAddr: 0x1F700, symBinAddr: 0x23700, symSize: 0xD4 }
  - { offset: 0xD73A6, size: 0x8, addend: 0x0, symName: __ZNKSt3__111basic_regexIcNS_12regex_traitsIcEEE8__searchINS_9allocatorINS_9sub_matchIPKcEEEEEEbS8_S8_RNS_13match_resultsIS8_T_EENS_15regex_constants15match_flag_typeE, symObjAddr: 0x2803C, symBinAddr: 0x2C03C, symSize: 0x308 }
  - { offset: 0xD7981, size: 0x8, addend: 0x0, symName: __ZNSt3__113match_resultsINS_11__wrap_iterIPKcEENS_9allocatorINS_9sub_matchIS4_EEEEE8__assignB8ne200100IS3_NS5_INS6_IS3_EEEEEEvS4_S4_RKNS0_IT_T0_EEb, symObjAddr: 0x28344, symBinAddr: 0x2C344, symSize: 0x168 }
  - { offset: 0xD7C19, size: 0x8, addend: 0x0, symName: __ZNSt3__16vectorINS_12basic_stringIcNS_11char_traitsIcEENS_9allocatorIcEEEENS4_IS6_EEE20__throw_length_errorB8ne200100Ev, symObjAddr: 0x26584, symBinAddr: 0x2A584, symSize: 0x14 }
  - { offset: 0xD7C31, size: 0x8, addend: 0x0, symName: __ZNSt3__119__throw_regex_errorB8ne200100ILNS_15regex_constants10error_typeE2EEEvv, symObjAddr: 0x26598, symBinAddr: 0x2A598, symSize: 0x4C }
  - { offset: 0xD7C3C, size: 0x8, addend: 0x0, symName: __ZNSt3__16vectorIiNS_9allocatorIiEEE20__throw_length_errorB8ne200100Ev, symObjAddr: 0x34A80, symBinAddr: 0x38A80, symSize: 0x14 }
  - { offset: 0xD7C54, size: 0x8, addend: 0x0, symName: '__ZNSt3__110__function6__funcIZ18whisper_init_stateE3$_0NS_9allocatorIS2_EEFP11ggml_cgraphvEED1Ev', symObjAddr: 0x34A94, symBinAddr: 0x38A94, symSize: 0x4 }
  - { offset: 0xD7C5F, size: 0x8, addend: 0x0, symName: __ZNSt3__111basic_regexIcNS_12regex_traitsIcEEED1Ev, symObjAddr: 0x1F69C, symBinAddr: 0x2369C, symSize: 0x64 }
  - { offset: 0xD7D6A, size: 0x8, addend: 0x0, symName: _whisper_tokenize.cold.1, symObjAddr: 0x39EAC, symBinAddr: 0x1374BC, symSize: 0x48 }
  - { offset: 0xD7F9E, size: 0x8, addend: 0x0, symName: _whisper_token_count, symObjAddr: 0x74D4, symBinAddr: 0xB4D4, symSize: 0x20 }
  - { offset: 0xD8071, size: 0x8, addend: 0x0, symName: _whisper_lang_max_id, symObjAddr: 0x74F4, symBinAddr: 0xB4F4, symSize: 0x74 }
  - { offset: 0xD808F, size: 0x8, addend: 0x0, symName: _whisper_lang_max_id, symObjAddr: 0x74F4, symBinAddr: 0xB4F4, symSize: 0x74 }
  - { offset: 0xD80BF, size: 0x8, addend: 0x0, symName: _whisper_lang_max_id, symObjAddr: 0x74F4, symBinAddr: 0xB4F4, symSize: 0x74 }
  - { offset: 0xD80DF, size: 0x8, addend: 0x0, symName: _whisper_lang_max_id, symObjAddr: 0x74F4, symBinAddr: 0xB4F4, symSize: 0x74 }
  - { offset: 0xD83F5, size: 0x8, addend: 0x0, symName: _whisper_lang_id, symObjAddr: 0x7568, symBinAddr: 0xB568, symSize: 0x3F4 }
  - { offset: 0xD95D6, size: 0x8, addend: 0x0, symName: _whisper_lang_str_full, symObjAddr: 0x7A18, symBinAddr: 0xBA18, symSize: 0xBC }
  - { offset: 0xD9C47, size: 0x8, addend: 0x0, symName: _whisper_lang_auto_detect_with_state, symObjAddr: 0x7AD4, symBinAddr: 0xBAD4, symSize: 0x4F0 }
  - { offset: 0xDAB30, size: 0x8, addend: 0x0, symName: _whisper_token_sot, symObjAddr: 0x7FC4, symBinAddr: 0xBFC4, symSize: 0x8 }
  - { offset: 0xDAB4F, size: 0x8, addend: 0x0, symName: _whisper_token_lang, symObjAddr: 0x7FCC, symBinAddr: 0xBFCC, symSize: 0x10 }
  - { offset: 0xDAB79, size: 0x8, addend: 0x0, symName: _whisper_token_lang, symObjAddr: 0x7FCC, symBinAddr: 0xBFCC, symSize: 0x10 }
  - { offset: 0xDAB95, size: 0x8, addend: 0x0, symName: _whisper_lang_auto_detect, symObjAddr: 0x7FDC, symBinAddr: 0xBFDC, symSize: 0x14 }
  - { offset: 0xDAC22, size: 0x8, addend: 0x0, symName: _whisper_model_n_vocab, symObjAddr: 0x7FF0, symBinAddr: 0xBFF0, symSize: 0x8 }
  - { offset: 0xDAC4F, size: 0x8, addend: 0x0, symName: _whisper_model_n_audio_ctx, symObjAddr: 0x7FF8, symBinAddr: 0xBFF8, symSize: 0x8 }
  - { offset: 0xDAC7C, size: 0x8, addend: 0x0, symName: _whisper_model_n_audio_state, symObjAddr: 0x8000, symBinAddr: 0xC000, symSize: 0x8 }
  - { offset: 0xDACA9, size: 0x8, addend: 0x0, symName: _whisper_model_n_audio_head, symObjAddr: 0x8008, symBinAddr: 0xC008, symSize: 0x8 }
  - { offset: 0xDACD6, size: 0x8, addend: 0x0, symName: _whisper_model_n_audio_layer, symObjAddr: 0x8010, symBinAddr: 0xC010, symSize: 0x8 }
  - { offset: 0xDAD03, size: 0x8, addend: 0x0, symName: _whisper_model_n_text_ctx, symObjAddr: 0x8018, symBinAddr: 0xC018, symSize: 0x8 }
  - { offset: 0xDAD30, size: 0x8, addend: 0x0, symName: _whisper_model_n_text_state, symObjAddr: 0x8020, symBinAddr: 0xC020, symSize: 0x8 }
  - { offset: 0xDAD5D, size: 0x8, addend: 0x0, symName: _whisper_model_n_text_head, symObjAddr: 0x8028, symBinAddr: 0xC028, symSize: 0x8 }
  - { offset: 0xDAD8A, size: 0x8, addend: 0x0, symName: _whisper_model_n_text_layer, symObjAddr: 0x8030, symBinAddr: 0xC030, symSize: 0x8 }
  - { offset: 0xDADB7, size: 0x8, addend: 0x0, symName: _whisper_model_n_mels, symObjAddr: 0x8038, symBinAddr: 0xC038, symSize: 0x8 }
  - { offset: 0xDADE4, size: 0x8, addend: 0x0, symName: _whisper_model_ftype, symObjAddr: 0x8040, symBinAddr: 0xC040, symSize: 0x8 }
  - { offset: 0xDAE11, size: 0x8, addend: 0x0, symName: _whisper_model_type, symObjAddr: 0x8048, symBinAddr: 0xC048, symSize: 0x8 }
  - { offset: 0xDAE3E, size: 0x8, addend: 0x0, symName: _whisper_model_type_readable, symObjAddr: 0x8050, symBinAddr: 0xC050, symSize: 0x2C }
  - { offset: 0xDAE6B, size: 0x8, addend: 0x0, symName: _whisper_n_len_from_state, symObjAddr: 0x807C, symBinAddr: 0xC07C, symSize: 0x8 }
  - { offset: 0xDAE8A, size: 0x8, addend: 0x0, symName: _whisper_n_len, symObjAddr: 0x8084, symBinAddr: 0xC084, symSize: 0xC }
  - { offset: 0xDAEB7, size: 0x8, addend: 0x0, symName: _whisper_n_vocab, symObjAddr: 0x8090, symBinAddr: 0xC090, symSize: 0x8 }
  - { offset: 0xDAEE4, size: 0x8, addend: 0x0, symName: _whisper_n_text_ctx, symObjAddr: 0x8098, symBinAddr: 0xC098, symSize: 0x8 }
  - { offset: 0xDAF03, size: 0x8, addend: 0x0, symName: _whisper_n_audio_ctx, symObjAddr: 0x80A0, symBinAddr: 0xC0A0, symSize: 0x8 }
  - { offset: 0xDAF22, size: 0x8, addend: 0x0, symName: _whisper_is_multilingual, symObjAddr: 0x80A8, symBinAddr: 0xC0A8, symSize: 0x14 }
  - { offset: 0xDAF44, size: 0x8, addend: 0x0, symName: _whisper_is_multilingual, symObjAddr: 0x80A8, symBinAddr: 0xC0A8, symSize: 0x14 }
  - { offset: 0xDAF63, size: 0x8, addend: 0x0, symName: _whisper_get_logits, symObjAddr: 0x80BC, symBinAddr: 0xC0BC, symSize: 0xC }
  - { offset: 0xDAFB3, size: 0x8, addend: 0x0, symName: _whisper_get_logits_from_state, symObjAddr: 0x80C8, symBinAddr: 0xC0C8, symSize: 0x8 }
  - { offset: 0xDAFE3, size: 0x8, addend: 0x0, symName: _whisper_get_logits_from_state, symObjAddr: 0x80C8, symBinAddr: 0xC0C8, symSize: 0x8 }
  - { offset: 0xDB063, size: 0x8, addend: 0x0, symName: _whisper_token_to_str, symObjAddr: 0x80D0, symBinAddr: 0xC0D0, symSize: 0x60 }
  - { offset: 0xDB1D2, size: 0x8, addend: 0x0, symName: _whisper_token_eot, symObjAddr: 0x8130, symBinAddr: 0xC130, symSize: 0x8 }
  - { offset: 0xDB1F1, size: 0x8, addend: 0x0, symName: _whisper_token_solm, symObjAddr: 0x8138, symBinAddr: 0xC138, symSize: 0x8 }
  - { offset: 0xDB210, size: 0x8, addend: 0x0, symName: _whisper_token_prev, symObjAddr: 0x8140, symBinAddr: 0xC140, symSize: 0x8 }
  - { offset: 0xDB22F, size: 0x8, addend: 0x0, symName: _whisper_token_nosp, symObjAddr: 0x8148, symBinAddr: 0xC148, symSize: 0x8 }
  - { offset: 0xDB24E, size: 0x8, addend: 0x0, symName: _whisper_token_not, symObjAddr: 0x8150, symBinAddr: 0xC150, symSize: 0x8 }
  - { offset: 0xDB26D, size: 0x8, addend: 0x0, symName: _whisper_token_beg, symObjAddr: 0x8158, symBinAddr: 0xC158, symSize: 0x8 }
  - { offset: 0xDB28C, size: 0x8, addend: 0x0, symName: _whisper_token_translate, symObjAddr: 0x8160, symBinAddr: 0xC160, symSize: 0x8 }
  - { offset: 0xDB2AB, size: 0x8, addend: 0x0, symName: _whisper_token_transcribe, symObjAddr: 0x8168, symBinAddr: 0xC168, symSize: 0x8 }
  - { offset: 0xDB2CA, size: 0x8, addend: 0x0, symName: _whisper_get_timings, symObjAddr: 0x8170, symBinAddr: 0xC170, symSize: 0x9C }
  - { offset: 0xDB3CD, size: 0x8, addend: 0x0, symName: _whisper_print_timings, symObjAddr: 0x820C, symBinAddr: 0xC20C, symSize: 0x2A0 }
  - { offset: 0xDB671, size: 0x8, addend: 0x0, symName: _whisper_reset_timings, symObjAddr: 0x84AC, symBinAddr: 0xC4AC, symSize: 0x3C }
  - { offset: 0xDB727, size: 0x8, addend: 0x0, symName: _whisper_print_system_info.cold.1, symObjAddr: 0x39EF4, symBinAddr: 0x137504, symSize: 0x50 }
  - { offset: 0xDB76D, size: 0x8, addend: 0x0, symName: _whisper_vad_default_context_params, symObjAddr: 0x8880, symBinAddr: 0xC880, symSize: 0xC }
  - { offset: 0xDB79A, size: 0x8, addend: 0x0, symName: _whisper_vad_default_params, symObjAddr: 0x888C, symBinAddr: 0xC88C, symSize: 0x1C }
  - { offset: 0xDB7B8, size: 0x8, addend: 0x0, symName: _whisper_vad_init_from_file_with_params, symObjAddr: 0x88A8, symBinAddr: 0xC8A8, symSize: 0x184 }
  - { offset: 0xDB9CD, size: 0x8, addend: 0x0, symName: _whisper_vad_init_with_params, symObjAddr: 0x8A2C, symBinAddr: 0xCA2C, symSize: 0x1968 }
  - { offset: 0xE188A, size: 0x8, addend: 0x0, symName: '__ZZ28whisper_vad_init_with_paramsENK3$_1clE10vad_tensorP11ggml_tensor', symObjAddr: 0xA784, symBinAddr: 0xE784, symSize: 0x698 }
  - { offset: 0xE360B, size: 0x8, addend: 0x0, symName: __ZNSt3__16vectorINS_4pairIP19ggml_backend_deviceP24ggml_backend_buffer_typeEENS_9allocatorIS6_EEE20__throw_length_errorB8ne200100Ev, symObjAddr: 0x1C6E4, symBinAddr: 0x206E4, symSize: 0x14 }
  - { offset: 0xE3623, size: 0x8, addend: 0x0, symName: __ZNSt3__16vectorIP12ggml_contextNS_9allocatorIS2_EEE20__throw_length_errorB8ne200100Ev, symObjAddr: 0x1C6F8, symBinAddr: 0x206F8, symSize: 0x14 }
  - { offset: 0xE462D, size: 0x8, addend: 0x0, symName: __ZNKSt3__13mapI10vad_tensorPKcNS_4lessIS1_EENS_9allocatorINS_4pairIKS1_S3_EEEEE2atERS8_, symObjAddr: 0x2A8D4, symBinAddr: 0x2E8D4, symSize: 0x54 }
  - { offset: 0xE472F, size: 0x8, addend: 0x0, symName: __ZL6formatPKcz, symObjAddr: 0x1C4B4, symBinAddr: 0x204B4, symSize: 0x154 }
  - { offset: 0xE4DBD, size: 0x8, addend: 0x0, symName: __ZNSt3__16vectorIP12ggml_contextNS_9allocatorIS2_EEE20__throw_length_errorB8ne200100Ev, symObjAddr: 0x1C6F8, symBinAddr: 0x206F8, symSize: 0x14 }
  - { offset: 0xE4DD5, size: 0x8, addend: 0x0, symName: __ZN15whisper_contextD2Ev, symObjAddr: 0x1C70C, symBinAddr: 0x2070C, symSize: 0xA4 }
  - { offset: 0xE4DE0, size: 0x8, addend: 0x0, symName: __ZNSt3__110unique_ptrI12ggml_context20ggml_context_deleterED1B8ne200100Ev, symObjAddr: 0x1C6B0, symBinAddr: 0x206B0, symSize: 0x34 }
  - { offset: 0xE50E8, size: 0x8, addend: 0x0, symName: _whisper_vad_detect_speech, symObjAddr: 0xAF2C, symBinAddr: 0xEF2C, symSize: 0x3E0 }
  - { offset: 0xE5E0F, size: 0x8, addend: 0x0, symName: __ZL23whisper_vad_build_graphR19whisper_vad_context, symObjAddr: 0xB30C, symBinAddr: 0xF30C, symSize: 0x4D8 }
  - { offset: 0xE6B6A, size: 0x8, addend: 0x0, symName: _whisper_vad_segments_n_segments, symObjAddr: 0xB8B8, symBinAddr: 0xF8B8, symSize: 0x10 }
  - { offset: 0xE6B9A, size: 0x8, addend: 0x0, symName: _whisper_vad_segments_n_segments, symObjAddr: 0xB8B8, symBinAddr: 0xF8B8, symSize: 0x10 }
  - { offset: 0xE6BDE, size: 0x8, addend: 0x0, symName: _whisper_vad_segments_get_segment_t0, symObjAddr: 0xB8C8, symBinAddr: 0xF8C8, symSize: 0x14 }
  - { offset: 0xE6C1B, size: 0x8, addend: 0x0, symName: _whisper_vad_segments_get_segment_t0, symObjAddr: 0xB8C8, symBinAddr: 0xF8C8, symSize: 0x14 }
  - { offset: 0xE6C37, size: 0x8, addend: 0x0, symName: _whisper_vad_segments_get_segment_t1, symObjAddr: 0xB8DC, symBinAddr: 0xF8DC, symSize: 0x14 }
  - { offset: 0xE6C74, size: 0x8, addend: 0x0, symName: _whisper_vad_segments_get_segment_t1, symObjAddr: 0xB8DC, symBinAddr: 0xF8DC, symSize: 0x14 }
  - { offset: 0xE6C90, size: 0x8, addend: 0x0, symName: _whisper_vad_n_probs, symObjAddr: 0xB8F0, symBinAddr: 0xF8F0, symSize: 0x10 }
  - { offset: 0xE6CB2, size: 0x8, addend: 0x0, symName: _whisper_vad_n_probs, symObjAddr: 0xB8F0, symBinAddr: 0xF8F0, symSize: 0x10 }
  - { offset: 0xE6CD1, size: 0x8, addend: 0x0, symName: _whisper_vad_probs, symObjAddr: 0xB900, symBinAddr: 0xF900, symSize: 0x8 }
  - { offset: 0xE6D01, size: 0x8, addend: 0x0, symName: _whisper_vad_probs, symObjAddr: 0xB900, symBinAddr: 0xF900, symSize: 0x8 }
  - { offset: 0xE7530, size: 0x8, addend: 0x0, symName: __ZNSt3__16vectorIZ31whisper_vad_segments_from_probsE16speech_segment_tNS_9allocatorIS1_EEE20__throw_length_errorB8ne200100Ev, symObjAddr: 0x36408, symBinAddr: 0x3A408, symSize: 0x14 }
  - { offset: 0xE7548, size: 0x8, addend: 0x0, symName: __ZNSt3__16vectorI19whisper_vad_segmentNS_9allocatorIS1_EEE20__throw_length_errorB8ne200100Ev, symObjAddr: 0x3641C, symBinAddr: 0x3A41C, symSize: 0x14 }
  - { offset: 0xE7553, size: 0x8, addend: 0x0, symName: __ZNSt3__16vectorI19whisper_vad_segmentNS_9allocatorIS1_EEE20__throw_length_errorB8ne200100Ev, symObjAddr: 0x3641C, symBinAddr: 0x3A41C, symSize: 0x14 }
  - { offset: 0xE756B, size: 0x8, addend: 0x0, symName: __ZNSt3__16vectorI18whisper_token_dataNS_9allocatorIS1_EEE8__appendEm, symObjAddr: 0x36430, symBinAddr: 0x3A430, symSize: 0x1A4 }
  - { offset: 0xE7576, size: 0x8, addend: 0x0, symName: _whisper_vad_segments_from_samples, symObjAddr: 0xC3B8, symBinAddr: 0x103B8, symSize: 0xBC }
  - { offset: 0xE76D9, size: 0x8, addend: 0x0, symName: _whisper_vad_free_segments, symObjAddr: 0xC474, symBinAddr: 0x10474, symSize: 0x3C }
  - { offset: 0xE7874, size: 0x8, addend: 0x0, symName: _whisper_context_default_params_by_ref, symObjAddr: 0xC4B0, symBinAddr: 0x104B0, symSize: 0x44 }
  - { offset: 0xE78DA, size: 0x8, addend: 0x0, symName: _whisper_full_default_params_by_ref, symObjAddr: 0xC4F4, symBinAddr: 0x104F4, symSize: 0x1E0 }
  - { offset: 0xE7980, size: 0x8, addend: 0x0, symName: _whisper_full_default_params, symObjAddr: 0xC6D4, symBinAddr: 0x106D4, symSize: 0x13C }
  - { offset: 0xE79C2, size: 0x8, addend: 0x0, symName: __ZNSt3__16vectorINS_12basic_stringIcNS_11char_traitsIcEENS_9allocatorIcEEEENS4_IS6_EEED1B8ne200100Ev, symObjAddr: 0xC810, symBinAddr: 0x10810, symSize: 0x70 }
  - { offset: 0xED211, size: 0x8, addend: 0x0, symName: __ZNSt3__16vectorIiNS_9allocatorIiEEE18__assign_with_sizeB8ne200100IPKiS6_EEvT_T0_l, symObjAddr: 0x36AE0, symBinAddr: 0x3AAE0, symSize: 0x20C }
  - { offset: 0xEDA77, size: 0x8, addend: 0x0, symName: __ZNSt3__18__rotateB8ne200100INS_17_ClassicAlgPolicyENS_11__wrap_iterIPiEES4_EENS_4pairIT0_S6_EES6_S6_T1_, symObjAddr: 0x36CEC, symBinAddr: 0x3ACEC, symSize: 0x1B8 }
  - { offset: 0xEDA94, size: 0x8, addend: 0x0, symName: __ZNSt3__16vectorIiNS_9allocatorIiEEE8__appendEm, symObjAddr: 0x369C0, symBinAddr: 0x3A9C0, symSize: 0x120 }
  - { offset: 0xEDEB5, size: 0x8, addend: 0x0, symName: __ZNSt3__16vectorIiNS_9allocatorIiEEE18__assign_with_sizeB8ne200100IPKiS6_EEvT_T0_l, symObjAddr: 0x36AE0, symBinAddr: 0x3AAE0, symSize: 0x20C }
  - { offset: 0xEDEC0, size: 0x8, addend: 0x0, symName: __ZNSt3__16vectorIiNS_9allocatorIiEEE6resizeEm, symObjAddr: 0x13268, symBinAddr: 0x17268, symSize: 0x2C }
  - { offset: 0xEDEF8, size: 0x8, addend: 0x0, symName: __ZNSt3__16vectorIiNS_9allocatorIiEEE6resizeEm, symObjAddr: 0x13268, symBinAddr: 0x17268, symSize: 0x2C }
  - { offset: 0xEDF70, size: 0x8, addend: 0x0, symName: __ZNSt3__16vectorIiNS_9allocatorIiEEE9push_backB8ne200100ERKi, symObjAddr: 0x13294, symBinAddr: 0x17294, symSize: 0xEC }
  - { offset: 0xEE3BE, size: 0x8, addend: 0x0, symName: __ZN15whisper_grammaraSEOS_, symObjAddr: 0x13380, symBinAddr: 0x17380, symSize: 0x118 }
  - { offset: 0xEE3C9, size: 0x8, addend: 0x0, symName: __ZL29whisper_grammar_advance_stackRKNSt3__16vectorINS0_I23whisper_grammar_elementNS_9allocatorIS1_EEEENS2_IS4_EEEERKNS0_IPKS1_NS2_ISA_EEEERNS0_ISC_NS2_ISC_EEEE, symObjAddr: 0x2AACC, symBinAddr: 0x2EACC, symSize: 0x4E8 }
  - { offset: 0xEFBF3, size: 0x8, addend: 0x0, symName: __ZNSt3__16vectorIiNS_9allocatorIiEEE18__insert_with_sizeB8ne200100INS_11__wrap_iterIPiEES7_EES7_NS5_IPKiEET_T0_l, symObjAddr: 0x37018, symBinAddr: 0x3B018, symSize: 0x3A4 }
  - { offset: 0xF077B, size: 0x8, addend: 0x0, symName: '__ZNSt3__114__thread_proxyB8ne200100INS_5tupleIJNS_10unique_ptrINS_15__thread_structENS_14default_deleteIS3_EEEEZ23whisper_full_with_stateE3$_0EEEEEPvS9_', symObjAddr: 0x373BC, symBinAddr: 0x3B3BC, symSize: 0x78 }
  - { offset: 0xF0798, size: 0x8, addend: 0x0, symName: __ZL22whisper_process_logitsR15whisper_contextR13whisper_stateR15whisper_decoder19whisper_full_paramsf, symObjAddr: 0x13498, symBinAddr: 0x17498, symSize: 0x17BC }
  - { offset: 0xF5450, size: 0x8, addend: 0x0, symName: '__ZZ23whisper_full_with_stateENK3$_0clEv', symObjAddr: 0x14C54, symBinAddr: 0x18C54, symSize: 0x1244 }
  - { offset: 0xF8B6A, size: 0x8, addend: 0x0, symName: __ZNSt3__16vectorINS0_I23whisper_grammar_elementNS_9allocatorIS1_EEEENS2_IS4_EEE18__assign_with_sizeB8ne200100IPS4_S8_EEvT_T0_l, symObjAddr: 0x30DE8, symBinAddr: 0x34DE8, symSize: 0x258 }
  - { offset: 0xF96B1, size: 0x8, addend: 0x0, symName: __ZNSt3__16vectorINS0_IPK23whisper_grammar_elementNS_9allocatorIS3_EEEENS4_IS6_EEE18__assign_with_sizeB8ne200100IPS6_SA_EEvT_T0_l, symObjAddr: 0x31188, symBinAddr: 0x35188, symSize: 0x258 }
  - { offset: 0xFA1F8, size: 0x8, addend: 0x0, symName: __ZNSt3__16vectorI18whisper_token_dataNS_9allocatorIS1_EEE8__appendEm, symObjAddr: 0x36430, symBinAddr: 0x3A430, symSize: 0x1A4 }
  - { offset: 0xFA5F4, size: 0x8, addend: 0x0, symName: __ZNSt3__16vectorI15whisper_segmentNS_9allocatorIS1_EEE24__emplace_back_slow_pathIJS1_EEEPS1_DpOT_, symObjAddr: 0x365D4, symBinAddr: 0x3A5D4, symSize: 0x1C4 }
  - { offset: 0xFA5FF, size: 0x8, addend: 0x0, symName: __ZNSt3__16__treeINS_12__value_typeIiiEENS_19__map_value_compareIiS2_NS_4lessIiEELb1EEENS_9allocatorIS2_EEE7destroyEPNS_11__tree_nodeIS2_PvEE, symObjAddr: 0x31528, symBinAddr: 0x35528, symSize: 0x44 }
  - { offset: 0xFA764, size: 0x8, addend: 0x0, symName: __ZNSt3__16vectorI15whisper_segmentNS_9allocatorIS1_EEE24__emplace_back_slow_pathIJS1_EEEPS1_DpOT_, symObjAddr: 0x365D4, symBinAddr: 0x3A5D4, symSize: 0x1C4 }
  - { offset: 0xFB051, size: 0x8, addend: 0x0, symName: __ZNSt3__16vectorI15whisper_segmentNS_9allocatorIS1_EEE20__throw_length_errorB8ne200100Ev, symObjAddr: 0x36798, symBinAddr: 0x3A798, symSize: 0x14 }
  - { offset: 0xFB067, size: 0x8, addend: 0x0, symName: __ZNSt3__16vectorI18whisper_token_dataNS_9allocatorIS1_EEE9push_backB8ne200100ERKS1_, symObjAddr: 0x160A8, symBinAddr: 0x1A0A8, symSize: 0x15C }
  - { offset: 0xFB489, size: 0x8, addend: 0x0, symName: __ZL42whisper_exp_compute_token_level_timestampsR15whisper_contextR13whisper_stateiff, symObjAddr: 0x16204, symBinAddr: 0x1A204, symSize: 0x7BC }
  - { offset: 0xFB494, size: 0x8, addend: 0x0, symName: __ZL42whisper_exp_compute_token_level_timestampsR15whisper_contextR13whisper_stateiff, symObjAddr: 0x16204, symBinAddr: 0x1A204, symSize: 0x7BC }
  - { offset: 0xFC113, size: 0x8, addend: 0x0, symName: __ZL20whisper_wrap_segmentR15whisper_contextR13whisper_stateib, symObjAddr: 0x169C0, symBinAddr: 0x1A9C0, symSize: 0x504 }
  - { offset: 0xFC11E, size: 0x8, addend: 0x0, symName: __ZL20whisper_wrap_segmentR15whisper_contextR13whisper_stateib, symObjAddr: 0x169C0, symBinAddr: 0x1A9C0, symSize: 0x504 }
  - { offset: 0xFD761, size: 0x8, addend: 0x0, symName: __ZL12to_timestampxb, symObjAddr: 0x15EF0, symBinAddr: 0x19EF0, symSize: 0x168 }
  - { offset: 0xFDB8F, size: 0x8, addend: 0x0, symName: __ZNSt3__116allocator_traitsINS_9allocatorIZ23whisper_full_with_stateE14beam_candidateEEE7destroyB8ne200100IS2_Li0EEEvRS3_PT_, symObjAddr: 0x306A0, symBinAddr: 0x346A0, symSize: 0xD8 }
  - { offset: 0xFE31C, size: 0x8, addend: 0x0, symName: __ZNSt3__16vectorINS0_IZ23whisper_full_with_stateE14beam_candidateNS_9allocatorIS1_EEEENS2_IS4_EEE16__destroy_vectorclB8ne200100Ev, symObjAddr: 0x36EA4, symBinAddr: 0x3AEA4, symSize: 0x174 }
  - { offset: 0xFECD0, size: 0x8, addend: 0x0, symName: __ZNSt3__16vectorI23whisper_grammar_elementNS_9allocatorIS1_EEE20__throw_length_errorB8ne200100Ev, symObjAddr: 0x2B134, symBinAddr: 0x2F134, symSize: 0x14 }
  - { offset: 0xFECE8, size: 0x8, addend: 0x0, symName: __ZNSt3__16vectorIPK23whisper_grammar_elementNS_9allocatorIS3_EEE20__throw_length_errorB8ne200100Ev, symObjAddr: 0x2B148, symBinAddr: 0x2F148, symSize: 0x14 }
  - { offset: 0xFECF3, size: 0x8, addend: 0x0, symName: __ZNSt3__16vectorIPK23whisper_grammar_elementNS_9allocatorIS3_EEE20__throw_length_errorB8ne200100Ev, symObjAddr: 0x2B148, symBinAddr: 0x2F148, symSize: 0x14 }
  - { offset: 0xFED0B, size: 0x8, addend: 0x0, symName: __ZNSt3__114__split_bufferINS_6vectorIPK23whisper_grammar_elementNS_9allocatorIS4_EEEERNS5_IS7_EEED1Ev, symObjAddr: 0x2B15C, symBinAddr: 0x2F15C, symSize: 0x6C }
  - { offset: 0xFED1E, size: 0x8, addend: 0x0, symName: __ZNSt3__16vectorINS0_I23whisper_grammar_elementNS_9allocatorIS1_EEEENS2_IS4_EEE20__throw_length_errorB8ne200100Ev, symObjAddr: 0x2B120, symBinAddr: 0x2F120, symSize: 0x14 }
  - { offset: 0xFED36, size: 0x8, addend: 0x0, symName: __ZNSt3__16vectorI23whisper_grammar_elementNS_9allocatorIS1_EEE20__throw_length_errorB8ne200100Ev, symObjAddr: 0x2B134, symBinAddr: 0x2F134, symSize: 0x14 }
  - { offset: 0xFED41, size: 0x8, addend: 0x0, symName: __ZNSt3__16vectorINS0_IPK23whisper_grammar_elementNS_9allocatorIS3_EEEENS4_IS6_EEE20__throw_length_errorB8ne200100Ev, symObjAddr: 0x2B1C8, symBinAddr: 0x2F1C8, symSize: 0x14 }
  - { offset: 0xFED59, size: 0x8, addend: 0x0, symName: __ZNSt3__16vectorINS0_IPK23whisper_grammar_elementNS_9allocatorIS3_EEEENS4_IS6_EEE24__emplace_back_slow_pathIJRKS6_EEEPS6_DpOT_, symObjAddr: 0x2B1DC, symBinAddr: 0x2F1DC, symSize: 0x170 }
  - { offset: 0xFED64, size: 0x8, addend: 0x0, symName: __ZNSt3__16vectorIZ23whisper_full_with_stateE14beam_candidateNS_9allocatorIS1_EEE20__throw_length_errorB8ne200100Ev, symObjAddr: 0x3068C, symBinAddr: 0x3468C, symSize: 0x14 }
  - { offset: 0xFED7C, size: 0x8, addend: 0x0, symName: __ZNSt3__116allocator_traitsINS_9allocatorIZ23whisper_full_with_stateE14beam_candidateEEE7destroyB8ne200100IS2_Li0EEEvRS3_PT_, symObjAddr: 0x306A0, symBinAddr: 0x346A0, symSize: 0xD8 }
  - { offset: 0xFED87, size: 0x8, addend: 0x0, symName: __ZN15whisper_segmentD1Ev, symObjAddr: 0x16058, symBinAddr: 0x1A058, symSize: 0x50 }
  - { offset: 0xFF002, size: 0x8, addend: 0x0, symName: __ZNSt3__110unique_ptrI12ggml_backend20ggml_backend_deleterED1B8ne200100Ev, symObjAddr: 0x328D0, symBinAddr: 0x368D0, symSize: 0x34 }
  - { offset: 0xFF0A0, size: 0x8, addend: 0x0, symName: __ZNSt3__128__exception_guard_exceptionsINS_6vectorINS1_I23whisper_grammar_elementNS_9allocatorIS2_EEEENS3_IS5_EEE16__destroy_vectorEED1B8ne200100Ev, symObjAddr: 0x2B09C, symBinAddr: 0x2F09C, symSize: 0x84 }
  - { offset: 0xFF350, size: 0x8, addend: 0x0, symName: '__ZNSt3__110unique_ptrINS_5tupleIJNS0_INS_15__thread_structENS_14default_deleteIS2_EEEEZ23whisper_full_with_stateE3$_2EEENS3_IS7_EEED1B8ne200100Ev', symObjAddr: 0x39AC8, symBinAddr: 0x3DAC8, symSize: 0x48 }
  - { offset: 0xFF514, size: 0x8, addend: 0x0, symName: __ZNSt3__110unique_ptrINS_15__thread_structENS_14default_deleteIS1_EEED1B8ne200100Ev, symObjAddr: 0x1DC74, symBinAddr: 0x21C74, symSize: 0x3C }
  - { offset: 0xFF5B5, size: 0x8, addend: 0x0, symName: '__ZNSt3__110unique_ptrINS_5tupleIJNS0_INS_15__thread_structENS_14default_deleteIS2_EEEEZ23whisper_full_with_stateE3$_0EEENS3_IS7_EEED1B8ne200100Ev', symObjAddr: 0x37434, symBinAddr: 0x3B434, symSize: 0x48 }
  - { offset: 0xFF779, size: 0x8, addend: 0x0, symName: _whisper_full_with_state.cold.2, symObjAddr: 0x39F8C, symBinAddr: 0x13759C, symSize: 0x48 }
  - { offset: 0xFF8D5, size: 0x8, addend: 0x0, symName: __ZNSt3__16vectorINS0_IPK23whisper_grammar_elementNS_9allocatorIS3_EEEENS4_IS6_EEED1B8ne200100Ev, symObjAddr: 0x2AFB4, symBinAddr: 0x2EFB4, symSize: 0x74 }
  - { offset: 0xFFB7F, size: 0x8, addend: 0x0, symName: __ZNSt3__128__exception_guard_exceptionsINS_6vectorINS1_IPK23whisper_grammar_elementNS_9allocatorIS4_EEEENS5_IS7_EEE16__destroy_vectorEED1B8ne200100Ev, symObjAddr: 0x30A74, symBinAddr: 0x34A74, symSize: 0x84 }
  - { offset: 0xFFE2F, size: 0x8, addend: 0x0, symName: __ZNSt3__16vectorINS0_I23whisper_grammar_elementNS_9allocatorIS1_EEEENS2_IS4_EEED1B8ne200100Ev, symObjAddr: 0x2B028, symBinAddr: 0x2F028, symSize: 0x74 }
  - { offset: 0x1000D9, size: 0x8, addend: 0x0, symName: _whisper_full_with_state.cold.1, symObjAddr: 0x39F44, symBinAddr: 0x137554, symSize: 0x48 }
  - { offset: 0x100318, size: 0x8, addend: 0x0, symName: _whisper_full_with_state.cold.3, symObjAddr: 0x39FD4, symBinAddr: 0x1375E4, symSize: 0x48 }
  - { offset: 0x10045D, size: 0x8, addend: 0x0, symName: __ZNSt3__16vectorIZ23whisper_full_with_stateE14beam_candidateNS_9allocatorIS1_EEED1B8ne200100Ev, symObjAddr: 0x16EC4, symBinAddr: 0x1AEC4, symSize: 0x60 }
  - { offset: 0x10059B, size: 0x8, addend: 0x0, symName: __ZN15whisper_grammaraSEOS_, symObjAddr: 0x13380, symBinAddr: 0x17380, symSize: 0x118 }
  - { offset: 0x1018F7, size: 0x8, addend: 0x0, symName: __ZNSt3__111basic_regexIcNS_12regex_traitsIcEEEC2B8ne200100EPKcNS_15regex_constants18syntax_option_typeE, symObjAddr: 0x2B34C, symBinAddr: 0x2F34C, symSize: 0xC8 }
  - { offset: 0x101AD0, size: 0x8, addend: 0x0, symName: __ZL33whisper_grammar_reject_candidatesRKNSt3__16vectorINS0_I23whisper_grammar_elementNS_9allocatorIS1_EEEENS2_IS4_EEEERKNS0_INS0_IPKS1_NS2_ISA_EEEENS2_ISC_EEEERKNS0_I25whisper_grammar_candidateNS2_ISH_EEEE, symObjAddr: 0x2F36C, symBinAddr: 0x3336C, symSize: 0xF8 }
  - { offset: 0x101EB2, size: 0x8, addend: 0x0, symName: __ZL22whisper_process_logitsR15whisper_contextR13whisper_stateR15whisper_decoder19whisper_full_paramsf.cold.1, symObjAddr: 0x3A01C, symBinAddr: 0x13762C, symSize: 0x38 }
  - { offset: 0x101ECA, size: 0x8, addend: 0x0, symName: __ZNSt3__16vectorI25whisper_grammar_candidateNS_9allocatorIS1_EEE20__throw_length_errorB8ne200100Ev, symObjAddr: 0x2F4EC, symBinAddr: 0x334EC, symSize: 0x14 }
  - { offset: 0x101EE2, size: 0x8, addend: 0x0, symName: __ZL43whisper_grammar_reject_candidates_for_stackRKNSt3__16vectorINS0_I23whisper_grammar_elementNS_9allocatorIS1_EEEENS2_IS4_EEEERKNS0_IPKS1_NS2_ISA_EEEERKNS0_I25whisper_grammar_candidateNS2_ISF_EEEE, symObjAddr: 0x2F500, symBinAddr: 0x33500, symSize: 0x808 }
  - { offset: 0x101EED, size: 0x8, addend: 0x0, symName: __ZNSt3__16vectorINS_4pairINS0_IjNS_9allocatorIjEEEE20whisper_partial_utf8EENS2_IS6_EEE20__throw_length_errorB8ne200100Ev, symObjAddr: 0x2F4D8, symBinAddr: 0x334D8, symSize: 0x14 }
  - { offset: 0x101F05, size: 0x8, addend: 0x0, symName: __ZNSt3__16vectorI25whisper_grammar_candidateNS_9allocatorIS1_EEE20__throw_length_errorB8ne200100Ev, symObjAddr: 0x2F4EC, symBinAddr: 0x334EC, symSize: 0x14 }
  - { offset: 0x101F10, size: 0x8, addend: 0x0, symName: __ZNSt3__16vectorINS_4pairINS0_IjNS_9allocatorIjEEEE20whisper_partial_utf8EENS2_IS6_EEED1B8ne200100Ev, symObjAddr: 0x2F464, symBinAddr: 0x33464, symSize: 0x74 }
  - { offset: 0x102CEB, size: 0x8, addend: 0x0, symName: __ZNSt3__16vectorI12whisper_pairIdiENS_9allocatorIS2_EEE8__appendEm, symObjAddr: 0x304AC, symBinAddr: 0x344AC, symSize: 0x1CC }
  - { offset: 0x1031AB, size: 0x8, addend: 0x0, symName: __ZNSt3__16vectorI12whisper_pairIdiENS_9allocatorIS2_EEE20__throw_length_errorB8ne200100Ev, symObjAddr: 0x30678, symBinAddr: 0x34678, symSize: 0x14 }
  - { offset: 0x1031B6, size: 0x8, addend: 0x0, symName: __ZNSt3__121discrete_distributionIiE10param_type6__initEv, symObjAddr: 0x3007C, symBinAddr: 0x3407C, symSize: 0x200 }
  - { offset: 0x103596, size: 0x8, addend: 0x0, symName: __ZNSt3__16vectorIdNS_9allocatorIdEEE20__throw_length_errorB8ne200100Ev, symObjAddr: 0x3027C, symBinAddr: 0x3427C, symSize: 0x14 }
  - { offset: 0x1035A1, size: 0x8, addend: 0x0, symName: __ZNSt3__121discrete_distributionIiEclINS_23mersenne_twister_engineIjLm32ELm624ELm397ELm31ELj2567483615ELm11ELj4294967295ELm7ELj2636928640ELm15ELj4022730752ELm18ELj1812433253EEEEEiRT_RKNS1_10param_typeE, symObjAddr: 0x30348, symBinAddr: 0x34348, symSize: 0x164 }
  - { offset: 0x1035F7, size: 0x8, addend: 0x0, symName: __ZNSt3__121discrete_distributionIiEclINS_23mersenne_twister_engineIjLm32ELm624ELm397ELm31ELj2567483615ELm11ELj4294967295ELm7ELj2636928640ELm15ELj4022730752ELm18ELj1812433253EEEEEiRT_RKNS1_10param_typeE, symObjAddr: 0x30348, symBinAddr: 0x34348, symSize: 0x164 }
  - { offset: 0x1038CB, size: 0x8, addend: 0x0, symName: __ZN15whisper_grammarC2ERKS_, symObjAddr: 0x30778, symBinAddr: 0x34778, symSize: 0x198 }
  - { offset: 0x103EFB, size: 0x8, addend: 0x0, symName: __ZNSt3__16vectorI18whisper_token_dataNS_9allocatorIS1_EEE9push_backB8ne200100EOS1_, symObjAddr: 0x2FE3C, symBinAddr: 0x33E3C, symSize: 0x15C }
  - { offset: 0x104312, size: 0x8, addend: 0x0, symName: __ZZ23whisper_full_with_stateEN14beam_candidateD1Ev, symObjAddr: 0x2FF98, symBinAddr: 0x33F98, symSize: 0xD0 }
  - { offset: 0x10431D, size: 0x8, addend: 0x0, symName: __ZNSt3__16vectorIdNS_9allocatorIdEEE20__throw_length_errorB8ne200100Ev, symObjAddr: 0x3027C, symBinAddr: 0x3427C, symSize: 0x14 }
  - { offset: 0x104335, size: 0x8, addend: 0x0, symName: __ZNSt3__16vectorIdNS_9allocatorIdEEE13shrink_to_fitEv, symObjAddr: 0x30290, symBinAddr: 0x34290, symSize: 0xB8 }
  - { offset: 0x104340, size: 0x8, addend: 0x0, symName: __ZZ23whisper_full_with_stateEN14beam_candidateD1Ev, symObjAddr: 0x2FF98, symBinAddr: 0x33F98, symSize: 0xD0 }
  - { offset: 0x104DDB, size: 0x8, addend: 0x0, symName: __ZNSt3__16vectorI18whisper_token_dataNS_9allocatorIS1_EEE18__insert_with_sizeB8ne200100INS_11__wrap_iterIPS1_EES8_EES8_NS6_IPKS1_EET_T0_l, symObjAddr: 0x3156C, symBinAddr: 0x3556C, symSize: 0x2D0 }
  - { offset: 0x1058B6, size: 0x8, addend: 0x0, symName: __ZNSt3__16vectorIN13whisper_state16vad_segment_infoENS_9allocatorIS2_EEE20__throw_length_errorB8ne200100Ev, symObjAddr: 0x3183C, symBinAddr: 0x3583C, symSize: 0x14 }
  - { offset: 0x1058D3, size: 0x8, addend: 0x0, symName: __ZNSt3__16vectorI18whisper_token_dataNS_9allocatorIS1_EEE18__assign_with_sizeB8ne200100IPS1_S6_EEvT_T0_l, symObjAddr: 0x30C5C, symBinAddr: 0x34C5C, symSize: 0x18C }
  - { offset: 0x10636D, size: 0x8, addend: 0x0, symName: __ZNSt3__16vectorINS0_I23whisper_grammar_elementNS_9allocatorIS1_EEEENS2_IS4_EEE18__assign_with_sizeB8ne200100IPS4_S8_EEvT_T0_l, symObjAddr: 0x30DE8, symBinAddr: 0x34DE8, symSize: 0x258 }
  - { offset: 0x10638E, size: 0x8, addend: 0x0, symName: _whisper_full, symObjAddr: 0x16F24, symBinAddr: 0x1AF24, symSize: 0x198 }
  - { offset: 0x106ABD, size: 0x8, addend: 0x0, symName: __ZL11whisper_vadP15whisper_contextP13whisper_state19whisper_full_paramsPKfiRNSt3__16vectorIfNS6_9allocatorIfEEEE, symObjAddr: 0x170BC, symBinAddr: 0x1B0BC, symSize: 0xC7C }
  - { offset: 0x10A5A3, size: 0x8, addend: 0x0, symName: __ZNSt3__16vectorI16vad_time_mappingNS_9allocatorIS1_EEE20__throw_length_errorB8ne200100Ev, symObjAddr: 0x31850, symBinAddr: 0x35850, symSize: 0x14 }
  - { offset: 0x10A5BB, size: 0x8, addend: 0x0, symName: '__ZNSt3__111__introsortINS_17_ClassicAlgPolicyERZL11whisper_vadP15whisper_contextP13whisper_state19whisper_full_paramsPKfiRNS_6vectorIfNS_9allocatorIfEEEEE3$_0P16vad_time_mappingLb0EEEvT1_SI_T0_NS_15iterator_traitsISI_E15difference_typeEb', symObjAddr: 0x31864, symBinAddr: 0x35864, symSize: 0xB68 }
  - { offset: 0x10A5C6, size: 0x8, addend: 0x0, symName: __ZNSt3__16vectorIN13whisper_state16vad_segment_infoENS_9allocatorIS2_EEE20__throw_length_errorB8ne200100Ev, symObjAddr: 0x3183C, symBinAddr: 0x3583C, symSize: 0x14 }
  - { offset: 0x10A5DE, size: 0x8, addend: 0x0, symName: __ZNSt3__16vectorI16vad_time_mappingNS_9allocatorIS1_EEE20__throw_length_errorB8ne200100Ev, symObjAddr: 0x31850, symBinAddr: 0x35850, symSize: 0x14 }
  - { offset: 0x10AAC6, size: 0x8, addend: 0x0, symName: _whisper_full_parallel, symObjAddr: 0x17D38, symBinAddr: 0x1BD38, symSize: 0x8E8 }
  - { offset: 0x10C3E6, size: 0x8, addend: 0x0, symName: __ZNSt3__16threadC2IRFiP15whisper_contextP13whisper_state19whisper_full_paramsPKfiEJRS3_RS5_S6_S8_RKiELi0EEEOT_DpOT0_, symObjAddr: 0x39B24, symBinAddr: 0x3DB24, symSize: 0x128 }
  - { offset: 0x10C8C2, size: 0x8, addend: 0x0, symName: __ZNSt3__16vectorIP13whisper_stateNS_9allocatorIS2_EEE20__throw_length_errorB8ne200100Ev, symObjAddr: 0x39B10, symBinAddr: 0x3DB10, symSize: 0x14 }
  - { offset: 0x10C8DA, size: 0x8, addend: 0x0, symName: __ZNSt3__16threadC2IRFiP15whisper_contextP13whisper_state19whisper_full_paramsPKfiEJRS3_RS5_S6_S8_RKiELi0EEEOT_DpOT0_, symObjAddr: 0x39B24, symBinAddr: 0x3DB24, symSize: 0x128 }
  - { offset: 0x10C8E5, size: 0x8, addend: 0x0, symName: _whisper_full_n_segments_from_state, symObjAddr: 0x18620, symBinAddr: 0x1C620, symSize: 0x20 }
  - { offset: 0x10C915, size: 0x8, addend: 0x0, symName: _whisper_full_n_segments_from_state, symObjAddr: 0x18620, symBinAddr: 0x1C620, symSize: 0x20 }
  - { offset: 0x10C935, size: 0x8, addend: 0x0, symName: _whisper_full_n_segments, symObjAddr: 0x18640, symBinAddr: 0x1C640, symSize: 0x24 }
  - { offset: 0x10C983, size: 0x8, addend: 0x0, symName: _whisper_full_lang_id_from_state, symObjAddr: 0x18664, symBinAddr: 0x1C664, symSize: 0xC }
  - { offset: 0x10C9B0, size: 0x8, addend: 0x0, symName: _whisper_full_lang_id, symObjAddr: 0x18670, symBinAddr: 0x1C670, symSize: 0x10 }
  - { offset: 0x10CAD9, size: 0x8, addend: 0x0, symName: _whisper_full_get_segment_t0_from_state, symObjAddr: 0x18680, symBinAddr: 0x1C680, symSize: 0xCC }
  - { offset: 0x10CD9C, size: 0x8, addend: 0x0, symName: _whisper_full_get_segment_t1_from_state, symObjAddr: 0x1874C, symBinAddr: 0x1C74C, symSize: 0x1A4 }
  - { offset: 0x10D2AC, size: 0x8, addend: 0x0, symName: _whisper_full_get_segment_t0, symObjAddr: 0x188F0, symBinAddr: 0x1C8F0, symSize: 0xD0 }
  - { offset: 0x10D565, size: 0x8, addend: 0x0, symName: _whisper_full_get_segment_t1, symObjAddr: 0x189C0, symBinAddr: 0x1C9C0, symSize: 0x8 }
  - { offset: 0x10D5B8, size: 0x8, addend: 0x0, symName: _whisper_full_get_segment_speaker_turn_next_from_state, symObjAddr: 0x189C8, symBinAddr: 0x1C9C8, symSize: 0x14 }
  - { offset: 0x10D5F7, size: 0x8, addend: 0x0, symName: _whisper_full_get_segment_speaker_turn_next_from_state, symObjAddr: 0x189C8, symBinAddr: 0x1C9C8, symSize: 0x14 }
  - { offset: 0x10D617, size: 0x8, addend: 0x0, symName: _whisper_full_get_segment_speaker_turn_next, symObjAddr: 0x189DC, symBinAddr: 0x1C9DC, symSize: 0x18 }
  - { offset: 0x10D676, size: 0x8, addend: 0x0, symName: _whisper_full_get_segment_text_from_state, symObjAddr: 0x189F4, symBinAddr: 0x1C9F4, symSize: 0x24 }
  - { offset: 0x10D6B5, size: 0x8, addend: 0x0, symName: _whisper_full_get_segment_text_from_state, symObjAddr: 0x189F4, symBinAddr: 0x1C9F4, symSize: 0x24 }
  - { offset: 0x10D75E, size: 0x8, addend: 0x0, symName: _whisper_full_get_segment_text, symObjAddr: 0x18A18, symBinAddr: 0x1CA18, symSize: 0x28 }
  - { offset: 0x10D846, size: 0x8, addend: 0x0, symName: _whisper_full_n_tokens_from_state, symObjAddr: 0x18A40, symBinAddr: 0x1CA40, symSize: 0x28 }
  - { offset: 0x10D885, size: 0x8, addend: 0x0, symName: _whisper_full_n_tokens_from_state, symObjAddr: 0x18A40, symBinAddr: 0x1CA40, symSize: 0x28 }
  - { offset: 0x10D8C6, size: 0x8, addend: 0x0, symName: _whisper_full_n_tokens, symObjAddr: 0x18A68, symBinAddr: 0x1CA68, symSize: 0x2C }
  - { offset: 0x10D946, size: 0x8, addend: 0x0, symName: _whisper_full_get_token_text_from_state, symObjAddr: 0x18A94, symBinAddr: 0x1CA94, symSize: 0x100 }
  - { offset: 0x10DD8F, size: 0x8, addend: 0x0, symName: _whisper_full_get_token_text, symObjAddr: 0x18B94, symBinAddr: 0x1CB94, symSize: 0x104 }
  - { offset: 0x10E1C7, size: 0x8, addend: 0x0, symName: _whisper_full_get_token_id_from_state, symObjAddr: 0x18C98, symBinAddr: 0x1CC98, symSize: 0x20 }
  - { offset: 0x10E215, size: 0x8, addend: 0x0, symName: _whisper_full_get_token_id_from_state, symObjAddr: 0x18C98, symBinAddr: 0x1CC98, symSize: 0x20 }
  - { offset: 0x10E256, size: 0x8, addend: 0x0, symName: _whisper_full_get_token_id, symObjAddr: 0x18CB8, symBinAddr: 0x1CCB8, symSize: 0x24 }
  - { offset: 0x10E2E5, size: 0x8, addend: 0x0, symName: _whisper_full_get_token_data_from_state, symObjAddr: 0x18CDC, symBinAddr: 0x1CCDC, symSize: 0x34 }
  - { offset: 0x10E331, size: 0x8, addend: 0x0, symName: _whisper_full_get_token_data_from_state, symObjAddr: 0x18CDC, symBinAddr: 0x1CCDC, symSize: 0x34 }
  - { offset: 0x10E372, size: 0x8, addend: 0x0, symName: _whisper_full_get_token_data, symObjAddr: 0x18D10, symBinAddr: 0x1CD10, symSize: 0x38 }
  - { offset: 0x10E3FF, size: 0x8, addend: 0x0, symName: _whisper_full_get_token_p_from_state, symObjAddr: 0x18D48, symBinAddr: 0x1CD48, symSize: 0x20 }
  - { offset: 0x10E44B, size: 0x8, addend: 0x0, symName: _whisper_full_get_token_p_from_state, symObjAddr: 0x18D48, symBinAddr: 0x1CD48, symSize: 0x20 }
  - { offset: 0x10E48C, size: 0x8, addend: 0x0, symName: _whisper_full_get_token_p, symObjAddr: 0x18D68, symBinAddr: 0x1CD68, symSize: 0x24 }
  - { offset: 0x10E519, size: 0x8, addend: 0x0, symName: _whisper_full_get_segment_no_speech_prob, symObjAddr: 0x18D8C, symBinAddr: 0x1CD8C, symSize: 0x18 }
  - { offset: 0x10E576, size: 0x8, addend: 0x0, symName: _whisper_full_get_segment_no_speech_prob_from_state, symObjAddr: 0x18DA4, symBinAddr: 0x1CDA4, symSize: 0x14 }
  - { offset: 0x10E5B3, size: 0x8, addend: 0x0, symName: _whisper_full_get_segment_no_speech_prob_from_state, symObjAddr: 0x18DA4, symBinAddr: 0x1CDA4, symSize: 0x14 }
  - { offset: 0x10E5D3, size: 0x8, addend: 0x0, symName: _whisper_bench_memcpy, symObjAddr: 0x18DB8, symBinAddr: 0x1CDB8, symSize: 0x28 }
  - { offset: 0x10EA91, size: 0x8, addend: 0x0, symName: _whisper_bench_memcpy_str.cold.1, symObjAddr: 0x3A054, symBinAddr: 0x137664, symSize: 0x50 }
  - { offset: 0x10EAD7, size: 0x8, addend: 0x0, symName: '__ZNSt3__110unique_ptrINS_5tupleIJNS0_INS_15__thread_structENS_14default_deleteIS2_EEEEZ24whisper_bench_memcpy_strE3$_0iEEENS3_IS7_EEED1B8ne200100Ev', symObjAddr: 0x39E64, symBinAddr: 0x3DE64, symSize: 0x48 }
  - { offset: 0x10EC9B, size: 0x8, addend: 0x0, symName: _whisper_bench_ggml_mul_mat, symObjAddr: 0x19F9C, symBinAddr: 0x1DF9C, symSize: 0x28 }
  - { offset: 0x10F0FA, size: 0x8, addend: 0x0, symName: _whisper_bench_ggml_mul_mat_str.cold.1, symObjAddr: 0x3A0A4, symBinAddr: 0x1376B4, symSize: 0x50 }
  - { offset: 0x10F140, size: 0x8, addend: 0x0, symName: _whisper_log_set, symObjAddr: 0x1A6A8, symBinAddr: 0x1E6A8, symSize: 0x24 }
  - { offset: 0x10F18F, size: 0x8, addend: 0x0, symName: __ZL28whisper_log_callback_default14ggml_log_levelPKcPv, symObjAddr: 0x1A6CC, symBinAddr: 0x1E6CC, symSize: 0x40 }
  - { offset: 0x10F1F5, size: 0x8, addend: 0x0, symName: _whisper_version, symObjAddr: 0x1A70C, symBinAddr: 0x1E70C, symSize: 0xC }
  - { offset: 0x10F535, size: 0x8, addend: 0x0, symName: __ZNSt3__13mapI10asr_tensorPKcNS_4lessIS1_EENS_9allocatorINS_4pairIKS1_S3_EEEEE6insertB8ne200100INS_20__map_const_iteratorINS_21__tree_const_iteratorINS_12__value_typeIS1_S3_EEPNS_11__tree_nodeISG_PvEElEEEEEEvT_SN_, symObjAddr: 0x1A718, symBinAddr: 0x1E718, symSize: 0xF4 }
  - { offset: 0x10F57D, size: 0x8, addend: 0x0, symName: __ZNSt3__13mapI10asr_tensorPKcNS_4lessIS1_EENS_9allocatorINS_4pairIKS1_S3_EEEEE6insertB8ne200100INS_20__map_const_iteratorINS_21__tree_const_iteratorINS_12__value_typeIS1_S3_EEPNS_11__tree_nodeISG_PvEElEEEEEEvT_SN_, symObjAddr: 0x1A718, symBinAddr: 0x1E718, symSize: 0xF4 }
  - { offset: 0x10F8C6, size: 0x8, addend: 0x0, symName: __ZNSt3__16__treeINS_12__value_typeI10asr_tensorPKcEENS_19__map_value_compareIS2_S5_NS_4lessIS2_EELb1EEENS_9allocatorIS5_EEE12__find_equalIS2_EERPNS_16__tree_node_baseIPvEENS_21__tree_const_iteratorIS5_PNS_11__tree_nodeIS5_SF_EElEERPNS_15__tree_end_nodeISH_EESI_RKT_, symObjAddr: 0x1A80C, symBinAddr: 0x1E80C, symSize: 0x1B0 }
  - { offset: 0x10F92E, size: 0x8, addend: 0x0, symName: __ZNSt3__16__treeINS_12__value_typeI10asr_tensorPKcEENS_19__map_value_compareIS2_S5_NS_4lessIS2_EELb1EEENS_9allocatorIS5_EEE12__find_equalIS2_EERPNS_16__tree_node_baseIPvEENS_21__tree_const_iteratorIS5_PNS_11__tree_nodeIS5_SF_EElEERPNS_15__tree_end_nodeISH_EESI_RKT_, symObjAddr: 0x1A80C, symBinAddr: 0x1E80C, symSize: 0x1B0 }
  - { offset: 0x10F94C, size: 0x8, addend: 0x0, symName: __ZNSt3__16__treeINS_12__value_typeI10asr_tensorPKcEENS_19__map_value_compareIS2_S5_NS_4lessIS2_EELb1EEENS_9allocatorIS5_EEE12__find_equalIS2_EERPNS_16__tree_node_baseIPvEENS_21__tree_const_iteratorIS5_PNS_11__tree_nodeIS5_SF_EElEERPNS_15__tree_end_nodeISH_EESI_RKT_, symObjAddr: 0x1A80C, symBinAddr: 0x1E80C, symSize: 0x1B0 }
  - { offset: 0x10FE76, size: 0x8, addend: 0x0, symName: __ZNSt3__16__treeINS_12__value_typeI10asr_tensorPKcEENS_19__map_value_compareIS2_S5_NS_4lessIS2_EELb1EEENS_9allocatorIS5_EEE7destroyEPNS_11__tree_nodeIS5_PvEE, symObjAddr: 0x1AB90, symBinAddr: 0x1EB90, symSize: 0x44 }
  - { offset: 0x1101F8, size: 0x8, addend: 0x0, symName: __ZN15whisper_decoderD2Ev, symObjAddr: 0x1B004, symBinAddr: 0x1F004, symSize: 0x110 }
  - { offset: 0x110E20, size: 0x8, addend: 0x0, symName: __ZNSt12length_errorC1B8ne200100EPKc, symObjAddr: 0x1B1BC, symBinAddr: 0x1F1BC, symSize: 0x24 }
  - { offset: 0x111453, size: 0x8, addend: 0x0, symName: __ZNSt3__16vectorI15whisper_kv_cellNS_9allocatorIS1_EEE20__throw_length_errorB8ne200100Ev, symObjAddr: 0x1B3B4, symBinAddr: 0x1F3B4, symSize: 0x14 }
  - { offset: 0x11146B, size: 0x8, addend: 0x0, symName: __ZL28get_alignment_heads_by_layerRK22whisper_context_paramsiii, symObjAddr: 0x1B3C8, symBinAddr: 0x1F3C8, symSize: 0x2B8 }
  - { offset: 0x11178F, size: 0x8, addend: 0x0, symName: __ZNSt3__16vectorIjNS_9allocatorIjEEE20__throw_length_errorB8ne200100Ev, symObjAddr: 0x1B6F4, symBinAddr: 0x1F6F4, symSize: 0x14 }
  - { offset: 0x1117A7, size: 0x8, addend: 0x0, symName: __ZNSt3__16vectorIP11ggml_tensorNS_9allocatorIS2_EEE20__throw_length_errorB8ne200100Ev, symObjAddr: 0x1B708, symBinAddr: 0x1F708, symSize: 0x14 }
  - { offset: 0x1117B2, size: 0x8, addend: 0x0, symName: __ZNSt12out_of_rangeC1B8ne200100EPKc, symObjAddr: 0x1B6D0, symBinAddr: 0x1F6D0, symSize: 0x24 }
  - { offset: 0x1118A9, size: 0x8, addend: 0x0, symName: __ZNSt3__117bad_function_callD1Ev, symObjAddr: 0x1B778, symBinAddr: 0x1F778, symSize: 0x4 }
  - { offset: 0x1118CD, size: 0x8, addend: 0x0, symName: __ZNSt3__117bad_function_callD1Ev, symObjAddr: 0x1B778, symBinAddr: 0x1F778, symSize: 0x4 }
  - { offset: 0x111902, size: 0x8, addend: 0x0, symName: __ZNSt3__117bad_function_callD0Ev, symObjAddr: 0x1B77C, symBinAddr: 0x1F77C, symSize: 0x14 }
  - { offset: 0x1119C3, size: 0x8, addend: 0x0, symName: '__ZZ43whisper_init_from_file_with_params_no_stateEN3$_08__invokeEPvS0_m', symObjAddr: 0x1B790, symBinAddr: 0x1F790, symSize: 0x24 }
  - { offset: 0x111ABE, size: 0x8, addend: 0x0, symName: '__ZZ43whisper_init_from_file_with_params_no_stateEN3$_18__invokeEPv', symObjAddr: 0x1B7B4, symBinAddr: 0x1F7B4, symSize: 0x18 }
  - { offset: 0x111AEB, size: 0x8, addend: 0x0, symName: '__ZZ43whisper_init_from_file_with_params_no_stateEN3$_18__invokeEPv', symObjAddr: 0x1B7B4, symBinAddr: 0x1F7B4, symSize: 0x18 }
  - { offset: 0x111BAD, size: 0x8, addend: 0x0, symName: '__ZZ43whisper_init_from_file_with_params_no_stateEN3$_28__invokeEPv', symObjAddr: 0x1B7CC, symBinAddr: 0x1F7CC, symSize: 0x48 }
  - { offset: 0x111CC8, size: 0x8, addend: 0x0, symName: '__ZZ45whisper_init_from_buffer_with_params_no_stateEN3$_08__invokeEPvS0_m', symObjAddr: 0x1B814, symBinAddr: 0x1F814, symSize: 0x58 }
  - { offset: 0x111D97, size: 0x8, addend: 0x0, symName: '__ZZ45whisper_init_from_buffer_with_params_no_stateEN3$_18__invokeEPv', symObjAddr: 0x1B86C, symBinAddr: 0x1F86C, symSize: 0x10 }
  - { offset: 0x111DD7, size: 0x8, addend: 0x0, symName: '__ZZ45whisper_init_from_buffer_with_params_no_stateEN3$_28__invokeEPv', symObjAddr: 0x1B87C, symBinAddr: 0x1F87C, symSize: 0x4 }
  - { offset: 0x112272, size: 0x8, addend: 0x0, symName: __ZNKSt3__13mapI10asr_systemNS0_I10asr_tensorPKcNS_4lessIS2_EENS_9allocatorINS_4pairIKS2_S4_EEEEEENS5_IS1_EENS7_INS8_IKS1_SC_EEEEE2atERSE_, symObjAddr: 0x1C608, symBinAddr: 0x20608, symSize: 0x54 }
  - { offset: 0x112374, size: 0x8, addend: 0x0, symName: __ZNKSt3__13mapI10asr_tensorPKcNS_4lessIS1_EENS_9allocatorINS_4pairIKS1_S3_EEEEE2atERS8_, symObjAddr: 0x1C65C, symBinAddr: 0x2065C, symSize: 0x54 }
  - { offset: 0x112817, size: 0x8, addend: 0x0, symName: __ZNSt3__110unique_ptrINS_11__tree_nodeINS_12__value_typeINS_12basic_stringIcNS_11char_traitsIcEENS_9allocatorIcEEEEiEEPvEENS_22__tree_node_destructorINS6_ISB_EEEEED1B8ne200100Ev, symObjAddr: 0x1C128, symBinAddr: 0x20128, symSize: 0x60 }
  - { offset: 0x112F63, size: 0x8, addend: 0x0, symName: __ZNSt3__16vectorI21whisper_layer_encoderNS_9allocatorIS1_EEE20__throw_length_errorB8ne200100Ev, symObjAddr: 0x1C30C, symBinAddr: 0x2030C, symSize: 0x14 }
  - { offset: 0x112F7B, size: 0x8, addend: 0x0, symName: __ZNSt3__16vectorI21whisper_layer_decoderNS_9allocatorIS1_EEE8__appendEm, symObjAddr: 0x1C320, symBinAddr: 0x20320, symSize: 0x180 }
  - { offset: 0x1132A9, size: 0x8, addend: 0x0, symName: __ZNSt3__16vectorI21whisper_layer_decoderNS_9allocatorIS1_EEE20__throw_length_errorB8ne200100Ev, symObjAddr: 0x1C4A0, symBinAddr: 0x204A0, symSize: 0x14 }
  - { offset: 0x1132C1, size: 0x8, addend: 0x0, symName: __ZL6formatPKcz, symObjAddr: 0x1C4B4, symBinAddr: 0x204B4, symSize: 0x154 }
  - { offset: 0x1136E8, size: 0x8, addend: 0x0, symName: __ZNSt3__16__treeINS_12__value_typeIiNS_12basic_stringIcNS_11char_traitsIcEENS_9allocatorIcEEEEEENS_19__map_value_compareIiS8_NS_4lessIiEELb1EEENS5_IS8_EEE7destroyEPNS_11__tree_nodeIS8_PvEE, symObjAddr: 0x1C7B0, symBinAddr: 0x207B0, symSize: 0x60 }
  - { offset: 0x113958, size: 0x8, addend: 0x0, symName: __ZNSt3__16__treeINS_12__value_typeINS_12basic_stringIcNS_11char_traitsIcEENS_9allocatorIcEEEEiEENS_19__map_value_compareIS7_S8_NS_4lessIS7_EELb1EEENS5_IS8_EEE7destroyEPNS_11__tree_nodeIS8_PvEE, symObjAddr: 0x1C810, symBinAddr: 0x20810, symSize: 0x60 }
  - { offset: 0x113BC8, size: 0x8, addend: 0x0, symName: __ZNSt3__16__treeINS_12__value_typeINS_12basic_stringIcNS_11char_traitsIcEENS_9allocatorIcEEEEP11ggml_tensorEENS_19__map_value_compareIS7_SA_NS_4lessIS7_EELb1EEENS5_ISA_EEE7destroyEPNS_11__tree_nodeISA_PvEE, symObjAddr: 0x1C870, symBinAddr: 0x20870, symSize: 0x60 }
  - { offset: 0x114338, size: 0x8, addend: 0x0, symName: __ZL3fftPfiS_, symObjAddr: 0x1D400, symBinAddr: 0x21400, symSize: 0x65C }
  - { offset: 0x114D4A, size: 0x8, addend: 0x0, symName: __ZNSt3__110unique_ptrINS_5tupleIJNS0_INS_15__thread_structENS_14default_deleteIS2_EEEEPFviPKfRKNS_6vectorIfNS_9allocatorIfEEEEiiiiRK15whisper_filtersR11whisper_melEiS7_NS_17reference_wrapperISC_EExiiiNSL_ISF_EENSL_ISH_EEEEENS3_ISP_EEED1B8ne200100Ev, symObjAddr: 0x1DC2C, symBinAddr: 0x21C2C, symSize: 0x48 }
  - { offset: 0x115335, size: 0x8, addend: 0x0, symName: __ZL27whisper_build_graph_encoderR15whisper_contextR13whisper_state.cold.1, symObjAddr: 0x3A0F4, symBinAddr: 0x137704, symSize: 0x38 }
  - { offset: 0x115391, size: 0x8, addend: 0x0, symName: __ZL27whisper_build_graph_decoderR15whisper_contextR13whisper_stateRK13whisper_batchbb.cold.1, symObjAddr: 0x3A12C, symBinAddr: 0x13773C, symSize: 0x38 }
  - { offset: 0x115443, size: 0x8, addend: 0x0, symName: __ZNSt3__111basic_regexIcNS_12regex_traitsIcEEE7__parseINS_11__wrap_iterIPKcEEEET_S9_S9_, symObjAddr: 0x1F838, symBinAddr: 0x23838, symSize: 0x208 }
  - { offset: 0x11597D, size: 0x8, addend: 0x0, symName: __ZNSt3__110shared_ptrINS_13__empty_stateIcEEED1B8ne200100Ev, symObjAddr: 0x1F7D4, symBinAddr: 0x237D4, symSize: 0x64 }
  - { offset: 0x115F07, size: 0x8, addend: 0x0, symName: __ZNSt3__111basic_regexIcNS_12regex_traitsIcEEE13__parse_egrepINS_11__wrap_iterIPKcEEEET_S9_S9_, symObjAddr: 0x20158, symBinAddr: 0x24158, symSize: 0x1A0 }
  - { offset: 0x1164F6, size: 0x8, addend: 0x0, symName: __ZNSt3__111basic_regexIcNS_12regex_traitsIcEEE24__parse_extended_reg_expINS_11__wrap_iterIPKcEEEET_S9_S9_, symObjAddr: 0x1FE54, symBinAddr: 0x23E54, symSize: 0x164 }
  - { offset: 0x116870, size: 0x8, addend: 0x0, symName: __ZNSt3__111basic_regexIcNS_12regex_traitsIcEEE12__parse_grepINS_11__wrap_iterIPKcEEEET_S9_S9_, symObjAddr: 0x1FFB8, symBinAddr: 0x23FB8, symSize: 0x1A0 }
  - { offset: 0x116884, size: 0x8, addend: 0x0, symName: __ZNSt3__111basic_regexIcNS_12regex_traitsIcEEE21__parse_basic_reg_expINS_11__wrap_iterIPKcEEEET_S9_S9_, symObjAddr: 0x1FCD4, symBinAddr: 0x23CD4, symSize: 0x180 }
  - { offset: 0x116BE1, size: 0x8, addend: 0x0, symName: __ZNSt3__111basic_regexIcNS_12regex_traitsIcEEE24__parse_extended_reg_expINS_11__wrap_iterIPKcEEEET_S9_S9_, symObjAddr: 0x1FE54, symBinAddr: 0x23E54, symSize: 0x164 }
  - { offset: 0x116BF5, size: 0x8, addend: 0x0, symName: __ZNSt3__111basic_regexIcNS_12regex_traitsIcEEE12__parse_grepINS_11__wrap_iterIPKcEEEET_S9_S9_, symObjAddr: 0x1FFB8, symBinAddr: 0x23FB8, symSize: 0x1A0 }
  - { offset: 0x1171E4, size: 0x8, addend: 0x0, symName: __ZNSt3__111basic_regexIcNS_12regex_traitsIcEEE16__parse_ecma_expINS_11__wrap_iterIPKcEEEET_S9_S9_, symObjAddr: 0x1FA8C, symBinAddr: 0x23A8C, symSize: 0x248 }
  - { offset: 0x1179FE, size: 0x8, addend: 0x0, symName: __ZNSt3__111basic_regexIcNS_12regex_traitsIcEEE17__parse_assertionINS_11__wrap_iterIPKcEEEET_S9_S9_, symObjAddr: 0x2052C, symBinAddr: 0x2452C, symSize: 0x30C }
  - { offset: 0x117F73, size: 0x8, addend: 0x0, symName: __ZNSt3__111basic_regexIcNS_12regex_traitsIcEEE12__parse_atomINS_11__wrap_iterIPKcEEEET_S9_S9_, symObjAddr: 0x20838, symBinAddr: 0x24838, symSize: 0x268 }
  - { offset: 0x11831C, size: 0x8, addend: 0x0, symName: __ZNSt3__111basic_regexIcNS_12regex_traitsIcEEE23__parse_ERE_dupl_symbolINS_11__wrap_iterIPKcEEEET_S9_S9_PNS_16__owns_one_stateIcEEjj, symObjAddr: 0x20AA0, symBinAddr: 0x24AA0, symSize: 0x378 }
  - { offset: 0x118330, size: 0x8, addend: 0x0, symName: __ZNSt3__111basic_regexIcNS_12regex_traitsIcEEE23__parse_ERE_dupl_symbolINS_11__wrap_iterIPKcEEEET_S9_S9_PNS_16__owns_one_stateIcEEjj, symObjAddr: 0x20AA0, symBinAddr: 0x24AA0, symSize: 0x378 }
  - { offset: 0x1189AF, size: 0x8, addend: 0x0, symName: __ZNSt3__111basic_regexIcNS_12regex_traitsIcEEE20__push_word_boundaryEb, symObjAddr: 0x20E18, symBinAddr: 0x24E18, symSize: 0x6C }
  - { offset: 0x118BB5, size: 0x8, addend: 0x0, symName: __ZNSt3__111basic_regexIcNS_12regex_traitsIcEEE18__parse_nondupl_REINS_11__wrap_iterIPKcEEEET_S9_S9_, symObjAddr: 0x274F0, symBinAddr: 0x2B4F0, symSize: 0x20C }
  - { offset: 0x1190CE, size: 0x8, addend: 0x0, symName: __ZNSt3__111basic_regexIcNS_12regex_traitsIcEEE22__parse_RE_dupl_symbolINS_11__wrap_iterIPKcEEEET_S9_S9_PNS_16__owns_one_stateIcEEjj, symObjAddr: 0x276FC, symBinAddr: 0x2B6FC, symSize: 0x274 }
  - { offset: 0x1190E2, size: 0x8, addend: 0x0, symName: __ZNSt3__111basic_regexIcNS_12regex_traitsIcEEE22__parse_RE_dupl_symbolINS_11__wrap_iterIPKcEEEET_S9_S9_PNS_16__owns_one_stateIcEEjj, symObjAddr: 0x276FC, symBinAddr: 0x2B6FC, symSize: 0x274 }
  - { offset: 0x11962F, size: 0x8, addend: 0x0, symName: __ZNSt3__111basic_regexIcNS_12regex_traitsIcEEE32__parse_one_char_or_coll_elem_REINS_11__wrap_iterIPKcEEEET_S9_S9_, symObjAddr: 0x27970, symBinAddr: 0x2B970, symSize: 0x18C }
  - { offset: 0x119687, size: 0x8, addend: 0x0, symName: __ZNSt3__111basic_regexIcNS_12regex_traitsIcEEE22__parse_ERE_expressionINS_11__wrap_iterIPKcEEEET_S9_S9_, symObjAddr: 0x27C2C, symBinAddr: 0x2BC2C, symSize: 0x1F0 }
  - { offset: 0x119A79, size: 0x8, addend: 0x0, symName: __ZNSt3__111basic_regexIcNS_12regex_traitsIcEEE33__parse_one_char_or_coll_elem_EREINS_11__wrap_iterIPKcEEEET_S9_S9_, symObjAddr: 0x27E1C, symBinAddr: 0x2BE1C, symSize: 0x158 }
  - { offset: 0x119AA9, size: 0x8, addend: 0x0, symName: __ZNSt3__111__end_stateIcED1Ev, symObjAddr: 0x20344, symBinAddr: 0x24344, symSize: 0x4 }
  - { offset: 0x119AD5, size: 0x8, addend: 0x0, symName: __ZNSt3__111__end_stateIcED0Ev, symObjAddr: 0x20348, symBinAddr: 0x24348, symSize: 0x4 }
  - { offset: 0x119AF6, size: 0x8, addend: 0x0, symName: __ZNKSt3__111__end_stateIcE6__execERNS_7__stateIcEE, symObjAddr: 0x2034C, symBinAddr: 0x2434C, symSize: 0xC }
  - { offset: 0x119B2A, size: 0x8, addend: 0x0, symName: __ZNKSt3__16__nodeIcE12__exec_splitEbRNS_7__stateIcEE, symObjAddr: 0x20358, symBinAddr: 0x24358, symSize: 0x4 }
  - { offset: 0x119B6A, size: 0x8, addend: 0x0, symName: __ZNKSt3__16__nodeIcE6__execERNS_7__stateIcEE, symObjAddr: 0x2035C, symBinAddr: 0x2435C, symSize: 0x4 }
  - { offset: 0x119BB6, size: 0x8, addend: 0x0, symName: __ZNSt3__120__shared_ptr_pointerIPNS_13__empty_stateIcEENS_10shared_ptrIS2_E27__shared_ptr_default_deleteIS2_S2_EENS_9allocatorIS2_EEED1Ev, symObjAddr: 0x20360, symBinAddr: 0x24360, symSize: 0x4 }
  - { offset: 0x119BDA, size: 0x8, addend: 0x0, symName: __ZNSt3__120__shared_ptr_pointerIPNS_13__empty_stateIcEENS_10shared_ptrIS2_E27__shared_ptr_default_deleteIS2_S2_EENS_9allocatorIS2_EEED1Ev, symObjAddr: 0x20360, symBinAddr: 0x24360, symSize: 0x4 }
  - { offset: 0x119C11, size: 0x8, addend: 0x0, symName: __ZNSt3__120__shared_ptr_pointerIPNS_13__empty_stateIcEENS_10shared_ptrIS2_E27__shared_ptr_default_deleteIS2_S2_EENS_9allocatorIS2_EEED0Ev, symObjAddr: 0x20364, symBinAddr: 0x24364, symSize: 0x14 }
  - { offset: 0x119C78, size: 0x8, addend: 0x0, symName: __ZNSt3__120__shared_ptr_pointerIPNS_13__empty_stateIcEENS_10shared_ptrIS2_E27__shared_ptr_default_deleteIS2_S2_EENS_9allocatorIS2_EEE16__on_zero_sharedEv, symObjAddr: 0x20378, symBinAddr: 0x24378, symSize: 0x18 }
  - { offset: 0x119D22, size: 0x8, addend: 0x0, symName: __ZNKSt3__120__shared_ptr_pointerIPNS_13__empty_stateIcEENS_10shared_ptrIS2_E27__shared_ptr_default_deleteIS2_S2_EENS_9allocatorIS2_EEE13__get_deleterERKSt9type_info, symObjAddr: 0x20390, symBinAddr: 0x24390, symSize: 0x64 }
  - { offset: 0x119D5C, size: 0x8, addend: 0x0, symName: __ZNKSt3__120__shared_ptr_pointerIPNS_13__empty_stateIcEENS_10shared_ptrIS2_E27__shared_ptr_default_deleteIS2_S2_EENS_9allocatorIS2_EEE13__get_deleterERKSt9type_info, symObjAddr: 0x20390, symBinAddr: 0x24390, symSize: 0x64 }
  - { offset: 0x119E49, size: 0x8, addend: 0x0, symName: __ZNSt3__120__shared_ptr_pointerIPNS_13__empty_stateIcEENS_10shared_ptrIS2_E27__shared_ptr_default_deleteIS2_S2_EENS_9allocatorIS2_EEE21__on_zero_shared_weakEv, symObjAddr: 0x203F4, symBinAddr: 0x243F4, symSize: 0x4 }
  - { offset: 0x119E7D, size: 0x8, addend: 0x0, symName: __ZNSt3__120__shared_ptr_pointerIPNS_13__empty_stateIcEENS_10shared_ptrIS2_E27__shared_ptr_default_deleteIS2_S2_EENS_9allocatorIS2_EEE21__on_zero_shared_weakEv, symObjAddr: 0x203F4, symBinAddr: 0x243F4, symSize: 0x4 }
  - { offset: 0x119EA1, size: 0x8, addend: 0x0, symName: __ZNSt3__120__shared_ptr_pointerIPNS_13__empty_stateIcEENS_10shared_ptrIS2_E27__shared_ptr_default_deleteIS2_S2_EENS_9allocatorIS2_EEE21__on_zero_shared_weakEv, symObjAddr: 0x203F4, symBinAddr: 0x243F4, symSize: 0x4 }
  - { offset: 0x119ED8, size: 0x8, addend: 0x0, symName: __ZNSt3__120__shared_ptr_pointerIPNS_13__empty_stateIcEENS_10shared_ptrIS2_E27__shared_ptr_default_deleteIS2_S2_EENS_9allocatorIS2_EEE21__on_zero_shared_weakEv, symObjAddr: 0x203F4, symBinAddr: 0x243F4, symSize: 0x4 }
  - { offset: 0x119F00, size: 0x8, addend: 0x0, symName: __ZNSt3__113__empty_stateIcED1Ev, symObjAddr: 0x203F8, symBinAddr: 0x243F8, symSize: 0x48 }
  - { offset: 0x119F26, size: 0x8, addend: 0x0, symName: __ZNSt3__113__empty_stateIcED1Ev, symObjAddr: 0x203F8, symBinAddr: 0x243F8, symSize: 0x48 }
  - { offset: 0x119F46, size: 0x8, addend: 0x0, symName: __ZNSt3__113__empty_stateIcED1Ev, symObjAddr: 0x203F8, symBinAddr: 0x243F8, symSize: 0x48 }
  - { offset: 0x119F71, size: 0x8, addend: 0x0, symName: __ZNSt3__113__empty_stateIcED0Ev, symObjAddr: 0x20440, symBinAddr: 0x24440, symSize: 0x48 }
  - { offset: 0x119F97, size: 0x8, addend: 0x0, symName: __ZNSt3__113__empty_stateIcED0Ev, symObjAddr: 0x20440, symBinAddr: 0x24440, symSize: 0x48 }
  - { offset: 0x119FB7, size: 0x8, addend: 0x0, symName: __ZNSt3__113__empty_stateIcED0Ev, symObjAddr: 0x20440, symBinAddr: 0x24440, symSize: 0x48 }
  - { offset: 0x119FD7, size: 0x8, addend: 0x0, symName: __ZNSt3__113__empty_stateIcED0Ev, symObjAddr: 0x20440, symBinAddr: 0x24440, symSize: 0x48 }
  - { offset: 0x11A01F, size: 0x8, addend: 0x0, symName: __ZNKSt3__113__empty_stateIcE6__execERNS_7__stateIcEE, symObjAddr: 0x20488, symBinAddr: 0x24488, symSize: 0x14 }
  - { offset: 0x11A072, size: 0x8, addend: 0x0, symName: __ZNSt3__116__owns_one_stateIcED1Ev, symObjAddr: 0x2049C, symBinAddr: 0x2449C, symSize: 0x48 }
  - { offset: 0x11A098, size: 0x8, addend: 0x0, symName: __ZNSt3__116__owns_one_stateIcED1Ev, symObjAddr: 0x2049C, symBinAddr: 0x2449C, symSize: 0x48 }
  - { offset: 0x11A0DC, size: 0x8, addend: 0x0, symName: __ZNSt3__116__owns_one_stateIcED0Ev, symObjAddr: 0x204E4, symBinAddr: 0x244E4, symSize: 0x48 }
  - { offset: 0x11A10A, size: 0x8, addend: 0x0, symName: __ZNSt3__116__owns_one_stateIcED0Ev, symObjAddr: 0x204E4, symBinAddr: 0x244E4, symSize: 0x48 }
  - { offset: 0x11A12A, size: 0x8, addend: 0x0, symName: __ZNSt3__116__owns_one_stateIcED0Ev, symObjAddr: 0x204E4, symBinAddr: 0x244E4, symSize: 0x48 }
  - { offset: 0x11A254, size: 0x8, addend: 0x0, symName: __ZNSt3__111basic_regexIcNS_12regex_traitsIcEEEC1B8ne200100Ev, symObjAddr: 0x20E84, symBinAddr: 0x24E84, symSize: 0x6C }
  - { offset: 0x11A327, size: 0x8, addend: 0x0, symName: __ZNSt3__111basic_regexIcNS_12regex_traitsIcEEE16__push_lookaheadERKS3_bj, symObjAddr: 0x20EF0, symBinAddr: 0x24EF0, symSize: 0xB0 }
  - { offset: 0x11A562, size: 0x8, addend: 0x0, symName: __ZNSt3__111basic_regexIcNS_12regex_traitsIcEEE20__push_word_boundaryEb, symObjAddr: 0x20E18, symBinAddr: 0x24E18, symSize: 0x6C }
  - { offset: 0x11A843, size: 0x8, addend: 0x0, symName: __ZNSt3__111basic_regexIcNS_12regex_traitsIcEEE26__parse_bracket_expressionINS_11__wrap_iterIPKcEEEET_S9_S9_, symObjAddr: 0x226EC, symBinAddr: 0x266EC, symSize: 0x158 }
  - { offset: 0x11AA94, size: 0x8, addend: 0x0, symName: __ZNSt3__111basic_regexIcNS_12regex_traitsIcEEE19__parse_atom_escapeINS_11__wrap_iterIPKcEEEET_S9_S9_, symObjAddr: 0x225A0, symBinAddr: 0x265A0, symSize: 0x14C }
  - { offset: 0x11AC16, size: 0x8, addend: 0x0, symName: __ZNSt3__111basic_regexIcNS_12regex_traitsIcEEE26__parse_bracket_expressionINS_11__wrap_iterIPKcEEEET_S9_S9_, symObjAddr: 0x226EC, symBinAddr: 0x266EC, symSize: 0x158 }
  - { offset: 0x11AC2A, size: 0x8, addend: 0x0, symName: __ZNSt3__111basic_regexIcNS_12regex_traitsIcEEE25__parse_pattern_characterINS_11__wrap_iterIPKcEEEET_S9_S9_, symObjAddr: 0x22890, symBinAddr: 0x26890, symSize: 0x7C }
  - { offset: 0x11AE01, size: 0x8, addend: 0x0, symName: __ZNSt3__111basic_regexIcNS_12regex_traitsIcEEE11__push_loopEmmPNS_16__owns_one_stateIcEEmmb, symObjAddr: 0x26D58, symBinAddr: 0x2AD58, symSize: 0x13C }
  - { offset: 0x11B419, size: 0x8, addend: 0x0, symName: __ZNSt3__120__l_anchor_multilineIcED1Ev, symObjAddr: 0x20FEC, symBinAddr: 0x24FEC, symSize: 0x48 }
  - { offset: 0x11B43F, size: 0x8, addend: 0x0, symName: __ZNSt3__120__l_anchor_multilineIcED1Ev, symObjAddr: 0x20FEC, symBinAddr: 0x24FEC, symSize: 0x48 }
  - { offset: 0x11B45F, size: 0x8, addend: 0x0, symName: __ZNSt3__120__l_anchor_multilineIcED1Ev, symObjAddr: 0x20FEC, symBinAddr: 0x24FEC, symSize: 0x48 }
  - { offset: 0x11B4A7, size: 0x8, addend: 0x0, symName: __ZNSt3__120__l_anchor_multilineIcED0Ev, symObjAddr: 0x21034, symBinAddr: 0x25034, symSize: 0x48 }
  - { offset: 0x11B4D8, size: 0x8, addend: 0x0, symName: __ZNSt3__120__l_anchor_multilineIcED0Ev, symObjAddr: 0x21034, symBinAddr: 0x25034, symSize: 0x48 }
  - { offset: 0x11B4F8, size: 0x8, addend: 0x0, symName: __ZNSt3__120__l_anchor_multilineIcED0Ev, symObjAddr: 0x21034, symBinAddr: 0x25034, symSize: 0x48 }
  - { offset: 0x11B518, size: 0x8, addend: 0x0, symName: __ZNSt3__120__l_anchor_multilineIcED0Ev, symObjAddr: 0x21034, symBinAddr: 0x25034, symSize: 0x48 }
  - { offset: 0x11B544, size: 0x8, addend: 0x0, symName: __ZNKSt3__120__l_anchor_multilineIcE6__execERNS_7__stateIcEE, symObjAddr: 0x2107C, symBinAddr: 0x2507C, symSize: 0x68 }
  - { offset: 0x11B5A9, size: 0x8, addend: 0x0, symName: __ZNSt3__120__r_anchor_multilineIcED1Ev, symObjAddr: 0x210E4, symBinAddr: 0x250E4, symSize: 0x48 }
  - { offset: 0x11B5CF, size: 0x8, addend: 0x0, symName: __ZNSt3__120__r_anchor_multilineIcED1Ev, symObjAddr: 0x210E4, symBinAddr: 0x250E4, symSize: 0x48 }
  - { offset: 0x11B5EF, size: 0x8, addend: 0x0, symName: __ZNSt3__120__r_anchor_multilineIcED1Ev, symObjAddr: 0x210E4, symBinAddr: 0x250E4, symSize: 0x48 }
  - { offset: 0x11B637, size: 0x8, addend: 0x0, symName: __ZNSt3__120__r_anchor_multilineIcED0Ev, symObjAddr: 0x2112C, symBinAddr: 0x2512C, symSize: 0x48 }
  - { offset: 0x11B668, size: 0x8, addend: 0x0, symName: __ZNSt3__120__r_anchor_multilineIcED0Ev, symObjAddr: 0x2112C, symBinAddr: 0x2512C, symSize: 0x48 }
  - { offset: 0x11B688, size: 0x8, addend: 0x0, symName: __ZNSt3__120__r_anchor_multilineIcED0Ev, symObjAddr: 0x2112C, symBinAddr: 0x2512C, symSize: 0x48 }
  - { offset: 0x11B6A8, size: 0x8, addend: 0x0, symName: __ZNSt3__120__r_anchor_multilineIcED0Ev, symObjAddr: 0x2112C, symBinAddr: 0x2512C, symSize: 0x48 }
  - { offset: 0x11B6D4, size: 0x8, addend: 0x0, symName: __ZNKSt3__120__r_anchor_multilineIcE6__execERNS_7__stateIcEE, symObjAddr: 0x21174, symBinAddr: 0x25174, symSize: 0x54 }
  - { offset: 0x11B739, size: 0x8, addend: 0x0, symName: __ZNSt3__115__word_boundaryIcNS_12regex_traitsIcEEED1Ev, symObjAddr: 0x211C8, symBinAddr: 0x251C8, symSize: 0x58 }
  - { offset: 0x11B7F0, size: 0x8, addend: 0x0, symName: __ZNSt3__115__word_boundaryIcNS_12regex_traitsIcEEED0Ev, symObjAddr: 0x21220, symBinAddr: 0x25220, symSize: 0x58 }
  - { offset: 0x11B910, size: 0x8, addend: 0x0, symName: __ZNKSt3__115__word_boundaryIcNS_12regex_traitsIcEEE6__execERNS_7__stateIcEE, symObjAddr: 0x21278, symBinAddr: 0x25278, symSize: 0x154 }
  - { offset: 0x11BAE4, size: 0x8, addend: 0x0, symName: __ZNSt3__111__lookaheadIcNS_12regex_traitsIcEEED1Ev, symObjAddr: 0x213CC, symBinAddr: 0x253CC, symSize: 0x94 }
  - { offset: 0x11BC56, size: 0x8, addend: 0x0, symName: __ZNSt3__111__lookaheadIcNS_12regex_traitsIcEEED0Ev, symObjAddr: 0x21460, symBinAddr: 0x25460, symSize: 0x94 }
  - { offset: 0x11BE9E, size: 0x8, addend: 0x0, symName: __ZNKSt3__111__lookaheadIcNS_12regex_traitsIcEEE6__execERNS_7__stateIcEE, symObjAddr: 0x214F4, symBinAddr: 0x254F4, symSize: 0x184 }
  - { offset: 0x11C462, size: 0x8, addend: 0x0, symName: __ZNSt3__16vectorINS_9sub_matchIPKcEENS_9allocatorIS4_EEE6assignEmRKS4_, symObjAddr: 0x21AEC, symBinAddr: 0x25AEC, symSize: 0x1D4 }
  - { offset: 0x11CA15, size: 0x8, addend: 0x0, symName: __ZNSt3__16vectorINS_9sub_matchIPKcEENS_9allocatorIS4_EEE20__throw_length_errorB8ne200100Ev, symObjAddr: 0x21CC0, symBinAddr: 0x25CC0, symSize: 0x14 }
  - { offset: 0x11CA20, size: 0x8, addend: 0x0, symName: __ZNKSt3__111basic_regexIcNS_12regex_traitsIcEEE21__match_at_start_ecmaINS_9allocatorINS_9sub_matchIPKcEEEEEEbS8_S8_RNS_13match_resultsIS8_T_EENS_15regex_constants15match_flag_typeEb, symObjAddr: 0x21678, symBinAddr: 0x25678, symSize: 0x474 }
  - { offset: 0x11E393, size: 0x8, addend: 0x0, symName: __ZNSt3__16vectorINS_7__stateIcEENS_9allocatorIS2_EEE24__emplace_back_slow_pathIJS2_EEEPS2_DpOT_, symObjAddr: 0x21E2C, symBinAddr: 0x25E2C, symSize: 0x178 }
  - { offset: 0x11EA93, size: 0x8, addend: 0x0, symName: __ZNSt3__16vectorINS_9sub_matchIPKcEENS_9allocatorIS4_EEE8__appendEmRKS4_, symObjAddr: 0x22150, symBinAddr: 0x26150, symSize: 0x1B0 }
  - { offset: 0x11EFF2, size: 0x8, addend: 0x0, symName: __ZNSt3__16vectorINS_4pairImPKcEENS_9allocatorIS4_EEE8__appendEm, symObjAddr: 0x22300, symBinAddr: 0x26300, symSize: 0x120 }
  - { offset: 0x11EFFD, size: 0x8, addend: 0x0, symName: __ZNSt3__16vectorINS_4pairImPKcEENS_9allocatorIS4_EEE8__appendEm, symObjAddr: 0x22300, symBinAddr: 0x26300, symSize: 0x120 }
  - { offset: 0x11F474, size: 0x8, addend: 0x0, symName: __ZNSt3__16vectorINS_4pairImPKcEENS_9allocatorIS4_EEE20__throw_length_errorB8ne200100Ev, symObjAddr: 0x22420, symBinAddr: 0x26420, symSize: 0x14 }
  - { offset: 0x11F47F, size: 0x8, addend: 0x0, symName: __ZNSt3__17__stateIcEC2ERKS1_, symObjAddr: 0x22434, symBinAddr: 0x26434, symSize: 0x16C }
  - { offset: 0x11FB1F, size: 0x8, addend: 0x0, symName: __ZNSt3__16vectorINS_7__stateIcEENS_9allocatorIS2_EEED1B8ne200100Ev, symObjAddr: 0x21DAC, symBinAddr: 0x25DAC, symSize: 0x80 }
  - { offset: 0x11FF45, size: 0x8, addend: 0x0, symName: __ZNSt3__17__stateIcED1Ev, symObjAddr: 0x21CD4, symBinAddr: 0x25CD4, symSize: 0x40 }
  - { offset: 0x120448, size: 0x8, addend: 0x0, symName: __ZNSt3__16vectorINS_9sub_matchIPKcEENS_9allocatorIS4_EEE20__throw_length_errorB8ne200100Ev, symObjAddr: 0x21CC0, symBinAddr: 0x25CC0, symSize: 0x14 }
  - { offset: 0x120460, size: 0x8, addend: 0x0, symName: __ZNSt3__17__stateIcED1Ev, symObjAddr: 0x21CD4, symBinAddr: 0x25CD4, symSize: 0x40 }
  - { offset: 0x120603, size: 0x8, addend: 0x0, symName: __ZNSt3__16vectorINS_7__stateIcEENS_9allocatorIS2_EEE26__swap_out_circular_bufferERNS_14__split_bufferIS2_RS4_EE, symObjAddr: 0x21FA4, symBinAddr: 0x25FA4, symSize: 0x124 }
  - { offset: 0x120BC2, size: 0x8, addend: 0x0, symName: __ZNSt3__16vectorINS_7__stateIcEENS_9allocatorIS2_EEE20__throw_length_errorB8ne200100Ev, symObjAddr: 0x2213C, symBinAddr: 0x2613C, symSize: 0x14 }
  - { offset: 0x120BDA, size: 0x8, addend: 0x0, symName: __ZNSt3__16vectorINS_9sub_matchIPKcEENS_9allocatorIS4_EEE8__appendEmRKS4_, symObjAddr: 0x22150, symBinAddr: 0x26150, symSize: 0x1B0 }
  - { offset: 0x120BE5, size: 0x8, addend: 0x0, symName: __ZNSt3__114__split_bufferINS_7__stateIcEERNS_9allocatorIS2_EEED1Ev, symObjAddr: 0x220C8, symBinAddr: 0x260C8, symSize: 0x74 }
  - { offset: 0x1214F6, size: 0x8, addend: 0x0, symName: __ZNSt3__16vectorINS_4pairImPKcEENS_9allocatorIS4_EEE20__throw_length_errorB8ne200100Ev, symObjAddr: 0x22420, symBinAddr: 0x26420, symSize: 0x14 }
  - { offset: 0x12150E, size: 0x8, addend: 0x0, symName: __ZNSt3__17__stateIcEC2ERKS1_, symObjAddr: 0x22434, symBinAddr: 0x26434, symSize: 0x16C }
  - { offset: 0x121947, size: 0x8, addend: 0x0, symName: __ZNSt3__111basic_regexIcNS_12regex_traitsIcEEE11__push_charEc, symObjAddr: 0x22FD0, symBinAddr: 0x26FD0, symSize: 0x144 }
  - { offset: 0x121CF4, size: 0x8, addend: 0x0, symName: __ZNSt3__111basic_regexIcNS_12regex_traitsIcEEE15__push_back_refEi, symObjAddr: 0x23160, symBinAddr: 0x27160, symSize: 0xD4 }
  - { offset: 0x121ECB, size: 0x8, addend: 0x0, symName: __ZNSt3__111basic_regexIcNS_12regex_traitsIcEEE30__parse_character_class_escapeINS_11__wrap_iterIPKcEEEET_S9_S9_, symObjAddr: 0x229E8, symBinAddr: 0x269E8, symSize: 0x25C }
  - { offset: 0x122395, size: 0x8, addend: 0x0, symName: __ZNSt3__111basic_regexIcNS_12regex_traitsIcEEE24__parse_character_escapeINS_11__wrap_iterIPKcEEEET_S9_S9_PNS_12basic_stringIcNS_11char_traitsIcEENS_9allocatorIcEEEE, symObjAddr: 0x22C44, symBinAddr: 0x26C44, symSize: 0x38C }
  - { offset: 0x122792, size: 0x8, addend: 0x0, symName: __ZNSt3__111basic_regexIcNS_12regex_traitsIcEEE11__push_charEc, symObjAddr: 0x22FD0, symBinAddr: 0x26FD0, symSize: 0x144 }
  - { offset: 0x12287E, size: 0x8, addend: 0x0, symName: __ZNSt3__120__bracket_expressionIcNS_12regex_traitsIcEEEC2B8ne200100ERKS2_PNS_6__nodeIcEEbbb, symObjAddr: 0x23B0C, symBinAddr: 0x27B0C, symSize: 0x19C }
  - { offset: 0x122F21, size: 0x8, addend: 0x0, symName: __ZNSt3__120__bracket_expressionIcNS_12regex_traitsIcEEE10__add_charB8ne200100Ec, symObjAddr: 0x23980, symBinAddr: 0x27980, symSize: 0x18C }
  - { offset: 0x123283, size: 0x8, addend: 0x0, symName: __ZNSt3__120__bracket_expressionIcNS_12regex_traitsIcEEEC2B8ne200100ERKS2_PNS_6__nodeIcEEbbb, symObjAddr: 0x23B0C, symBinAddr: 0x27B0C, symSize: 0x19C }
  - { offset: 0x12328E, size: 0x8, addend: 0x0, symName: __ZNSt3__111basic_regexIcNS_12regex_traitsIcEEE23__parse_expression_termINS_11__wrap_iterIPKcEEEET_S9_S9_PNS_20__bracket_expressionIcS2_EE, symObjAddr: 0x24C94, symBinAddr: 0x28C94, symSize: 0x454 }
  - { offset: 0x123FF9, size: 0x8, addend: 0x0, symName: __ZNSt3__123__match_any_but_newlineIcED1Ev, symObjAddr: 0x2290C, symBinAddr: 0x2690C, symSize: 0x48 }
  - { offset: 0x12401F, size: 0x8, addend: 0x0, symName: __ZNSt3__123__match_any_but_newlineIcED1Ev, symObjAddr: 0x2290C, symBinAddr: 0x2690C, symSize: 0x48 }
  - { offset: 0x12403F, size: 0x8, addend: 0x0, symName: __ZNSt3__123__match_any_but_newlineIcED1Ev, symObjAddr: 0x2290C, symBinAddr: 0x2690C, symSize: 0x48 }
  - { offset: 0x124087, size: 0x8, addend: 0x0, symName: __ZNSt3__123__match_any_but_newlineIcED0Ev, symObjAddr: 0x22954, symBinAddr: 0x26954, symSize: 0x48 }
  - { offset: 0x1240B8, size: 0x8, addend: 0x0, symName: __ZNSt3__123__match_any_but_newlineIcED0Ev, symObjAddr: 0x22954, symBinAddr: 0x26954, symSize: 0x48 }
  - { offset: 0x1240D8, size: 0x8, addend: 0x0, symName: __ZNSt3__123__match_any_but_newlineIcED0Ev, symObjAddr: 0x22954, symBinAddr: 0x26954, symSize: 0x48 }
  - { offset: 0x1240F8, size: 0x8, addend: 0x0, symName: __ZNSt3__123__match_any_but_newlineIcED0Ev, symObjAddr: 0x22954, symBinAddr: 0x26954, symSize: 0x48 }
  - { offset: 0x124547, size: 0x8, addend: 0x0, symName: __ZNSt3__118__match_char_icaseIcNS_12regex_traitsIcEEED1Ev, symObjAddr: 0x23234, symBinAddr: 0x27234, symSize: 0x58 }
  - { offset: 0x1245FE, size: 0x8, addend: 0x0, symName: __ZNSt3__118__match_char_icaseIcNS_12regex_traitsIcEEED0Ev, symObjAddr: 0x2328C, symBinAddr: 0x2728C, symSize: 0x58 }
  - { offset: 0x1246C2, size: 0x8, addend: 0x0, symName: __ZNKSt3__118__match_char_icaseIcNS_12regex_traitsIcEEE6__execERNS_7__stateIcEE, symObjAddr: 0x232E4, symBinAddr: 0x272E4, symSize: 0x84 }
  - { offset: 0x124782, size: 0x8, addend: 0x0, symName: __ZNSt3__120__match_char_collateIcNS_12regex_traitsIcEEED1Ev, symObjAddr: 0x23368, symBinAddr: 0x27368, symSize: 0x58 }
  - { offset: 0x124839, size: 0x8, addend: 0x0, symName: __ZNSt3__120__match_char_collateIcNS_12regex_traitsIcEEED0Ev, symObjAddr: 0x233C0, symBinAddr: 0x273C0, symSize: 0x58 }
  - { offset: 0x1248FD, size: 0x8, addend: 0x0, symName: __ZNKSt3__120__match_char_collateIcNS_12regex_traitsIcEEE6__execERNS_7__stateIcEE, symObjAddr: 0x23418, symBinAddr: 0x27418, symSize: 0x48 }
  - { offset: 0x12496D, size: 0x8, addend: 0x0, symName: __ZNSt3__112__match_charIcED1Ev, symObjAddr: 0x23460, symBinAddr: 0x27460, symSize: 0x48 }
  - { offset: 0x124993, size: 0x8, addend: 0x0, symName: __ZNSt3__112__match_charIcED1Ev, symObjAddr: 0x23460, symBinAddr: 0x27460, symSize: 0x48 }
  - { offset: 0x1249B3, size: 0x8, addend: 0x0, symName: __ZNSt3__112__match_charIcED1Ev, symObjAddr: 0x23460, symBinAddr: 0x27460, symSize: 0x48 }
  - { offset: 0x1249FB, size: 0x8, addend: 0x0, symName: __ZNSt3__112__match_charIcED0Ev, symObjAddr: 0x234A8, symBinAddr: 0x274A8, symSize: 0x48 }
  - { offset: 0x124A2C, size: 0x8, addend: 0x0, symName: __ZNSt3__112__match_charIcED0Ev, symObjAddr: 0x234A8, symBinAddr: 0x274A8, symSize: 0x48 }
  - { offset: 0x124A4C, size: 0x8, addend: 0x0, symName: __ZNSt3__112__match_charIcED0Ev, symObjAddr: 0x234A8, symBinAddr: 0x274A8, symSize: 0x48 }
  - { offset: 0x124A6C, size: 0x8, addend: 0x0, symName: __ZNSt3__112__match_charIcED0Ev, symObjAddr: 0x234A8, symBinAddr: 0x274A8, symSize: 0x48 }
  - { offset: 0x124A98, size: 0x8, addend: 0x0, symName: __ZNKSt3__112__match_charIcE6__execERNS_7__stateIcEE, symObjAddr: 0x234F0, symBinAddr: 0x274F0, symSize: 0x48 }
  - { offset: 0x124B08, size: 0x8, addend: 0x0, symName: __ZNSt3__116__back_ref_icaseIcNS_12regex_traitsIcEEED1Ev, symObjAddr: 0x23538, symBinAddr: 0x27538, symSize: 0x58 }
  - { offset: 0x124BBF, size: 0x8, addend: 0x0, symName: __ZNSt3__116__back_ref_icaseIcNS_12regex_traitsIcEEED0Ev, symObjAddr: 0x23590, symBinAddr: 0x27590, symSize: 0x58 }
  - { offset: 0x124C83, size: 0x8, addend: 0x0, symName: __ZNKSt3__116__back_ref_icaseIcNS_12regex_traitsIcEEE6__execERNS_7__stateIcEE, symObjAddr: 0x235E8, symBinAddr: 0x275E8, symSize: 0xFC }
  - { offset: 0x124DFB, size: 0x8, addend: 0x0, symName: __ZNSt3__118__back_ref_collateIcNS_12regex_traitsIcEEED1Ev, symObjAddr: 0x236E4, symBinAddr: 0x276E4, symSize: 0x58 }
  - { offset: 0x124EB2, size: 0x8, addend: 0x0, symName: __ZNSt3__118__back_ref_collateIcNS_12regex_traitsIcEEED0Ev, symObjAddr: 0x2373C, symBinAddr: 0x2773C, symSize: 0x58 }
  - { offset: 0x124F76, size: 0x8, addend: 0x0, symName: __ZNKSt3__118__back_ref_collateIcNS_12regex_traitsIcEEE6__execERNS_7__stateIcEE, symObjAddr: 0x23794, symBinAddr: 0x27794, symSize: 0x8C }
  - { offset: 0x125050, size: 0x8, addend: 0x0, symName: __ZNSt3__110__back_refIcED1Ev, symObjAddr: 0x23820, symBinAddr: 0x27820, symSize: 0x48 }
  - { offset: 0x125076, size: 0x8, addend: 0x0, symName: __ZNSt3__110__back_refIcED1Ev, symObjAddr: 0x23820, symBinAddr: 0x27820, symSize: 0x48 }
  - { offset: 0x125096, size: 0x8, addend: 0x0, symName: __ZNSt3__110__back_refIcED1Ev, symObjAddr: 0x23820, symBinAddr: 0x27820, symSize: 0x48 }
  - { offset: 0x1250DE, size: 0x8, addend: 0x0, symName: __ZNSt3__110__back_refIcED0Ev, symObjAddr: 0x23868, symBinAddr: 0x27868, symSize: 0x48 }
  - { offset: 0x12510F, size: 0x8, addend: 0x0, symName: __ZNSt3__110__back_refIcED0Ev, symObjAddr: 0x23868, symBinAddr: 0x27868, symSize: 0x48 }
  - { offset: 0x12512F, size: 0x8, addend: 0x0, symName: __ZNSt3__110__back_refIcED0Ev, symObjAddr: 0x23868, symBinAddr: 0x27868, symSize: 0x48 }
  - { offset: 0x12514F, size: 0x8, addend: 0x0, symName: __ZNSt3__110__back_refIcED0Ev, symObjAddr: 0x23868, symBinAddr: 0x27868, symSize: 0x48 }
  - { offset: 0x125181, size: 0x8, addend: 0x0, symName: __ZNKSt3__110__back_refIcE6__execERNS_7__stateIcEE, symObjAddr: 0x238B0, symBinAddr: 0x278B0, symSize: 0xD0 }
  - { offset: 0x125314, size: 0x8, addend: 0x0, symName: __ZNSt3__120__bracket_expressionIcNS_12regex_traitsIcEEE10__add_charB8ne200100Ec, symObjAddr: 0x23980, symBinAddr: 0x27980, symSize: 0x18C }
  - { offset: 0x12559D, size: 0x8, addend: 0x0, symName: __ZNSt3__16vectorINS_4pairINS_12basic_stringIcNS_11char_traitsIcEENS_9allocatorIcEEEES7_EENS5_IS8_EEED1B8ne200100Ev, symObjAddr: 0x23CA8, symBinAddr: 0x27CA8, symSize: 0x94 }
  - { offset: 0x125AEB, size: 0x8, addend: 0x0, symName: __ZNSt3__120__bracket_expressionIcNS_12regex_traitsIcEEED1Ev, symObjAddr: 0x23D3C, symBinAddr: 0x27D3C, symSize: 0x4 }
  - { offset: 0x125B0F, size: 0x8, addend: 0x0, symName: __ZNSt3__120__bracket_expressionIcNS_12regex_traitsIcEEED1Ev, symObjAddr: 0x23D3C, symBinAddr: 0x27D3C, symSize: 0x4 }
  - { offset: 0x125B23, size: 0x8, addend: 0x0, symName: __ZNSt3__120__bracket_expressionIcNS_12regex_traitsIcEEED2Ev, symObjAddr: 0x24610, symBinAddr: 0x28610, symSize: 0x148 }
  - { offset: 0x1265C8, size: 0x8, addend: 0x0, symName: __ZNSt3__120__bracket_expressionIcNS_12regex_traitsIcEEED0Ev, symObjAddr: 0x23D40, symBinAddr: 0x27D40, symSize: 0x14 }
  - { offset: 0x126A46, size: 0x8, addend: 0x0, symName: __ZNKSt3__120__bracket_expressionIcNS_12regex_traitsIcEEE6__execERNS_7__stateIcEE, symObjAddr: 0x23D54, symBinAddr: 0x27D54, symSize: 0x864 }
  - { offset: 0x128444, size: 0x8, addend: 0x0, symName: __ZNKSt3__112regex_traitsIcE20__lookup_collatenameIPcEENS_12basic_stringIcNS_11char_traitsIcEENS_9allocatorIcEEEET_SA_c, symObjAddr: 0x24884, symBinAddr: 0x28884, symSize: 0x234 }
  - { offset: 0x12900D, size: 0x8, addend: 0x0, symName: __ZNKSt3__112regex_traitsIcE9transformIPcEENS_12basic_stringIcNS_11char_traitsIcEENS_9allocatorIcEEEET_SA_, symObjAddr: 0x24758, symBinAddr: 0x28758, symSize: 0x12C }
  - { offset: 0x12963C, size: 0x8, addend: 0x0, symName: __ZNKSt3__112regex_traitsIcE19__transform_primaryIPcEENS_12basic_stringIcNS_11char_traitsIcEENS_9allocatorIcEEEET_SA_c, symObjAddr: 0x24AB8, symBinAddr: 0x28AB8, symSize: 0x190 }
  - { offset: 0x129E03, size: 0x8, addend: 0x0, symName: __ZNSt3__14pairINS_12basic_stringIcNS_11char_traitsIcEENS_9allocatorIcEEEES6_ED1Ev, symObjAddr: 0x245B8, symBinAddr: 0x285B8, symSize: 0x58 }
  - { offset: 0x12A0B7, size: 0x8, addend: 0x0, symName: __ZNSt3__111basic_regexIcNS_12regex_traitsIcEEE25__parse_equivalence_classINS_11__wrap_iterIPKcEEEET_S9_S9_PNS_20__bracket_expressionIcS2_EE, symObjAddr: 0x250E8, symBinAddr: 0x290E8, symSize: 0x274 }
  - { offset: 0x12ABA6, size: 0x8, addend: 0x0, symName: __ZNSt3__111basic_regexIcNS_12regex_traitsIcEEE18__parse_awk_escapeINS_11__wrap_iterIPKcEEEET_S9_S9_PNS_12basic_stringIcNS_11char_traitsIcEENS_9allocatorIcEEEE, symObjAddr: 0x25670, symBinAddr: 0x29670, symSize: 0x2F8 }
  - { offset: 0x12AD99, size: 0x8, addend: 0x0, symName: __ZNSt3__120__bracket_expressionIcNS_12regex_traitsIcEEE11__add_rangeB8ne200100ENS_12basic_stringIcNS_11char_traitsIcEENS_9allocatorIcEEEES9_, symObjAddr: 0x25968, symBinAddr: 0x29968, symSize: 0x438 }
  - { offset: 0x12ADAD, size: 0x8, addend: 0x0, symName: __ZNSt3__111basic_regexIcNS_12regex_traitsIcEEE24__parse_collating_symbolINS_11__wrap_iterIPKcEEEET_S9_S9_RNS_12basic_stringIcNS_11char_traitsIcEENS_9allocatorIcEEEE, symObjAddr: 0x25408, symBinAddr: 0x29408, symSize: 0xE0 }
  - { offset: 0x12B129, size: 0x8, addend: 0x0, symName: __ZNSt3__111basic_regexIcNS_12regex_traitsIcEEE20__parse_class_escapeINS_11__wrap_iterIPKcEEEET_S9_S9_RNS_12basic_stringIcNS_11char_traitsIcEENS_9allocatorIcEEEEPNS_20__bracket_expressionIcS2_EE, symObjAddr: 0x254E8, symBinAddr: 0x294E8, symSize: 0x188 }
  - { offset: 0x12B13D, size: 0x8, addend: 0x0, symName: __ZNSt3__111basic_regexIcNS_12regex_traitsIcEEE23__parse_character_classINS_11__wrap_iterIPKcEEEET_S9_S9_PNS_20__bracket_expressionIcS2_EE, symObjAddr: 0x2535C, symBinAddr: 0x2935C, symSize: 0xAC }
  - { offset: 0x12B3B1, size: 0x8, addend: 0x0, symName: __ZNSt3__111basic_regexIcNS_12regex_traitsIcEEE24__parse_collating_symbolINS_11__wrap_iterIPKcEEEET_S9_S9_RNS_12basic_stringIcNS_11char_traitsIcEENS_9allocatorIcEEEE, symObjAddr: 0x25408, symBinAddr: 0x29408, symSize: 0xE0 }
  - { offset: 0x12B3D1, size: 0x8, addend: 0x0, symName: __ZNSt3__120__bracket_expressionIcNS_12regex_traitsIcEEE13__add_digraphB8ne200100Ecc, symObjAddr: 0x25DA0, symBinAddr: 0x29DA0, symSize: 0x220 }
  - { offset: 0x12BF1E, size: 0x8, addend: 0x0, symName: __ZNSt3__119__throw_regex_errorB8ne200100ILNS_15regex_constants10error_typeE1EEEvv, symObjAddr: 0x25FC0, symBinAddr: 0x29FC0, symSize: 0x4C }
  - { offset: 0x12BF29, size: 0x8, addend: 0x0, symName: __ZNSt3__111basic_regexIcNS_12regex_traitsIcEEE20__parse_class_escapeINS_11__wrap_iterIPKcEEEET_S9_S9_RNS_12basic_stringIcNS_11char_traitsIcEENS_9allocatorIcEEEEPNS_20__bracket_expressionIcS2_EE, symObjAddr: 0x254E8, symBinAddr: 0x294E8, symSize: 0x188 }
  - { offset: 0x12C115, size: 0x8, addend: 0x0, symName: __ZNSt3__111basic_regexIcNS_12regex_traitsIcEEE18__parse_awk_escapeINS_11__wrap_iterIPKcEEEET_S9_S9_PNS_12basic_stringIcNS_11char_traitsIcEENS_9allocatorIcEEEE, symObjAddr: 0x25670, symBinAddr: 0x29670, symSize: 0x2F8 }
  - { offset: 0x12C129, size: 0x8, addend: 0x0, symName: __ZNSt3__120__bracket_expressionIcNS_12regex_traitsIcEEE11__add_rangeB8ne200100ENS_12basic_stringIcNS_11char_traitsIcEENS_9allocatorIcEEEES9_, symObjAddr: 0x25968, symBinAddr: 0x29968, symSize: 0x438 }
  - { offset: 0x12D64A, size: 0x8, addend: 0x0, symName: __ZNKSt3__112regex_traitsIcE20__lookup_collatenameINS_11__wrap_iterIPKcEEEENS_12basic_stringIcNS_11char_traitsIcEENS_9allocatorIcEEEET_SD_c, symObjAddr: 0x2600C, symBinAddr: 0x2A00C, symSize: 0x234 }
  - { offset: 0x12E228, size: 0x8, addend: 0x0, symName: __ZNKSt3__112regex_traitsIcE19__transform_primaryINS_11__wrap_iterIPcEEEENS_12basic_stringIcNS_11char_traitsIcEENS_9allocatorIcEEEET_SC_c, symObjAddr: 0x26240, symBinAddr: 0x2A240, symSize: 0x190 }
  - { offset: 0x12EA04, size: 0x8, addend: 0x0, symName: __ZNSt3__16vectorINS_12basic_stringIcNS_11char_traitsIcEENS_9allocatorIcEEEENS4_IS6_EEE24__emplace_back_slow_pathIJRKS6_EEEPS6_DpOT_, symObjAddr: 0x263D0, symBinAddr: 0x2A3D0, symSize: 0x150 }
  - { offset: 0x12EEC0, size: 0x8, addend: 0x0, symName: __ZNKSt3__112regex_traitsIcE18__lookup_classnameINS_11__wrap_iterIPKcEEEEjT_S7_bc, symObjAddr: 0x265E4, symBinAddr: 0x2A5E4, symSize: 0x14C }
  - { offset: 0x12F607, size: 0x8, addend: 0x0, symName: __ZNSt3__120__bracket_expressionIcNS_12regex_traitsIcEEE14__add_neg_charB8ne200100Ec, symObjAddr: 0x26730, symBinAddr: 0x2A730, symSize: 0x18C }
  - { offset: 0x12F973, size: 0x8, addend: 0x0, symName: __ZNSt3__16vectorINS_4pairINS_12basic_stringIcNS_11char_traitsIcEENS_9allocatorIcEEEES7_EENS5_IS8_EEE9push_backB8ne200100EOS8_, symObjAddr: 0x268BC, symBinAddr: 0x2A8BC, symSize: 0x174 }
  - { offset: 0x12FA38, size: 0x8, addend: 0x0, symName: __ZNKSt3__112regex_traitsIcE9transformINS_11__wrap_iterIPcEEEENS_12basic_stringIcNS_11char_traitsIcEENS_9allocatorIcEEEET_SC_, symObjAddr: 0x26A30, symBinAddr: 0x2AA30, symSize: 0x12C }
  - { offset: 0x13009E, size: 0x8, addend: 0x0, symName: __ZNSt3__16vectorINS_4pairINS_12basic_stringIcNS_11char_traitsIcEENS_9allocatorIcEEEES7_EENS5_IS8_EEE9push_backB8ne200100EOS8_, symObjAddr: 0x268BC, symBinAddr: 0x2A8BC, symSize: 0x174 }
  - { offset: 0x130697, size: 0x8, addend: 0x0, symName: __ZNKSt3__112regex_traitsIcE9transformINS_11__wrap_iterIPcEEEENS_12basic_stringIcNS_11char_traitsIcEENS_9allocatorIcEEEET_SC_, symObjAddr: 0x26A30, symBinAddr: 0x2AA30, symSize: 0x12C }
  - { offset: 0x13099D, size: 0x8, addend: 0x0, symName: __ZNSt3__16vectorINS_4pairIccEENS_9allocatorIS2_EEE20__throw_length_errorB8ne200100Ev, symObjAddr: 0x26BBC, symBinAddr: 0x2ABBC, symSize: 0x14 }
  - { offset: 0x1309B5, size: 0x8, addend: 0x0, symName: __ZNSt3__128__begin_marked_subexpressionIcED1Ev, symObjAddr: 0x26BD0, symBinAddr: 0x2ABD0, symSize: 0x48 }
  - { offset: 0x130B49, size: 0x8, addend: 0x0, symName: __ZNSt3__114__split_bufferINS_12basic_stringIcNS_11char_traitsIcEENS_9allocatorIcEEEERNS4_IS6_EEED1Ev, symObjAddr: 0x26520, symBinAddr: 0x2A520, symSize: 0x64 }
  - { offset: 0x131105, size: 0x8, addend: 0x0, symName: __ZNSt3__16vectorINS_4pairINS_12basic_stringIcNS_11char_traitsIcEENS_9allocatorIcEEEES7_EENS5_IS8_EEE20__throw_length_errorB8ne200100Ev, symObjAddr: 0x26BA8, symBinAddr: 0x2ABA8, symSize: 0x14 }
  - { offset: 0x13111D, size: 0x8, addend: 0x0, symName: __ZNSt3__16vectorINS_4pairIccEENS_9allocatorIS2_EEE20__throw_length_errorB8ne200100Ev, symObjAddr: 0x26BBC, symBinAddr: 0x2ABBC, symSize: 0x14 }
  - { offset: 0x131145, size: 0x8, addend: 0x0, symName: __ZNSt3__128__begin_marked_subexpressionIcED1Ev, symObjAddr: 0x26BD0, symBinAddr: 0x2ABD0, symSize: 0x48 }
  - { offset: 0x13116B, size: 0x8, addend: 0x0, symName: __ZNSt3__128__begin_marked_subexpressionIcED1Ev, symObjAddr: 0x26BD0, symBinAddr: 0x2ABD0, symSize: 0x48 }
  - { offset: 0x13118B, size: 0x8, addend: 0x0, symName: __ZNSt3__128__begin_marked_subexpressionIcED1Ev, symObjAddr: 0x26BD0, symBinAddr: 0x2ABD0, symSize: 0x48 }
  - { offset: 0x1311D3, size: 0x8, addend: 0x0, symName: __ZNSt3__128__begin_marked_subexpressionIcED0Ev, symObjAddr: 0x26C18, symBinAddr: 0x2AC18, symSize: 0x48 }
  - { offset: 0x131204, size: 0x8, addend: 0x0, symName: __ZNSt3__128__begin_marked_subexpressionIcED0Ev, symObjAddr: 0x26C18, symBinAddr: 0x2AC18, symSize: 0x48 }
  - { offset: 0x131224, size: 0x8, addend: 0x0, symName: __ZNSt3__128__begin_marked_subexpressionIcED0Ev, symObjAddr: 0x26C18, symBinAddr: 0x2AC18, symSize: 0x48 }
  - { offset: 0x131244, size: 0x8, addend: 0x0, symName: __ZNSt3__128__begin_marked_subexpressionIcED0Ev, symObjAddr: 0x26C18, symBinAddr: 0x2AC18, symSize: 0x48 }
  - { offset: 0x131270, size: 0x8, addend: 0x0, symName: __ZNKSt3__128__begin_marked_subexpressionIcE6__execERNS_7__stateIcEE, symObjAddr: 0x26C60, symBinAddr: 0x2AC60, symSize: 0x30 }
  - { offset: 0x131301, size: 0x8, addend: 0x0, symName: __ZNSt3__126__end_marked_subexpressionIcED1Ev, symObjAddr: 0x26C90, symBinAddr: 0x2AC90, symSize: 0x48 }
  - { offset: 0x131327, size: 0x8, addend: 0x0, symName: __ZNSt3__126__end_marked_subexpressionIcED1Ev, symObjAddr: 0x26C90, symBinAddr: 0x2AC90, symSize: 0x48 }
  - { offset: 0x131347, size: 0x8, addend: 0x0, symName: __ZNSt3__126__end_marked_subexpressionIcED1Ev, symObjAddr: 0x26C90, symBinAddr: 0x2AC90, symSize: 0x48 }
  - { offset: 0x13138F, size: 0x8, addend: 0x0, symName: __ZNSt3__126__end_marked_subexpressionIcED0Ev, symObjAddr: 0x26CD8, symBinAddr: 0x2ACD8, symSize: 0x48 }
  - { offset: 0x1313C0, size: 0x8, addend: 0x0, symName: __ZNSt3__126__end_marked_subexpressionIcED0Ev, symObjAddr: 0x26CD8, symBinAddr: 0x2ACD8, symSize: 0x48 }
  - { offset: 0x1313E0, size: 0x8, addend: 0x0, symName: __ZNSt3__126__end_marked_subexpressionIcED0Ev, symObjAddr: 0x26CD8, symBinAddr: 0x2ACD8, symSize: 0x48 }
  - { offset: 0x131400, size: 0x8, addend: 0x0, symName: __ZNSt3__126__end_marked_subexpressionIcED0Ev, symObjAddr: 0x26CD8, symBinAddr: 0x2ACD8, symSize: 0x48 }
  - { offset: 0x13142C, size: 0x8, addend: 0x0, symName: __ZNKSt3__126__end_marked_subexpressionIcE6__execERNS_7__stateIcEE, symObjAddr: 0x26D20, symBinAddr: 0x2AD20, symSize: 0x38 }
  - { offset: 0x1316EF, size: 0x8, addend: 0x0, symName: __ZNSt3__16__loopIcED0Ev, symObjAddr: 0x26F94, symBinAddr: 0x2AF94, symSize: 0x68 }
  - { offset: 0x1317E8, size: 0x8, addend: 0x0, symName: __ZNSt3__16__loopIcED1Ev, symObjAddr: 0x26F2C, symBinAddr: 0x2AF2C, symSize: 0x68 }
  - { offset: 0x131913, size: 0x8, addend: 0x0, symName: __ZNKSt3__16__loopIcE6__execERNS_7__stateIcEE, symObjAddr: 0x26FFC, symBinAddr: 0x2AFFC, symSize: 0x1D8 }
  - { offset: 0x131A5B, size: 0x8, addend: 0x0, symName: __ZNKSt3__16__loopIcE12__exec_splitEbRNS_7__stateIcEE, symObjAddr: 0x271D4, symBinAddr: 0x2B1D4, symSize: 0xC8 }
  - { offset: 0x131B37, size: 0x8, addend: 0x0, symName: __ZNSt3__117__owns_two_statesIcED1Ev, symObjAddr: 0x2729C, symBinAddr: 0x2B29C, symSize: 0x68 }
  - { offset: 0x131BCA, size: 0x8, addend: 0x0, symName: __ZNSt3__117__owns_two_statesIcED0Ev, symObjAddr: 0x27304, symBinAddr: 0x2B304, symSize: 0x68 }
  - { offset: 0x131C6A, size: 0x8, addend: 0x0, symName: __ZNSt3__117__repeat_one_loopIcED1Ev, symObjAddr: 0x2736C, symBinAddr: 0x2B36C, symSize: 0x4 }
  - { offset: 0x131C96, size: 0x8, addend: 0x0, symName: __ZNSt3__117__repeat_one_loopIcED0Ev, symObjAddr: 0x27370, symBinAddr: 0x2B370, symSize: 0x4 }
  - { offset: 0x131CC2, size: 0x8, addend: 0x0, symName: __ZNKSt3__117__repeat_one_loopIcE6__execERNS_7__stateIcEE, symObjAddr: 0x27374, symBinAddr: 0x2B374, symSize: 0x14 }
  - { offset: 0x131D32, size: 0x8, addend: 0x0, symName: __ZNSt3__111__alternateIcED1Ev, symObjAddr: 0x27388, symBinAddr: 0x2B388, symSize: 0x68 }
  - { offset: 0x131DE7, size: 0x8, addend: 0x0, symName: __ZNSt3__111__alternateIcED0Ev, symObjAddr: 0x273F0, symBinAddr: 0x2B3F0, symSize: 0x68 }
  - { offset: 0x131EA9, size: 0x8, addend: 0x0, symName: __ZNKSt3__111__alternateIcE6__execERNS_7__stateIcEE, symObjAddr: 0x27458, symBinAddr: 0x2B458, symSize: 0xC }
  - { offset: 0x131EDD, size: 0x8, addend: 0x0, symName: __ZNKSt3__111__alternateIcE12__exec_splitEbRNS_7__stateIcEE, symObjAddr: 0x27464, symBinAddr: 0x2B464, symSize: 0x24 }
  - { offset: 0x131F25, size: 0x8, addend: 0x0, symName: __ZNSt3__121__empty_non_own_stateIcED1Ev, symObjAddr: 0x27488, symBinAddr: 0x2B488, symSize: 0x4 }
  - { offset: 0x131F51, size: 0x8, addend: 0x0, symName: __ZNSt3__121__empty_non_own_stateIcED0Ev, symObjAddr: 0x2748C, symBinAddr: 0x2B48C, symSize: 0x4 }
  - { offset: 0x131F7D, size: 0x8, addend: 0x0, symName: __ZNKSt3__121__empty_non_own_stateIcE6__execERNS_7__stateIcEE, symObjAddr: 0x27490, symBinAddr: 0x2B490, symSize: 0x14 }
  - { offset: 0x1320D4, size: 0x8, addend: 0x0, symName: __ZNSt3__111basic_regexIcNS_12regex_traitsIcEEE32__parse_one_char_or_coll_elem_REINS_11__wrap_iterIPKcEEEET_S9_S9_, symObjAddr: 0x27970, symBinAddr: 0x2B970, symSize: 0x18C }
  - { offset: 0x132488, size: 0x8, addend: 0x0, symName: __ZNSt3__111__match_anyIcED1Ev, symObjAddr: 0x27AFC, symBinAddr: 0x2BAFC, symSize: 0x48 }
  - { offset: 0x1324AE, size: 0x8, addend: 0x0, symName: __ZNSt3__111__match_anyIcED1Ev, symObjAddr: 0x27AFC, symBinAddr: 0x2BAFC, symSize: 0x48 }
  - { offset: 0x1324CE, size: 0x8, addend: 0x0, symName: __ZNSt3__111__match_anyIcED1Ev, symObjAddr: 0x27AFC, symBinAddr: 0x2BAFC, symSize: 0x48 }
  - { offset: 0x132516, size: 0x8, addend: 0x0, symName: __ZNSt3__111__match_anyIcED0Ev, symObjAddr: 0x27B44, symBinAddr: 0x2BB44, symSize: 0x48 }
  - { offset: 0x132547, size: 0x8, addend: 0x0, symName: __ZNSt3__111__match_anyIcED0Ev, symObjAddr: 0x27B44, symBinAddr: 0x2BB44, symSize: 0x48 }
  - { offset: 0x132567, size: 0x8, addend: 0x0, symName: __ZNSt3__111__match_anyIcED0Ev, symObjAddr: 0x27B44, symBinAddr: 0x2BB44, symSize: 0x48 }
  - { offset: 0x132587, size: 0x8, addend: 0x0, symName: __ZNSt3__111__match_anyIcED0Ev, symObjAddr: 0x27B44, symBinAddr: 0x2BB44, symSize: 0x48 }
  - { offset: 0x1325B3, size: 0x8, addend: 0x0, symName: __ZNKSt3__111__match_anyIcE6__execERNS_7__stateIcEE, symObjAddr: 0x27B8C, symBinAddr: 0x2BB8C, symSize: 0x40 }
  - { offset: 0x132606, size: 0x8, addend: 0x0, symName: __ZNSt3__111basic_regexIcNS_12regex_traitsIcEEE15__test_back_refEc, symObjAddr: 0x27BCC, symBinAddr: 0x2BBCC, symSize: 0x60 }
  - { offset: 0x13270E, size: 0x8, addend: 0x0, symName: __ZNSt3__111basic_regexIcNS_12regex_traitsIcEEE22__parse_ERE_expressionINS_11__wrap_iterIPKcEEEET_S9_S9_, symObjAddr: 0x27C2C, symBinAddr: 0x2BC2C, symSize: 0x1F0 }
  - { offset: 0x132719, size: 0x8, addend: 0x0, symName: __ZNSt3__111basic_regexIcNS_12regex_traitsIcEEE33__parse_one_char_or_coll_elem_EREINS_11__wrap_iterIPKcEEEET_S9_S9_, symObjAddr: 0x27E1C, symBinAddr: 0x2BE1C, symSize: 0x158 }
  - { offset: 0x13295C, size: 0x8, addend: 0x0, symName: __ZNSt3__111basic_regexIcNS_12regex_traitsIcEEE23__parse_QUOTED_CHAR_EREINS_11__wrap_iterIPKcEEEET_S9_S9_, symObjAddr: 0x27F74, symBinAddr: 0x2BF74, symSize: 0xC8 }
  - { offset: 0x132B12, size: 0x8, addend: 0x0, symName: __ZNKSt3__111basic_regexIcNS_12regex_traitsIcEEE27__match_at_start_posix_subsINS_9allocatorINS_9sub_matchIPKcEEEEEEbS8_S8_RNS_13match_resultsIS8_T_EENS_15regex_constants15match_flag_typeEb, symObjAddr: 0x28D60, symBinAddr: 0x2CD60, symSize: 0x5BC }
  - { offset: 0x134964, size: 0x8, addend: 0x0, symName: __ZNKSt3__111basic_regexIcNS_12regex_traitsIcEEE29__match_at_start_posix_nosubsINS_9allocatorINS_9sub_matchIPKcEEEEEEbS8_S8_RNS_13match_resultsIS8_T_EENS_15regex_constants15match_flag_typeEb, symObjAddr: 0x284AC, symBinAddr: 0x2C4AC, symSize: 0x8B4 }
  - { offset: 0x1368FF, size: 0x8, addend: 0x0, symName: __ZNSt3__16vectorINS_9sub_matchINS_11__wrap_iterIPKcEEEENS_9allocatorIS6_EEE8__appendEm, symObjAddr: 0x2A69C, symBinAddr: 0x2E69C, symSize: 0x1A0 }
  - { offset: 0x136E97, size: 0x8, addend: 0x0, symName: __ZNSt3__16vectorINS_9sub_matchINS_11__wrap_iterIPKcEEEENS_9allocatorIS6_EEE20__throw_length_errorB8ne200100Ev, symObjAddr: 0x2A83C, symBinAddr: 0x2E83C, symSize: 0x14 }
  - { offset: 0x13730F, size: 0x8, addend: 0x0, symName: __ZNSt3__15dequeINS_7__stateIcEENS_9allocatorIS2_EEE19__add_back_capacityEv, symObjAddr: 0x294EC, symBinAddr: 0x2D4EC, symSize: 0x35C }
  - { offset: 0x138029, size: 0x8, addend: 0x0, symName: __ZNSt3__15dequeINS_7__stateIcEENS_9allocatorIS2_EEE20__add_front_capacityEv, symObjAddr: 0x29CC8, symBinAddr: 0x2DCC8, symSize: 0x380 }
  - { offset: 0x138E4E, size: 0x8, addend: 0x0, symName: __ZNSt3__15dequeINS_7__stateIcEENS_9allocatorIS2_EEED1B8ne200100Ev, symObjAddr: 0x29478, symBinAddr: 0x2D478, symSize: 0x74 }
  - { offset: 0x1391B8, size: 0x8, addend: 0x0, symName: __ZNSt3__16vectorINS_9sub_matchIPKcEENS_9allocatorIS4_EEE18__assign_with_sizeB8ne200100IPS4_S9_EEvT_T0_l, symObjAddr: 0x2A1D0, symBinAddr: 0x2E1D0, symSize: 0x200 }
  - { offset: 0x1399C2, size: 0x8, addend: 0x0, symName: __ZNSt3__16vectorINS_4pairImPKcEENS_9allocatorIS4_EEE18__assign_with_sizeB8ne200100IPS4_S9_EEvT_T0_l, symObjAddr: 0x2A3D0, symBinAddr: 0x2E3D0, symSize: 0x2CC }
  - { offset: 0x1399DF, size: 0x8, addend: 0x0, symName: __ZNSt3__16vectorINS_4pairImPKcEENS_9allocatorIS4_EEE18__assign_with_sizeB8ne200100IPS4_S9_EEvT_T0_l, symObjAddr: 0x2A3D0, symBinAddr: 0x2E3D0, symSize: 0x2CC }
  - { offset: 0x13A1A8, size: 0x8, addend: 0x0, symName: __ZNSt3__16vectorINS_9sub_matchINS_11__wrap_iterIPKcEEEENS_9allocatorIS6_EEE8__appendEm, symObjAddr: 0x2A69C, symBinAddr: 0x2E69C, symSize: 0x1A0 }
  - { offset: 0x13A1DB, size: 0x8, addend: 0x0, symName: __ZNSt3__15dequeINS_7__stateIcEENS_9allocatorIS2_EEE5clearEv, symObjAddr: 0x2931C, symBinAddr: 0x2D31C, symSize: 0x15C }
  - { offset: 0x13ABDE, size: 0x8, addend: 0x0, symName: __ZNSt3__114__split_bufferIPNS_7__stateIcEENS_9allocatorIS3_EEE12emplace_backIJRS3_EEEvDpOT_, symObjAddr: 0x29848, symBinAddr: 0x2D848, symSize: 0x17C }
  - { offset: 0x13B08B, size: 0x8, addend: 0x0, symName: __ZNSt3__114__split_bufferIPNS_7__stateIcEENS_9allocatorIS3_EEE12emplace_backIJS3_EEEvDpOT_, symObjAddr: 0x299C4, symBinAddr: 0x2D9C4, symSize: 0x17C }
  - { offset: 0x13B0A1, size: 0x8, addend: 0x0, symName: __ZNSt3__114__split_bufferIPNS_7__stateIcEENS_9allocatorIS3_EEE12emplace_backIJS3_EEEvDpOT_, symObjAddr: 0x299C4, symBinAddr: 0x2D9C4, symSize: 0x17C }
  - { offset: 0x13B54E, size: 0x8, addend: 0x0, symName: __ZNSt3__114__split_bufferIPNS_7__stateIcEENS_9allocatorIS3_EEE13emplace_frontIJS3_EEEvDpOT_, symObjAddr: 0x29B40, symBinAddr: 0x2DB40, symSize: 0x188 }
  - { offset: 0x13B564, size: 0x8, addend: 0x0, symName: __ZNSt3__114__split_bufferIPNS_7__stateIcEENS_9allocatorIS3_EEE13emplace_frontIJS3_EEEvDpOT_, symObjAddr: 0x29B40, symBinAddr: 0x2DB40, symSize: 0x188 }
  - { offset: 0x13BA35, size: 0x8, addend: 0x0, symName: __ZNSt3__15dequeINS_7__stateIcEENS_9allocatorIS2_EEE20__add_front_capacityEv, symObjAddr: 0x29CC8, symBinAddr: 0x2DCC8, symSize: 0x380 }
  - { offset: 0x13BB09, size: 0x8, addend: 0x0, symName: __ZNSt3__114__split_bufferIPNS_7__stateIcEENS_9allocatorIS3_EEE13emplace_frontIJRS3_EEEvDpOT_, symObjAddr: 0x2A048, symBinAddr: 0x2E048, symSize: 0x188 }
  - { offset: 0x13BFDA, size: 0x8, addend: 0x0, symName: __ZNSt3__16vectorINS_9sub_matchIPKcEENS_9allocatorIS4_EEE18__assign_with_sizeB8ne200100IPS4_S9_EEvT_T0_l, symObjAddr: 0x2A1D0, symBinAddr: 0x2E1D0, symSize: 0x200 }
  - { offset: 0x13C467, size: 0x8, addend: 0x0, symName: __ZNSt3__16vectorINS_9sub_matchINS_11__wrap_iterIPKcEEEENS_9allocatorIS6_EEE20__throw_length_errorB8ne200100Ev, symObjAddr: 0x2A83C, symBinAddr: 0x2E83C, symSize: 0x14 }
  - { offset: 0x13C47F, size: 0x8, addend: 0x0, symName: '__ZZ38whisper_vad_init_from_file_with_paramsEN3$_08__invokeEPvS0_m', symObjAddr: 0x2A850, symBinAddr: 0x2E850, symSize: 0x24 }
  - { offset: 0x13C4E6, size: 0x8, addend: 0x0, symName: '__ZZ38whisper_vad_init_from_file_with_paramsEN3$_08__invokeEPvS0_m', symObjAddr: 0x2A850, symBinAddr: 0x2E850, symSize: 0x24 }
  - { offset: 0x13C5A7, size: 0x8, addend: 0x0, symName: '__ZZ38whisper_vad_init_from_file_with_paramsEN3$_18__invokeEPv', symObjAddr: 0x2A874, symBinAddr: 0x2E874, symSize: 0x18 }
  - { offset: 0x13C5D4, size: 0x8, addend: 0x0, symName: '__ZZ38whisper_vad_init_from_file_with_paramsEN3$_18__invokeEPv', symObjAddr: 0x2A874, symBinAddr: 0x2E874, symSize: 0x18 }
  - { offset: 0x13C67E, size: 0x8, addend: 0x0, symName: '__ZZ38whisper_vad_init_from_file_with_paramsEN3$_28__invokeEPv', symObjAddr: 0x2A88C, symBinAddr: 0x2E88C, symSize: 0x48 }
  - { offset: 0x13C730, size: 0x8, addend: 0x0, symName: '__ZNSt3__110__function6__funcIZL24whisper_vad_init_contextP19whisper_vad_contextE3$_0NS_9allocatorIS4_EEFP11ggml_cgraphvEED1Ev', symObjAddr: 0x2A928, symBinAddr: 0x2E928, symSize: 0x4 }
  - { offset: 0x13C75C, size: 0x8, addend: 0x0, symName: '__ZNSt3__110__function6__funcIZL24whisper_vad_init_contextP19whisper_vad_contextE3$_0NS_9allocatorIS4_EEFP11ggml_cgraphvEED0Ev', symObjAddr: 0x2A92C, symBinAddr: 0x2E92C, symSize: 0x4 }
  - { offset: 0x13C813, size: 0x8, addend: 0x0, symName: '__ZNKSt3__110__function6__funcIZL24whisper_vad_init_contextP19whisper_vad_contextE3$_0NS_9allocatorIS4_EEFP11ggml_cgraphvEE7__cloneEv', symObjAddr: 0x2A930, symBinAddr: 0x2E930, symSize: 0x34 }
  - { offset: 0x13C96C, size: 0x8, addend: 0x0, symName: '__ZNKSt3__110__function6__funcIZL24whisper_vad_init_contextP19whisper_vad_contextE3$_0NS_9allocatorIS4_EEFP11ggml_cgraphvEE7__cloneEPNS0_6__baseIS9_EE', symObjAddr: 0x2A964, symBinAddr: 0x2E964, symSize: 0x14 }
  - { offset: 0x13C9DE, size: 0x8, addend: 0x0, symName: '__ZNSt3__110__function6__funcIZL24whisper_vad_init_contextP19whisper_vad_contextE3$_0NS_9allocatorIS4_EEFP11ggml_cgraphvEE7destroyEv', symObjAddr: 0x2A978, symBinAddr: 0x2E978, symSize: 0x4 }
  - { offset: 0x13CA33, size: 0x8, addend: 0x0, symName: '__ZNSt3__110__function6__funcIZL24whisper_vad_init_contextP19whisper_vad_contextE3$_0NS_9allocatorIS4_EEFP11ggml_cgraphvEE18destroy_deallocateEv', symObjAddr: 0x2A97C, symBinAddr: 0x2E97C, symSize: 0x4 }
  - { offset: 0x13CA68, size: 0x8, addend: 0x0, symName: '__ZNSt3__110__function6__funcIZL24whisper_vad_init_contextP19whisper_vad_contextE3$_0NS_9allocatorIS4_EEFP11ggml_cgraphvEE18destroy_deallocateEv', symObjAddr: 0x2A97C, symBinAddr: 0x2E97C, symSize: 0x4 }
  - { offset: 0x13CA8D, size: 0x8, addend: 0x0, symName: '__ZNSt3__110__function6__funcIZL24whisper_vad_init_contextP19whisper_vad_contextE3$_0NS_9allocatorIS4_EEFP11ggml_cgraphvEE18destroy_deallocateEv', symObjAddr: 0x2A97C, symBinAddr: 0x2E97C, symSize: 0x4 }
  - { offset: 0x13CAC3, size: 0x8, addend: 0x0, symName: '__ZNSt3__110__function6__funcIZL24whisper_vad_init_contextP19whisper_vad_contextE3$_0NS_9allocatorIS4_EEFP11ggml_cgraphvEE18destroy_deallocateEv', symObjAddr: 0x2A97C, symBinAddr: 0x2E97C, symSize: 0x4 }
  - { offset: 0x13CB40, size: 0x8, addend: 0x0, symName: '__ZNSt3__110__function6__funcIZL24whisper_vad_init_contextP19whisper_vad_contextE3$_0NS_9allocatorIS4_EEFP11ggml_cgraphvEEclEv', symObjAddr: 0x2A980, symBinAddr: 0x2E980, symSize: 0xC }
  - { offset: 0x13CBE4, size: 0x8, addend: 0x0, symName: '__ZNKSt3__110__function6__funcIZL24whisper_vad_init_contextP19whisper_vad_contextE3$_0NS_9allocatorIS4_EEFP11ggml_cgraphvEE6targetERKSt9type_info', symObjAddr: 0x2A98C, symBinAddr: 0x2E98C, symSize: 0x64 }
  - { offset: 0x13CCA2, size: 0x8, addend: 0x0, symName: '__ZNKSt3__110__function6__funcIZL24whisper_vad_init_contextP19whisper_vad_contextE3$_0NS_9allocatorIS4_EEFP11ggml_cgraphvEE11target_typeEv', symObjAddr: 0x2A9F0, symBinAddr: 0x2E9F0, symSize: 0xC }
  - { offset: 0x13D1F2, size: 0x8, addend: 0x0, symName: __ZNSt3__16vectorINS0_IPK23whisper_grammar_elementNS_9allocatorIS3_EEEENS4_IS6_EEE24__emplace_back_slow_pathIJRKS6_EEEPS6_DpOT_, symObjAddr: 0x2B1DC, symBinAddr: 0x2F1DC, symSize: 0x170 }
  - { offset: 0x13DA45, size: 0x8, addend: 0x0, symName: __ZL29whisper_grammar_advance_stackRKNSt3__16vectorINS0_I23whisper_grammar_elementNS_9allocatorIS1_EEEENS2_IS4_EEEERKNS0_IPKS1_NS2_ISA_EEEERNS0_ISC_NS2_ISC_EEEE.cold.1, symObjAddr: 0x3A164, symBinAddr: 0x137774, symSize: 0x38 }
  - { offset: 0x13DABF, size: 0x8, addend: 0x0, symName: __ZNSt3__114__split_bufferINS_6vectorIPK23whisper_grammar_elementNS_9allocatorIS4_EEEERNS5_IS7_EEED1Ev, symObjAddr: 0x2B15C, symBinAddr: 0x2F15C, symSize: 0x6C }
  - { offset: 0x13DD6C, size: 0x8, addend: 0x0, symName: __ZNSt3__111basic_regexIcNS_12regex_traitsIcEEE7__parseIPKcEET_S7_S7_, symObjAddr: 0x2B414, symBinAddr: 0x2F414, symSize: 0x348 }
  - { offset: 0x13E6D8, size: 0x8, addend: 0x0, symName: __ZNSt3__111basic_regexIcNS_12regex_traitsIcEEE13__parse_egrepIPKcEET_S7_S7_, symObjAddr: 0x2BD7C, symBinAddr: 0x2FD7C, symSize: 0x1A0 }
  - { offset: 0x13EC7F, size: 0x8, addend: 0x0, symName: __ZNSt3__111basic_regexIcNS_12regex_traitsIcEEE24__parse_extended_reg_expIPKcEET_S7_S7_, symObjAddr: 0x2BA80, symBinAddr: 0x2FA80, symSize: 0x15C }
  - { offset: 0x13EFE3, size: 0x8, addend: 0x0, symName: __ZNSt3__111basic_regexIcNS_12regex_traitsIcEEE12__parse_grepIPKcEET_S7_S7_, symObjAddr: 0x2BBDC, symBinAddr: 0x2FBDC, symSize: 0x1A0 }
  - { offset: 0x13EFF7, size: 0x8, addend: 0x0, symName: __ZNSt3__111basic_regexIcNS_12regex_traitsIcEEE21__parse_basic_reg_expIPKcEET_S7_S7_, symObjAddr: 0x2B908, symBinAddr: 0x2F908, symSize: 0x178 }
  - { offset: 0x13F391, size: 0x8, addend: 0x0, symName: __ZNSt3__111basic_regexIcNS_12regex_traitsIcEEE24__parse_extended_reg_expIPKcEET_S7_S7_, symObjAddr: 0x2BA80, symBinAddr: 0x2FA80, symSize: 0x15C }
  - { offset: 0x13F3A5, size: 0x8, addend: 0x0, symName: __ZNSt3__111basic_regexIcNS_12regex_traitsIcEEE12__parse_grepIPKcEET_S7_S7_, symObjAddr: 0x2BBDC, symBinAddr: 0x2FBDC, symSize: 0x1A0 }
  - { offset: 0x13F94C, size: 0x8, addend: 0x0, symName: __ZNSt3__111basic_regexIcNS_12regex_traitsIcEEE19__parse_alternativeIPKcEET_S7_S7_, symObjAddr: 0x2BF1C, symBinAddr: 0x2FF1C, symSize: 0xA0 }
  - { offset: 0x13FAAC, size: 0x8, addend: 0x0, symName: __ZNSt3__111basic_regexIcNS_12regex_traitsIcEEE16__parse_ecma_expIPKcEET_S7_S7_, symObjAddr: 0x2B75C, symBinAddr: 0x2F75C, symSize: 0x1AC }
  - { offset: 0x13FEF3, size: 0x8, addend: 0x0, symName: __ZNSt3__111basic_regexIcNS_12regex_traitsIcEEE12__parse_termIPKcEET_S7_S7_, symObjAddr: 0x2BFBC, symBinAddr: 0x2FFBC, symSize: 0x94 }
  - { offset: 0x140058, size: 0x8, addend: 0x0, symName: __ZNSt3__111basic_regexIcNS_12regex_traitsIcEEE18__parse_nondupl_REIPKcEET_S7_S7_, symObjAddr: 0x2E3F0, symBinAddr: 0x323F0, symSize: 0x2F8 }
  - { offset: 0x140762, size: 0x8, addend: 0x0, symName: __ZNSt3__111basic_regexIcNS_12regex_traitsIcEEE22__parse_RE_dupl_symbolIPKcEET_S7_S7_PNS_16__owns_one_stateIcEEjj, symObjAddr: 0x2E6E8, symBinAddr: 0x326E8, symSize: 0x274 }
  - { offset: 0x140776, size: 0x8, addend: 0x0, symName: __ZNSt3__111basic_regexIcNS_12regex_traitsIcEEE22__parse_RE_dupl_symbolIPKcEET_S7_S7_PNS_16__owns_one_stateIcEEjj, symObjAddr: 0x2E6E8, symBinAddr: 0x326E8, symSize: 0x274 }
  - { offset: 0x140D31, size: 0x8, addend: 0x0, symName: __ZNSt3__111basic_regexIcNS_12regex_traitsIcEEE22__parse_ERE_expressionIPKcEET_S7_S7_, symObjAddr: 0x2E95C, symBinAddr: 0x3295C, symSize: 0x1F0 }
  - { offset: 0x140D89, size: 0x8, addend: 0x0, symName: __ZNSt3__111basic_regexIcNS_12regex_traitsIcEEE22__parse_ERE_expressionIPKcEET_S7_S7_, symObjAddr: 0x2E95C, symBinAddr: 0x3295C, symSize: 0x1F0 }
  - { offset: 0x141159, size: 0x8, addend: 0x0, symName: __ZNSt3__111basic_regexIcNS_12regex_traitsIcEEE33__parse_one_char_or_coll_elem_EREIPKcEET_S7_S7_, symObjAddr: 0x2EB4C, symBinAddr: 0x32B4C, symSize: 0x158 }
  - { offset: 0x1411CE, size: 0x8, addend: 0x0, symName: __ZNSt3__111basic_regexIcNS_12regex_traitsIcEEE23__parse_ERE_dupl_symbolIPKcEET_S7_S7_PNS_16__owns_one_stateIcEEjj, symObjAddr: 0x2C5EC, symBinAddr: 0x305EC, symSize: 0x3E4 }
  - { offset: 0x1417C3, size: 0x8, addend: 0x0, symName: __ZNSt3__111basic_regexIcNS_12regex_traitsIcEEE19__parse_atom_escapeIPKcEET_S7_S7_, symObjAddr: 0x2C9D0, symBinAddr: 0x309D0, symSize: 0x180 }
  - { offset: 0x1417D7, size: 0x8, addend: 0x0, symName: __ZNSt3__111basic_regexIcNS_12regex_traitsIcEEE17__parse_assertionIPKcEET_S7_S7_, symObjAddr: 0x2C050, symBinAddr: 0x30050, symSize: 0x364 }
  - { offset: 0x141E61, size: 0x8, addend: 0x0, symName: __ZNSt3__111basic_regexIcNS_12regex_traitsIcEEE12__parse_atomIPKcEET_S7_S7_, symObjAddr: 0x2C3B4, symBinAddr: 0x303B4, symSize: 0x238 }
  - { offset: 0x1421FD, size: 0x8, addend: 0x0, symName: __ZNSt3__111basic_regexIcNS_12regex_traitsIcEEE23__parse_ERE_dupl_symbolIPKcEET_S7_S7_PNS_16__owns_one_stateIcEEjj, symObjAddr: 0x2C5EC, symBinAddr: 0x305EC, symSize: 0x3E4 }
  - { offset: 0x142211, size: 0x8, addend: 0x0, symName: __ZNSt3__111basic_regexIcNS_12regex_traitsIcEEE26__parse_bracket_expressionIPKcEET_S7_S7_, symObjAddr: 0x2CB50, symBinAddr: 0x30B50, symSize: 0x160 }
  - { offset: 0x14240A, size: 0x8, addend: 0x0, symName: __ZNSt3__111basic_regexIcNS_12regex_traitsIcEEE19__parse_atom_escapeIPKcEET_S7_S7_, symObjAddr: 0x2C9D0, symBinAddr: 0x309D0, symSize: 0x180 }
  - { offset: 0x1425AF, size: 0x8, addend: 0x0, symName: __ZNSt3__111basic_regexIcNS_12regex_traitsIcEEE26__parse_bracket_expressionIPKcEET_S7_S7_, symObjAddr: 0x2CB50, symBinAddr: 0x30B50, symSize: 0x160 }
  - { offset: 0x1425C3, size: 0x8, addend: 0x0, symName: __ZNSt3__111basic_regexIcNS_12regex_traitsIcEEE25__parse_pattern_characterIPKcEET_S7_S7_, symObjAddr: 0x2CCB0, symBinAddr: 0x30CB0, symSize: 0x7C }
  - { offset: 0x1426BD, size: 0x8, addend: 0x0, symName: __ZNSt3__111basic_regexIcNS_12regex_traitsIcEEE30__parse_character_class_escapeIPKcEET_S7_S7_, symObjAddr: 0x2CD2C, symBinAddr: 0x30D2C, symSize: 0x25C }
  - { offset: 0x142B73, size: 0x8, addend: 0x0, symName: __ZNSt3__111basic_regexIcNS_12regex_traitsIcEEE24__parse_character_escapeIPKcEET_S7_S7_PNS_12basic_stringIcNS_11char_traitsIcEENS_9allocatorIcEEEE, symObjAddr: 0x2CF88, symBinAddr: 0x30F88, symSize: 0x40C }
  - { offset: 0x142FB4, size: 0x8, addend: 0x0, symName: __ZNSt3__111basic_regexIcNS_12regex_traitsIcEEE23__parse_expression_termIPKcEET_S7_S7_PNS_20__bracket_expressionIcS2_EE, symObjAddr: 0x2D394, symBinAddr: 0x31394, symSize: 0x54C }
  - { offset: 0x14301B, size: 0x8, addend: 0x0, symName: __ZNSt3__111basic_regexIcNS_12regex_traitsIcEEE23__parse_expression_termIPKcEET_S7_S7_PNS_20__bracket_expressionIcS2_EE, symObjAddr: 0x2D394, symBinAddr: 0x31394, symSize: 0x54C }
  - { offset: 0x1444F2, size: 0x8, addend: 0x0, symName: __ZNSt3__111basic_regexIcNS_12regex_traitsIcEEE25__parse_equivalence_classIPKcEET_S7_S7_PNS_20__bracket_expressionIcS2_EE, symObjAddr: 0x2D8E0, symBinAddr: 0x318E0, symSize: 0x258 }
  - { offset: 0x145028, size: 0x8, addend: 0x0, symName: __ZNSt3__111basic_regexIcNS_12regex_traitsIcEEE18__parse_awk_escapeIPKcEET_S7_S7_PNS_12basic_stringIcNS_11char_traitsIcEENS_9allocatorIcEEEE, symObjAddr: 0x2DD8C, symBinAddr: 0x31D8C, symSize: 0x2E4 }
  - { offset: 0x14514C, size: 0x8, addend: 0x0, symName: __ZNKSt3__112regex_traitsIcE20__lookup_collatenameIPKcEENS_12basic_stringIcNS_11char_traitsIcEENS_9allocatorIcEEEET_SB_c, symObjAddr: 0x2E070, symBinAddr: 0x32070, symSize: 0x234 }
  - { offset: 0x145160, size: 0x8, addend: 0x0, symName: __ZNSt3__111basic_regexIcNS_12regex_traitsIcEEE24__parse_collating_symbolIPKcEET_S7_S7_RNS_12basic_stringIcNS_11char_traitsIcEENS_9allocatorIcEEEE, symObjAddr: 0x2DB38, symBinAddr: 0x31B38, symSize: 0xD0 }
  - { offset: 0x145515, size: 0x8, addend: 0x0, symName: __ZNSt3__111basic_regexIcNS_12regex_traitsIcEEE20__parse_class_escapeIPKcEET_S7_S7_RNS_12basic_stringIcNS_11char_traitsIcEENS_9allocatorIcEEEEPNS_20__bracket_expressionIcS2_EE, symObjAddr: 0x2DC08, symBinAddr: 0x31C08, symSize: 0x184 }
  - { offset: 0x145520, size: 0x8, addend: 0x0, symName: __ZNKSt3__112regex_traitsIcE20__lookup_collatenameIPKcEENS_12basic_stringIcNS_11char_traitsIcEENS_9allocatorIcEEEET_SB_c, symObjAddr: 0x2E070, symBinAddr: 0x32070, symSize: 0x234 }
  - { offset: 0x1460E9, size: 0x8, addend: 0x0, symName: __ZNKSt3__112regex_traitsIcE18__lookup_classnameIPKcEEjT_S5_bc, symObjAddr: 0x2E2A4, symBinAddr: 0x322A4, symSize: 0x14C }
  - { offset: 0x1467F9, size: 0x8, addend: 0x0, symName: __ZNSt3__111basic_regexIcNS_12regex_traitsIcEEE20__parse_class_escapeIPKcEET_S7_S7_RNS_12basic_stringIcNS_11char_traitsIcEENS_9allocatorIcEEEEPNS_20__bracket_expressionIcS2_EE, symObjAddr: 0x2DC08, symBinAddr: 0x31C08, symSize: 0x184 }
  - { offset: 0x1469A5, size: 0x8, addend: 0x0, symName: __ZNSt3__111basic_regexIcNS_12regex_traitsIcEEE18__parse_awk_escapeIPKcEET_S7_S7_PNS_12basic_stringIcNS_11char_traitsIcEENS_9allocatorIcEEEE, symObjAddr: 0x2DD8C, symBinAddr: 0x31D8C, symSize: 0x2E4 }
  - { offset: 0x146D71, size: 0x8, addend: 0x0, symName: __ZNSt3__111basic_regexIcNS_12regex_traitsIcEEE33__parse_one_char_or_coll_elem_EREIPKcEET_S7_S7_, symObjAddr: 0x2EB4C, symBinAddr: 0x32B4C, symSize: 0x158 }
  - { offset: 0x146F7C, size: 0x8, addend: 0x0, symName: __ZNSt3__111basic_regexIcNS_12regex_traitsIcEEE23__parse_QUOTED_CHAR_EREIPKcEET_S7_S7_, symObjAddr: 0x2ECA4, symBinAddr: 0x32CA4, symSize: 0xD8 }
  - { offset: 0x14728B, size: 0x8, addend: 0x0, symName: __ZNSt3__16vectorI25whisper_grammar_candidateNS_9allocatorIS1_EEE9push_backB8ne200100EOS1_, symObjAddr: 0x2F238, symBinAddr: 0x33238, symSize: 0x134 }
  - { offset: 0x1476A2, size: 0x8, addend: 0x0, symName: __ZL33whisper_grammar_reject_candidatesRKNSt3__16vectorINS0_I23whisper_grammar_elementNS_9allocatorIS1_EEEENS2_IS4_EEEERKNS0_INS0_IPKS1_NS2_ISA_EEEENS2_ISC_EEEERKNS0_I25whisper_grammar_candidateNS2_ISH_EEEE, symObjAddr: 0x2F36C, symBinAddr: 0x3336C, symSize: 0xF8 }
  - { offset: 0x147748, size: 0x8, addend: 0x0, symName: __ZL43whisper_grammar_reject_candidates_for_stackRKNSt3__16vectorINS0_I23whisper_grammar_elementNS_9allocatorIS1_EEEENS2_IS4_EEEERKNS0_IPKS1_NS2_ISA_EEEERKNS0_I25whisper_grammar_candidateNS2_ISF_EEEE, symObjAddr: 0x2F500, symBinAddr: 0x33500, symSize: 0x808 }
  - { offset: 0x149278, size: 0x8, addend: 0x0, symName: __ZNSt3__16vectorI25whisper_grammar_candidateNS_9allocatorIS1_EEE9push_backB8ne200100ERKS1_, symObjAddr: 0x2FD08, symBinAddr: 0x33D08, symSize: 0x134 }
  - { offset: 0x14969A, size: 0x8, addend: 0x0, symName: __ZNSt3__16vectorI18whisper_token_dataNS_9allocatorIS1_EEE9push_backB8ne200100EOS1_, symObjAddr: 0x2FE3C, symBinAddr: 0x33E3C, symSize: 0x15C }
  - { offset: 0x149935, size: 0x8, addend: 0x0, symName: __ZNSt3__16vectorIdNS_9allocatorIdEEE13shrink_to_fitEv, symObjAddr: 0x30290, symBinAddr: 0x34290, symSize: 0xB8 }
  - { offset: 0x14A0C0, size: 0x8, addend: 0x0, symName: __ZNSt3__128__exception_guard_exceptionsINS_29_AllocatorDestroyRangeReverseINS_9allocatorINS_6vectorI23whisper_grammar_elementNS2_IS4_EEEEEEPS6_EEED1B8ne200100Ev, symObjAddr: 0x30A08, symBinAddr: 0x34A08, symSize: 0x6C }
  - { offset: 0x14A2E3, size: 0x8, addend: 0x0, symName: __ZNSt3__128__exception_guard_exceptionsINS_29_AllocatorDestroyRangeReverseINS_9allocatorINS_6vectorIPK23whisper_grammar_elementNS2_IS6_EEEEEEPS8_EEED1B8ne200100Ev, symObjAddr: 0x30BF0, symBinAddr: 0x34BF0, symSize: 0x6C }
  - { offset: 0x14A5F7, size: 0x8, addend: 0x0, symName: __ZNSt3__16vectorI23whisper_grammar_elementNS_9allocatorIS1_EEE18__assign_with_sizeB8ne200100IPS1_S6_EEvT_T0_l, symObjAddr: 0x31040, symBinAddr: 0x35040, symSize: 0x148 }
  - { offset: 0x14B096, size: 0x8, addend: 0x0, symName: __ZNSt3__16vectorINS0_IPK23whisper_grammar_elementNS_9allocatorIS3_EEEENS4_IS6_EEE18__assign_with_sizeB8ne200100IPS6_SA_EEvT_T0_l, symObjAddr: 0x31188, symBinAddr: 0x35188, symSize: 0x258 }
  - { offset: 0x14B1AD, size: 0x8, addend: 0x0, symName: __ZNSt3__16vectorIPK23whisper_grammar_elementNS_9allocatorIS3_EEE18__assign_with_sizeB8ne200100IPS3_S8_EEvT_T0_l, symObjAddr: 0x313E0, symBinAddr: 0x353E0, symSize: 0x148 }
  - { offset: 0x14BC4C, size: 0x8, addend: 0x0, symName: __ZNSt3__16__treeINS_12__value_typeIiiEENS_19__map_value_compareIiS2_NS_4lessIiEELb1EEENS_9allocatorIS2_EEE7destroyEPNS_11__tree_nodeIS2_PvEE, symObjAddr: 0x31528, symBinAddr: 0x35528, symSize: 0x44 }
  - { offset: 0x14C177, size: 0x8, addend: 0x0, symName: __ZL13median_filterP11ggml_tensorPKS_iiPv, symObjAddr: 0x32904, symBinAddr: 0x36904, symSize: 0x388 }
  - { offset: 0x14C9E8, size: 0x8, addend: 0x0, symName: __ZL13median_filterP11ggml_tensorPKS_iiPv.cold.1, symObjAddr: 0x3A19C, symBinAddr: 0x1377AC, symSize: 0x38 }
  - { offset: 0x14CA00, size: 0x8, addend: 0x0, symName: __ZL13median_filterP11ggml_tensorPKS_iiPv.cold.4, symObjAddr: 0x3A244, symBinAddr: 0x137854, symSize: 0x38 }
  - { offset: 0x14CA18, size: 0x8, addend: 0x0, symName: __ZL13median_filterP11ggml_tensorPKS_iiPv.cold.2, symObjAddr: 0x3A1D4, symBinAddr: 0x1377E4, symSize: 0x38 }
  - { offset: 0x14CA30, size: 0x8, addend: 0x0, symName: __ZL13median_filterP11ggml_tensorPKS_iiPv.cold.3, symObjAddr: 0x3A20C, symBinAddr: 0x13781C, symSize: 0x38 }
  - { offset: 0x14CB17, size: 0x8, addend: 0x0, symName: __ZNSt3__13mapI10asr_tensorPKcNS_4lessIS1_EENS_9allocatorINS_4pairIKS1_S3_EEEEEC2B8ne200100ESt16initializer_listIS9_ERKS5_, symObjAddr: 0x32CA0, symBinAddr: 0x36CA0, symSize: 0xEC }
  - { offset: 0x14D233, size: 0x8, addend: 0x0, symName: __ZNSt3__16__treeINS_12__value_typeI10asr_systemNS_3mapI10asr_tensorPKcNS_4lessIS4_EENS_9allocatorINS_4pairIKS4_S6_EEEEEEEENS_19__map_value_compareIS2_SF_NS7_IS2_EELb1EEENS9_ISF_EEE30__emplace_hint_unique_key_argsIS2_JRKNSA_IKS2_SE_EEEEENSA_INS_15__tree_iteratorISF_PNS_11__tree_nodeISF_PvEElEEbEENS_21__tree_const_iteratorISF_SU_lEERKT_DpOT0_, symObjAddr: 0x32D8C, symBinAddr: 0x36D8C, symSize: 0xFC }
  - { offset: 0x14D797, size: 0x8, addend: 0x0, symName: __ZNSt3__16__treeINS_12__value_typeI10asr_systemNS_3mapI10asr_tensorPKcNS_4lessIS4_EENS_9allocatorINS_4pairIKS4_S6_EEEEEEEENS_19__map_value_compareIS2_SF_NS7_IS2_EELb1EEENS9_ISF_EEE12__find_equalIS2_EERPNS_16__tree_node_baseIPvEENS_21__tree_const_iteratorISF_PNS_11__tree_nodeISF_SN_EElEERPNS_15__tree_end_nodeISP_EESQ_RKT_, symObjAddr: 0x32E88, symBinAddr: 0x36E88, symSize: 0x1B0 }
  - { offset: 0x14D7FF, size: 0x8, addend: 0x0, symName: __ZNSt3__16__treeINS_12__value_typeI10asr_systemNS_3mapI10asr_tensorPKcNS_4lessIS4_EENS_9allocatorINS_4pairIKS4_S6_EEEEEEEENS_19__map_value_compareIS2_SF_NS7_IS2_EELb1EEENS9_ISF_EEE12__find_equalIS2_EERPNS_16__tree_node_baseIPvEENS_21__tree_const_iteratorISF_PNS_11__tree_nodeISF_SN_EElEERPNS_15__tree_end_nodeISP_EESQ_RKT_, symObjAddr: 0x32E88, symBinAddr: 0x36E88, symSize: 0x1B0 }
  - { offset: 0x14D81D, size: 0x8, addend: 0x0, symName: __ZNSt3__16__treeINS_12__value_typeI10asr_systemNS_3mapI10asr_tensorPKcNS_4lessIS4_EENS_9allocatorINS_4pairIKS4_S6_EEEEEEEENS_19__map_value_compareIS2_SF_NS7_IS2_EELb1EEENS9_ISF_EEE12__find_equalIS2_EERPNS_16__tree_node_baseIPvEENS_21__tree_const_iteratorISF_PNS_11__tree_nodeISF_SN_EElEERPNS_15__tree_end_nodeISP_EESQ_RKT_, symObjAddr: 0x32E88, symBinAddr: 0x36E88, symSize: 0x1B0 }
  - { offset: 0x14DB94, size: 0x8, addend: 0x0, symName: __ZNSt3__110unique_ptrINS_11__tree_nodeINS_12__value_typeI10asr_systemNS_3mapI10asr_tensorPKcNS_4lessIS5_EENS_9allocatorINS_4pairIKS5_S7_EEEEEEEEPvEENS_22__tree_node_destructorINSA_ISI_EEEEED1B8ne200100Ev, symObjAddr: 0x33038, symBinAddr: 0x37038, symSize: 0x4C }
  - { offset: 0x14E2B2, size: 0x8, addend: 0x0, symName: __ZNSt3__13mapI10asr_tensor7ggml_opNS_4lessIS1_EENS_9allocatorINS_4pairIKS1_S2_EEEEEC2B8ne200100ESt16initializer_listIS8_ERKS4_, symObjAddr: 0x330D4, symBinAddr: 0x370D4, symSize: 0xEC }
  - { offset: 0x14E678, size: 0x8, addend: 0x0, symName: __ZNSt3__16__treeINS_12__value_typeI10asr_tensor7ggml_opEENS_19__map_value_compareIS2_S4_NS_4lessIS2_EELb1EEENS_9allocatorIS4_EEE12__find_equalIS2_EERPNS_16__tree_node_baseIPvEENS_21__tree_const_iteratorIS4_PNS_11__tree_nodeIS4_SE_EElEERPNS_15__tree_end_nodeISG_EESH_RKT_, symObjAddr: 0x331C0, symBinAddr: 0x371C0, symSize: 0x1B0 }
  - { offset: 0x14E6E0, size: 0x8, addend: 0x0, symName: __ZNSt3__16__treeINS_12__value_typeI10asr_tensor7ggml_opEENS_19__map_value_compareIS2_S4_NS_4lessIS2_EELb1EEENS_9allocatorIS4_EEE12__find_equalIS2_EERPNS_16__tree_node_baseIPvEENS_21__tree_const_iteratorIS4_PNS_11__tree_nodeIS4_SE_EElEERPNS_15__tree_end_nodeISG_EESH_RKT_, symObjAddr: 0x331C0, symBinAddr: 0x371C0, symSize: 0x1B0 }
  - { offset: 0x14E6FE, size: 0x8, addend: 0x0, symName: __ZNSt3__16__treeINS_12__value_typeI10asr_tensor7ggml_opEENS_19__map_value_compareIS2_S4_NS_4lessIS2_EELb1EEENS_9allocatorIS4_EEE12__find_equalIS2_EERPNS_16__tree_node_baseIPvEENS_21__tree_const_iteratorIS4_PNS_11__tree_nodeIS4_SE_EElEERPNS_15__tree_end_nodeISG_EESH_RKT_, symObjAddr: 0x331C0, symBinAddr: 0x371C0, symSize: 0x1B0 }
  - { offset: 0x14EE57, size: 0x8, addend: 0x0, symName: __ZNSt3__13mapI10vad_tensor7ggml_opNS_4lessIS1_EENS_9allocatorINS_4pairIKS1_S2_EEEEEC2B8ne200100ESt16initializer_listIS8_ERKS4_, symObjAddr: 0x333B4, symBinAddr: 0x373B4, symSize: 0xEC }
  - { offset: 0x14F21D, size: 0x8, addend: 0x0, symName: __ZNSt3__16__treeINS_12__value_typeI10vad_tensor7ggml_opEENS_19__map_value_compareIS2_S4_NS_4lessIS2_EELb1EEENS_9allocatorIS4_EEE12__find_equalIS2_EERPNS_16__tree_node_baseIPvEENS_21__tree_const_iteratorIS4_PNS_11__tree_nodeIS4_SE_EElEERPNS_15__tree_end_nodeISG_EESH_RKT_, symObjAddr: 0x334A0, symBinAddr: 0x374A0, symSize: 0x1B0 }
  - { offset: 0x14F285, size: 0x8, addend: 0x0, symName: __ZNSt3__16__treeINS_12__value_typeI10vad_tensor7ggml_opEENS_19__map_value_compareIS2_S4_NS_4lessIS2_EELb1EEENS_9allocatorIS4_EEE12__find_equalIS2_EERPNS_16__tree_node_baseIPvEENS_21__tree_const_iteratorIS4_PNS_11__tree_nodeIS4_SE_EElEERPNS_15__tree_end_nodeISG_EESH_RKT_, symObjAddr: 0x334A0, symBinAddr: 0x374A0, symSize: 0x1B0 }
  - { offset: 0x14F2A3, size: 0x8, addend: 0x0, symName: __ZNSt3__16__treeINS_12__value_typeI10vad_tensor7ggml_opEENS_19__map_value_compareIS2_S4_NS_4lessIS2_EELb1EEENS_9allocatorIS4_EEE12__find_equalIS2_EERPNS_16__tree_node_baseIPvEENS_21__tree_const_iteratorIS4_PNS_11__tree_nodeIS4_SE_EElEERPNS_15__tree_end_nodeISG_EESH_RKT_, symObjAddr: 0x334A0, symBinAddr: 0x374A0, symSize: 0x1B0 }
  - { offset: 0x14F9FC, size: 0x8, addend: 0x0, symName: __ZNSt3__13mapI10vad_tensorPKcNS_4lessIS1_EENS_9allocatorINS_4pairIKS1_S3_EEEEEC2B8ne200100ESt16initializer_listIS9_ERKS5_, symObjAddr: 0x33694, symBinAddr: 0x37694, symSize: 0xEC }
  - { offset: 0x14FDC2, size: 0x8, addend: 0x0, symName: __ZNSt3__16__treeINS_12__value_typeI10vad_tensorPKcEENS_19__map_value_compareIS2_S5_NS_4lessIS2_EELb1EEENS_9allocatorIS5_EEE12__find_equalIS2_EERPNS_16__tree_node_baseIPvEENS_21__tree_const_iteratorIS5_PNS_11__tree_nodeIS5_SF_EElEERPNS_15__tree_end_nodeISH_EESI_RKT_, symObjAddr: 0x33780, symBinAddr: 0x37780, symSize: 0x1B0 }
  - { offset: 0x14FE2A, size: 0x8, addend: 0x0, symName: __ZNSt3__16__treeINS_12__value_typeI10vad_tensorPKcEENS_19__map_value_compareIS2_S5_NS_4lessIS2_EELb1EEENS_9allocatorIS5_EEE12__find_equalIS2_EERPNS_16__tree_node_baseIPvEENS_21__tree_const_iteratorIS5_PNS_11__tree_nodeIS5_SF_EElEERPNS_15__tree_end_nodeISH_EESI_RKT_, symObjAddr: 0x33780, symBinAddr: 0x37780, symSize: 0x1B0 }
  - { offset: 0x14FE48, size: 0x8, addend: 0x0, symName: __ZNSt3__16__treeINS_12__value_typeI10vad_tensorPKcEENS_19__map_value_compareIS2_S5_NS_4lessIS2_EELb1EEENS_9allocatorIS5_EEE12__find_equalIS2_EERPNS_16__tree_node_baseIPvEENS_21__tree_const_iteratorIS5_PNS_11__tree_nodeIS5_SF_EElEERPNS_15__tree_end_nodeISH_EESI_RKT_, symObjAddr: 0x33780, symBinAddr: 0x37780, symSize: 0x1B0 }
  - { offset: 0x150519, size: 0x8, addend: 0x0, symName: __ZNSt3__16__treeINS_12__value_typeI7e_modelNS_12basic_stringIcNS_11char_traitsIcEENS_9allocatorIcEEEEEENS_19__map_value_compareIS2_S9_NS_4lessIS2_EELb1EEENS6_IS9_EEE30__emplace_hint_unique_key_argsIS2_JRKNS_4pairIKS2_S8_EEEEENSH_INS_15__tree_iteratorIS9_PNS_11__tree_nodeIS9_PvEElEEbEENS_21__tree_const_iteratorIS9_SQ_lEERKT_DpOT0_, symObjAddr: 0x33974, symBinAddr: 0x37974, symSize: 0x100 }
  - { offset: 0x1508FE, size: 0x8, addend: 0x0, symName: __ZNSt3__16__treeINS_12__value_typeI7e_modelNS_12basic_stringIcNS_11char_traitsIcEENS_9allocatorIcEEEEEENS_19__map_value_compareIS2_S9_NS_4lessIS2_EELb1EEENS6_IS9_EEE12__find_equalIS2_EERPNS_16__tree_node_baseIPvEENS_21__tree_const_iteratorIS9_PNS_11__tree_nodeIS9_SI_EElEERPNS_15__tree_end_nodeISK_EESL_RKT_, symObjAddr: 0x33A74, symBinAddr: 0x37A74, symSize: 0x1B0 }
  - { offset: 0x150966, size: 0x8, addend: 0x0, symName: __ZNSt3__16__treeINS_12__value_typeI7e_modelNS_12basic_stringIcNS_11char_traitsIcEENS_9allocatorIcEEEEEENS_19__map_value_compareIS2_S9_NS_4lessIS2_EELb1EEENS6_IS9_EEE12__find_equalIS2_EERPNS_16__tree_node_baseIPvEENS_21__tree_const_iteratorIS9_PNS_11__tree_nodeIS9_SI_EElEERPNS_15__tree_end_nodeISK_EESL_RKT_, symObjAddr: 0x33A74, symBinAddr: 0x37A74, symSize: 0x1B0 }
  - { offset: 0x150984, size: 0x8, addend: 0x0, symName: __ZNSt3__16__treeINS_12__value_typeI7e_modelNS_12basic_stringIcNS_11char_traitsIcEENS_9allocatorIcEEEEEENS_19__map_value_compareIS2_S9_NS_4lessIS2_EELb1EEENS6_IS9_EEE12__find_equalIS2_EERPNS_16__tree_node_baseIPvEENS_21__tree_const_iteratorIS9_PNS_11__tree_nodeIS9_SI_EElEERPNS_15__tree_end_nodeISK_EESL_RKT_, symObjAddr: 0x33A74, symBinAddr: 0x37A74, symSize: 0x1B0 }
  - { offset: 0x150CFB, size: 0x8, addend: 0x0, symName: __ZNSt3__110unique_ptrINS_11__tree_nodeINS_12__value_typeI7e_modelNS_12basic_stringIcNS_11char_traitsIcEENS_9allocatorIcEEEEEEPvEENS_22__tree_node_destructorINS7_ISC_EEEEED1B8ne200100Ev, symObjAddr: 0x33C24, symBinAddr: 0x37C24, symSize: 0x60 }
  - { offset: 0x1513B0, size: 0x8, addend: 0x0, symName: __ZNSt3__13mapINS_12basic_stringIcNS_11char_traitsIcEENS_9allocatorIcEEEENS_4pairIiS6_EENS_4lessIS6_EENS4_INS7_IKS6_S8_EEEEEC2B8ne200100ESt16initializer_listISC_ERKSA_, symObjAddr: 0x33D6C, symBinAddr: 0x37D6C, symSize: 0xF0 }
  - { offset: 0x15168B, size: 0x8, addend: 0x0, symName: __ZNSt3__16__treeINS_12__value_typeINS_12basic_stringIcNS_11char_traitsIcEENS_9allocatorIcEEEENS_4pairIiS7_EEEENS_19__map_value_compareIS7_SA_NS_4lessIS7_EELb1EEENS5_ISA_EEE12__find_equalIS7_EERPNS_16__tree_node_baseIPvEENS_21__tree_const_iteratorISA_PNS_11__tree_nodeISA_SJ_EElEERPNS_15__tree_end_nodeISL_EESM_RKT_, symObjAddr: 0x33E5C, symBinAddr: 0x37E5C, symSize: 0x3F8 }
  - { offset: 0x15244D, size: 0x8, addend: 0x0, symName: __ZNSt3__16__treeINS_12__value_typeINS_12basic_stringIcNS_11char_traitsIcEENS_9allocatorIcEEEENS_4pairIiS7_EEEENS_19__map_value_compareIS7_SA_NS_4lessIS7_EELb1EEENS5_ISA_EEE16__construct_nodeIJRKNS8_IKS7_S9_EEEEENS_10unique_ptrINS_11__tree_nodeISA_PvEENS_22__tree_node_destructorINS5_ISP_EEEEEEDpOT_, symObjAddr: 0x34254, symBinAddr: 0x38254, symSize: 0xEC }
  - { offset: 0x152AD3, size: 0x8, addend: 0x0, symName: __ZNSt3__110unique_ptrINS_11__tree_nodeINS_12__value_typeINS_12basic_stringIcNS_11char_traitsIcEENS_9allocatorIcEEEENS_4pairIiS8_EEEEPvEENS_22__tree_node_destructorINS6_ISD_EEEEED1B8ne200100Ev, symObjAddr: 0x34340, symBinAddr: 0x38340, symSize: 0x6C }
  - { offset: 0x1532A9, size: 0x8, addend: 0x0, symName: __ZNSt3__13mapI30whisper_alignment_heads_preset14whisper_aheadsNS_4lessIS1_EENS_9allocatorINS_4pairIKS1_S2_EEEEEC2B8ne200100ESt16initializer_listIS8_ERKS4_, symObjAddr: 0x34424, symBinAddr: 0x38424, symSize: 0xF8 }
  - { offset: 0x15366F, size: 0x8, addend: 0x0, symName: __ZNSt3__16__treeINS_12__value_typeI30whisper_alignment_heads_preset14whisper_aheadsEENS_19__map_value_compareIS2_S4_NS_4lessIS2_EELb1EEENS_9allocatorIS4_EEE12__find_equalIS2_EERPNS_16__tree_node_baseIPvEENS_21__tree_const_iteratorIS4_PNS_11__tree_nodeIS4_SE_EElEERPNS_15__tree_end_nodeISG_EESH_RKT_, symObjAddr: 0x3451C, symBinAddr: 0x3851C, symSize: 0x1B0 }
  - { offset: 0x1536D7, size: 0x8, addend: 0x0, symName: __ZNSt3__16__treeINS_12__value_typeI30whisper_alignment_heads_preset14whisper_aheadsEENS_19__map_value_compareIS2_S4_NS_4lessIS2_EELb1EEENS_9allocatorIS4_EEE12__find_equalIS2_EERPNS_16__tree_node_baseIPvEENS_21__tree_const_iteratorIS4_PNS_11__tree_nodeIS4_SE_EElEERPNS_15__tree_end_nodeISG_EESH_RKT_, symObjAddr: 0x3451C, symBinAddr: 0x3851C, symSize: 0x1B0 }
  - { offset: 0x1536F5, size: 0x8, addend: 0x0, symName: __ZNSt3__16__treeINS_12__value_typeI30whisper_alignment_heads_preset14whisper_aheadsEENS_19__map_value_compareIS2_S4_NS_4lessIS2_EELb1EEENS_9allocatorIS4_EEE12__find_equalIS2_EERPNS_16__tree_node_baseIPvEENS_21__tree_const_iteratorIS4_PNS_11__tree_nodeIS4_SE_EElEERPNS_15__tree_end_nodeISG_EESH_RKT_, symObjAddr: 0x3451C, symBinAddr: 0x3851C, symSize: 0x1B0 }
  - { offset: 0x153F44, size: 0x8, addend: 0x0, symName: '__ZNSt3__110__function6__funcIZ18whisper_init_stateE3$_0NS_9allocatorIS2_EEFP11ggml_cgraphvEED1Ev', symObjAddr: 0x34A94, symBinAddr: 0x38A94, symSize: 0x4 }
  - { offset: 0x153F70, size: 0x8, addend: 0x0, symName: '__ZNSt3__110__function6__funcIZ18whisper_init_stateE3$_0NS_9allocatorIS2_EEFP11ggml_cgraphvEED0Ev', symObjAddr: 0x34A98, symBinAddr: 0x38A98, symSize: 0x4 }
  - { offset: 0x154087, size: 0x8, addend: 0x0, symName: '__ZNKSt3__110__function6__funcIZ18whisper_init_stateE3$_0NS_9allocatorIS2_EEFP11ggml_cgraphvEE7__cloneEv', symObjAddr: 0x34A9C, symBinAddr: 0x38A9C, symSize: 0x38 }
  - { offset: 0x1542A9, size: 0x8, addend: 0x0, symName: '__ZNKSt3__110__function6__funcIZ18whisper_init_stateE3$_0NS_9allocatorIS2_EEFP11ggml_cgraphvEE7__cloneEPNS0_6__baseIS7_EE', symObjAddr: 0x34AD4, symBinAddr: 0x38AD4, symSize: 0x18 }
  - { offset: 0x1542E0, size: 0x8, addend: 0x0, symName: '__ZNKSt3__110__function6__funcIZ18whisper_init_stateE3$_0NS_9allocatorIS2_EEFP11ggml_cgraphvEE7__cloneEPNS0_6__baseIS7_EE', symObjAddr: 0x34AD4, symBinAddr: 0x38AD4, symSize: 0x18 }
  - { offset: 0x154308, size: 0x8, addend: 0x0, symName: '__ZNKSt3__110__function6__funcIZ18whisper_init_stateE3$_0NS_9allocatorIS2_EEFP11ggml_cgraphvEE7__cloneEPNS0_6__baseIS7_EE', symObjAddr: 0x34AD4, symBinAddr: 0x38AD4, symSize: 0x18 }
  - { offset: 0x154384, size: 0x8, addend: 0x0, symName: '__ZNSt3__110__function6__funcIZ18whisper_init_stateE3$_0NS_9allocatorIS2_EEFP11ggml_cgraphvEE7destroyEv', symObjAddr: 0x34AEC, symBinAddr: 0x38AEC, symSize: 0x4 }
  - { offset: 0x1543D9, size: 0x8, addend: 0x0, symName: '__ZNSt3__110__function6__funcIZ18whisper_init_stateE3$_0NS_9allocatorIS2_EEFP11ggml_cgraphvEE18destroy_deallocateEv', symObjAddr: 0x34AF0, symBinAddr: 0x38AF0, symSize: 0x4 }
  - { offset: 0x15440E, size: 0x8, addend: 0x0, symName: '__ZNSt3__110__function6__funcIZ18whisper_init_stateE3$_0NS_9allocatorIS2_EEFP11ggml_cgraphvEE18destroy_deallocateEv', symObjAddr: 0x34AF0, symBinAddr: 0x38AF0, symSize: 0x4 }
  - { offset: 0x154433, size: 0x8, addend: 0x0, symName: '__ZNSt3__110__function6__funcIZ18whisper_init_stateE3$_0NS_9allocatorIS2_EEFP11ggml_cgraphvEE18destroy_deallocateEv', symObjAddr: 0x34AF0, symBinAddr: 0x38AF0, symSize: 0x4 }
  - { offset: 0x154469, size: 0x8, addend: 0x0, symName: '__ZNSt3__110__function6__funcIZ18whisper_init_stateE3$_0NS_9allocatorIS2_EEFP11ggml_cgraphvEE18destroy_deallocateEv', symObjAddr: 0x34AF0, symBinAddr: 0x38AF0, symSize: 0x4 }
  - { offset: 0x1544E6, size: 0x8, addend: 0x0, symName: '__ZNSt3__110__function6__funcIZ18whisper_init_stateE3$_0NS_9allocatorIS2_EEFP11ggml_cgraphvEEclEv', symObjAddr: 0x34AF4, symBinAddr: 0x38AF4, symSize: 0x10 }
  - { offset: 0x15458A, size: 0x8, addend: 0x0, symName: '__ZNKSt3__110__function6__funcIZ18whisper_init_stateE3$_0NS_9allocatorIS2_EEFP11ggml_cgraphvEE6targetERKSt9type_info', symObjAddr: 0x34B04, symBinAddr: 0x38B04, symSize: 0x64 }
  - { offset: 0x154648, size: 0x8, addend: 0x0, symName: '__ZNKSt3__110__function6__funcIZ18whisper_init_stateE3$_0NS_9allocatorIS2_EEFP11ggml_cgraphvEE11target_typeEv', symObjAddr: 0x34B68, symBinAddr: 0x38B68, symSize: 0xC }
  - { offset: 0x15466B, size: 0x8, addend: 0x0, symName: '__ZNSt3__110__function6__funcIZ18whisper_init_stateE3$_1NS_9allocatorIS2_EEFP11ggml_cgraphvEED1Ev', symObjAddr: 0x34B74, symBinAddr: 0x38B74, symSize: 0x4 }
  - { offset: 0x154697, size: 0x8, addend: 0x0, symName: '__ZNSt3__110__function6__funcIZ18whisper_init_stateE3$_1NS_9allocatorIS2_EEFP11ggml_cgraphvEED0Ev', symObjAddr: 0x34B78, symBinAddr: 0x38B78, symSize: 0x4 }
  - { offset: 0x1547AE, size: 0x8, addend: 0x0, symName: '__ZNKSt3__110__function6__funcIZ18whisper_init_stateE3$_1NS_9allocatorIS2_EEFP11ggml_cgraphvEE7__cloneEv', symObjAddr: 0x34B7C, symBinAddr: 0x38B7C, symSize: 0x38 }
  - { offset: 0x1549D0, size: 0x8, addend: 0x0, symName: '__ZNKSt3__110__function6__funcIZ18whisper_init_stateE3$_1NS_9allocatorIS2_EEFP11ggml_cgraphvEE7__cloneEPNS0_6__baseIS7_EE', symObjAddr: 0x34BB4, symBinAddr: 0x38BB4, symSize: 0x18 }
  - { offset: 0x154A07, size: 0x8, addend: 0x0, symName: '__ZNKSt3__110__function6__funcIZ18whisper_init_stateE3$_1NS_9allocatorIS2_EEFP11ggml_cgraphvEE7__cloneEPNS0_6__baseIS7_EE', symObjAddr: 0x34BB4, symBinAddr: 0x38BB4, symSize: 0x18 }
  - { offset: 0x154A2F, size: 0x8, addend: 0x0, symName: '__ZNKSt3__110__function6__funcIZ18whisper_init_stateE3$_1NS_9allocatorIS2_EEFP11ggml_cgraphvEE7__cloneEPNS0_6__baseIS7_EE', symObjAddr: 0x34BB4, symBinAddr: 0x38BB4, symSize: 0x18 }
  - { offset: 0x154AAB, size: 0x8, addend: 0x0, symName: '__ZNSt3__110__function6__funcIZ18whisper_init_stateE3$_1NS_9allocatorIS2_EEFP11ggml_cgraphvEE7destroyEv', symObjAddr: 0x34BCC, symBinAddr: 0x38BCC, symSize: 0x4 }
  - { offset: 0x154B00, size: 0x8, addend: 0x0, symName: '__ZNSt3__110__function6__funcIZ18whisper_init_stateE3$_1NS_9allocatorIS2_EEFP11ggml_cgraphvEE18destroy_deallocateEv', symObjAddr: 0x34BD0, symBinAddr: 0x38BD0, symSize: 0x4 }
  - { offset: 0x154B35, size: 0x8, addend: 0x0, symName: '__ZNSt3__110__function6__funcIZ18whisper_init_stateE3$_1NS_9allocatorIS2_EEFP11ggml_cgraphvEE18destroy_deallocateEv', symObjAddr: 0x34BD0, symBinAddr: 0x38BD0, symSize: 0x4 }
  - { offset: 0x154B5A, size: 0x8, addend: 0x0, symName: '__ZNSt3__110__function6__funcIZ18whisper_init_stateE3$_1NS_9allocatorIS2_EEFP11ggml_cgraphvEE18destroy_deallocateEv', symObjAddr: 0x34BD0, symBinAddr: 0x38BD0, symSize: 0x4 }
  - { offset: 0x154B90, size: 0x8, addend: 0x0, symName: '__ZNSt3__110__function6__funcIZ18whisper_init_stateE3$_1NS_9allocatorIS2_EEFP11ggml_cgraphvEE18destroy_deallocateEv', symObjAddr: 0x34BD0, symBinAddr: 0x38BD0, symSize: 0x4 }
  - { offset: 0x154C0D, size: 0x8, addend: 0x0, symName: '__ZNSt3__110__function6__funcIZ18whisper_init_stateE3$_1NS_9allocatorIS2_EEFP11ggml_cgraphvEEclEv', symObjAddr: 0x34BD4, symBinAddr: 0x38BD4, symSize: 0x10 }
  - { offset: 0x154CB1, size: 0x8, addend: 0x0, symName: '__ZNKSt3__110__function6__funcIZ18whisper_init_stateE3$_1NS_9allocatorIS2_EEFP11ggml_cgraphvEE6targetERKSt9type_info', symObjAddr: 0x34BE4, symBinAddr: 0x38BE4, symSize: 0x64 }
  - { offset: 0x154D6F, size: 0x8, addend: 0x0, symName: '__ZNKSt3__110__function6__funcIZ18whisper_init_stateE3$_1NS_9allocatorIS2_EEFP11ggml_cgraphvEE11target_typeEv', symObjAddr: 0x34C48, symBinAddr: 0x38C48, symSize: 0xC }
  - { offset: 0x154D92, size: 0x8, addend: 0x0, symName: '__ZNSt3__110__function6__funcIZ18whisper_init_stateE3$_2NS_9allocatorIS2_EEFP11ggml_cgraphvEED1Ev', symObjAddr: 0x34C54, symBinAddr: 0x38C54, symSize: 0x4 }
  - { offset: 0x154DBE, size: 0x8, addend: 0x0, symName: '__ZNSt3__110__function6__funcIZ18whisper_init_stateE3$_2NS_9allocatorIS2_EEFP11ggml_cgraphvEED0Ev', symObjAddr: 0x34C58, symBinAddr: 0x38C58, symSize: 0x4 }
  - { offset: 0x154ED5, size: 0x8, addend: 0x0, symName: '__ZNKSt3__110__function6__funcIZ18whisper_init_stateE3$_2NS_9allocatorIS2_EEFP11ggml_cgraphvEE7__cloneEv', symObjAddr: 0x34C5C, symBinAddr: 0x38C5C, symSize: 0x38 }
  - { offset: 0x1550F7, size: 0x8, addend: 0x0, symName: '__ZNKSt3__110__function6__funcIZ18whisper_init_stateE3$_2NS_9allocatorIS2_EEFP11ggml_cgraphvEE7__cloneEPNS0_6__baseIS7_EE', symObjAddr: 0x34C94, symBinAddr: 0x38C94, symSize: 0x18 }
  - { offset: 0x15512E, size: 0x8, addend: 0x0, symName: '__ZNKSt3__110__function6__funcIZ18whisper_init_stateE3$_2NS_9allocatorIS2_EEFP11ggml_cgraphvEE7__cloneEPNS0_6__baseIS7_EE', symObjAddr: 0x34C94, symBinAddr: 0x38C94, symSize: 0x18 }
  - { offset: 0x155156, size: 0x8, addend: 0x0, symName: '__ZNKSt3__110__function6__funcIZ18whisper_init_stateE3$_2NS_9allocatorIS2_EEFP11ggml_cgraphvEE7__cloneEPNS0_6__baseIS7_EE', symObjAddr: 0x34C94, symBinAddr: 0x38C94, symSize: 0x18 }
  - { offset: 0x1551D2, size: 0x8, addend: 0x0, symName: '__ZNSt3__110__function6__funcIZ18whisper_init_stateE3$_2NS_9allocatorIS2_EEFP11ggml_cgraphvEE7destroyEv', symObjAddr: 0x34CAC, symBinAddr: 0x38CAC, symSize: 0x4 }
  - { offset: 0x155227, size: 0x8, addend: 0x0, symName: '__ZNSt3__110__function6__funcIZ18whisper_init_stateE3$_2NS_9allocatorIS2_EEFP11ggml_cgraphvEE18destroy_deallocateEv', symObjAddr: 0x34CB0, symBinAddr: 0x38CB0, symSize: 0x4 }
  - { offset: 0x15525C, size: 0x8, addend: 0x0, symName: '__ZNSt3__110__function6__funcIZ18whisper_init_stateE3$_2NS_9allocatorIS2_EEFP11ggml_cgraphvEE18destroy_deallocateEv', symObjAddr: 0x34CB0, symBinAddr: 0x38CB0, symSize: 0x4 }
  - { offset: 0x155281, size: 0x8, addend: 0x0, symName: '__ZNSt3__110__function6__funcIZ18whisper_init_stateE3$_2NS_9allocatorIS2_EEFP11ggml_cgraphvEE18destroy_deallocateEv', symObjAddr: 0x34CB0, symBinAddr: 0x38CB0, symSize: 0x4 }
  - { offset: 0x1552B7, size: 0x8, addend: 0x0, symName: '__ZNSt3__110__function6__funcIZ18whisper_init_stateE3$_2NS_9allocatorIS2_EEFP11ggml_cgraphvEE18destroy_deallocateEv', symObjAddr: 0x34CB0, symBinAddr: 0x38CB0, symSize: 0x4 }
  - { offset: 0x155334, size: 0x8, addend: 0x0, symName: '__ZNSt3__110__function6__funcIZ18whisper_init_stateE3$_2NS_9allocatorIS2_EEFP11ggml_cgraphvEEclEv', symObjAddr: 0x34CB4, symBinAddr: 0x38CB4, symSize: 0x10 }
  - { offset: 0x1553D8, size: 0x8, addend: 0x0, symName: '__ZNKSt3__110__function6__funcIZ18whisper_init_stateE3$_2NS_9allocatorIS2_EEFP11ggml_cgraphvEE6targetERKSt9type_info', symObjAddr: 0x34CC4, symBinAddr: 0x38CC4, symSize: 0x64 }
  - { offset: 0x155496, size: 0x8, addend: 0x0, symName: '__ZNKSt3__110__function6__funcIZ18whisper_init_stateE3$_2NS_9allocatorIS2_EEFP11ggml_cgraphvEE11target_typeEv', symObjAddr: 0x34D28, symBinAddr: 0x38D28, symSize: 0xC }
  - { offset: 0x1554B9, size: 0x8, addend: 0x0, symName: '__ZNSt3__110__function6__funcIZ18whisper_init_stateE3$_3NS_9allocatorIS2_EEFP11ggml_cgraphvEED1Ev', symObjAddr: 0x34D34, symBinAddr: 0x38D34, symSize: 0x4 }
  - { offset: 0x1554E5, size: 0x8, addend: 0x0, symName: '__ZNSt3__110__function6__funcIZ18whisper_init_stateE3$_3NS_9allocatorIS2_EEFP11ggml_cgraphvEED0Ev', symObjAddr: 0x34D38, symBinAddr: 0x38D38, symSize: 0x4 }
  - { offset: 0x1555FC, size: 0x8, addend: 0x0, symName: '__ZNKSt3__110__function6__funcIZ18whisper_init_stateE3$_3NS_9allocatorIS2_EEFP11ggml_cgraphvEE7__cloneEv', symObjAddr: 0x34D3C, symBinAddr: 0x38D3C, symSize: 0x38 }
  - { offset: 0x15581E, size: 0x8, addend: 0x0, symName: '__ZNKSt3__110__function6__funcIZ18whisper_init_stateE3$_3NS_9allocatorIS2_EEFP11ggml_cgraphvEE7__cloneEPNS0_6__baseIS7_EE', symObjAddr: 0x34D74, symBinAddr: 0x38D74, symSize: 0x18 }
  - { offset: 0x155855, size: 0x8, addend: 0x0, symName: '__ZNKSt3__110__function6__funcIZ18whisper_init_stateE3$_3NS_9allocatorIS2_EEFP11ggml_cgraphvEE7__cloneEPNS0_6__baseIS7_EE', symObjAddr: 0x34D74, symBinAddr: 0x38D74, symSize: 0x18 }
  - { offset: 0x15587D, size: 0x8, addend: 0x0, symName: '__ZNKSt3__110__function6__funcIZ18whisper_init_stateE3$_3NS_9allocatorIS2_EEFP11ggml_cgraphvEE7__cloneEPNS0_6__baseIS7_EE', symObjAddr: 0x34D74, symBinAddr: 0x38D74, symSize: 0x18 }
  - { offset: 0x1558F9, size: 0x8, addend: 0x0, symName: '__ZNSt3__110__function6__funcIZ18whisper_init_stateE3$_3NS_9allocatorIS2_EEFP11ggml_cgraphvEE7destroyEv', symObjAddr: 0x34D8C, symBinAddr: 0x38D8C, symSize: 0x4 }
  - { offset: 0x15594E, size: 0x8, addend: 0x0, symName: '__ZNSt3__110__function6__funcIZ18whisper_init_stateE3$_3NS_9allocatorIS2_EEFP11ggml_cgraphvEE18destroy_deallocateEv', symObjAddr: 0x34D90, symBinAddr: 0x38D90, symSize: 0x4 }
  - { offset: 0x155983, size: 0x8, addend: 0x0, symName: '__ZNSt3__110__function6__funcIZ18whisper_init_stateE3$_3NS_9allocatorIS2_EEFP11ggml_cgraphvEE18destroy_deallocateEv', symObjAddr: 0x34D90, symBinAddr: 0x38D90, symSize: 0x4 }
  - { offset: 0x1559A8, size: 0x8, addend: 0x0, symName: '__ZNSt3__110__function6__funcIZ18whisper_init_stateE3$_3NS_9allocatorIS2_EEFP11ggml_cgraphvEE18destroy_deallocateEv', symObjAddr: 0x34D90, symBinAddr: 0x38D90, symSize: 0x4 }
  - { offset: 0x1559DE, size: 0x8, addend: 0x0, symName: '__ZNSt3__110__function6__funcIZ18whisper_init_stateE3$_3NS_9allocatorIS2_EEFP11ggml_cgraphvEE18destroy_deallocateEv', symObjAddr: 0x34D90, symBinAddr: 0x38D90, symSize: 0x4 }
  - { offset: 0x155A82, size: 0x8, addend: 0x0, symName: '__ZNSt3__110__function6__funcIZ18whisper_init_stateE3$_3NS_9allocatorIS2_EEFP11ggml_cgraphvEEclEv', symObjAddr: 0x34D94, symBinAddr: 0x38D94, symSize: 0x78 }
  - { offset: 0x155AAC, size: 0x8, addend: 0x0, symName: '__ZNSt3__110__function6__funcIZ18whisper_init_stateE3$_3NS_9allocatorIS2_EEFP11ggml_cgraphvEEclEv', symObjAddr: 0x34D94, symBinAddr: 0x38D94, symSize: 0x78 }
  - { offset: 0x155ACC, size: 0x8, addend: 0x0, symName: '__ZNSt3__110__function6__funcIZ18whisper_init_stateE3$_3NS_9allocatorIS2_EEFP11ggml_cgraphvEEclEv', symObjAddr: 0x34D94, symBinAddr: 0x38D94, symSize: 0x78 }
  - { offset: 0x155AEB, size: 0x8, addend: 0x0, symName: '__ZNSt3__110__function6__funcIZ18whisper_init_stateE3$_3NS_9allocatorIS2_EEFP11ggml_cgraphvEEclEv', symObjAddr: 0x34D94, symBinAddr: 0x38D94, symSize: 0x78 }
  - { offset: 0x155B0B, size: 0x8, addend: 0x0, symName: '__ZNSt3__110__function6__funcIZ18whisper_init_stateE3$_3NS_9allocatorIS2_EEFP11ggml_cgraphvEEclEv', symObjAddr: 0x34D94, symBinAddr: 0x38D94, symSize: 0x78 }
  - { offset: 0x155B2A, size: 0x8, addend: 0x0, symName: '__ZNSt3__110__function6__funcIZ18whisper_init_stateE3$_3NS_9allocatorIS2_EEFP11ggml_cgraphvEEclEv', symObjAddr: 0x34D94, symBinAddr: 0x38D94, symSize: 0x78 }
  - { offset: 0x155BD7, size: 0x8, addend: 0x0, symName: '__ZNKSt3__110__function6__funcIZ18whisper_init_stateE3$_3NS_9allocatorIS2_EEFP11ggml_cgraphvEE6targetERKSt9type_info', symObjAddr: 0x34E0C, symBinAddr: 0x38E0C, symSize: 0x64 }
  - { offset: 0x155C95, size: 0x8, addend: 0x0, symName: '__ZNKSt3__110__function6__funcIZ18whisper_init_stateE3$_3NS_9allocatorIS2_EEFP11ggml_cgraphvEE11target_typeEv', symObjAddr: 0x34E70, symBinAddr: 0x38E70, symSize: 0xC }
  - { offset: 0x155F92, size: 0x8, addend: 0x0, symName: __ZNSt3__16vectorI15whisper_segmentNS_9allocatorIS1_EEE20__throw_length_errorB8ne200100Ev, symObjAddr: 0x36798, symBinAddr: 0x3A798, symSize: 0x14 }
  - { offset: 0x155FAA, size: 0x8, addend: 0x0, symName: __ZNSt3__16vectorINS_12basic_stringIcNS_11char_traitsIcEENS_9allocatorIcEEEENS4_IS6_EEE16__init_with_sizeB8ne200100IPKS6_SB_EEvT_T0_m, symObjAddr: 0x367AC, symBinAddr: 0x3A7AC, symSize: 0x138 }
  - { offset: 0x1560FA, size: 0x8, addend: 0x0, symName: __ZNSt3__16vectorINS_12basic_stringIcNS_11char_traitsIcEENS_9allocatorIcEEEENS4_IS6_EEE16__init_with_sizeB8ne200100IPKS6_SB_EEvT_T0_m, symObjAddr: 0x367AC, symBinAddr: 0x3A7AC, symSize: 0x138 }
  - { offset: 0x15655C, size: 0x8, addend: 0x0, symName: __ZNSt3__128__exception_guard_exceptionsINS_6vectorINS_12basic_stringIcNS_11char_traitsIcEENS_9allocatorIcEEEENS5_IS7_EEE16__destroy_vectorEED1B8ne200100Ev, symObjAddr: 0x368E4, symBinAddr: 0x3A8E4, symSize: 0x80 }
  - { offset: 0x1567F6, size: 0x8, addend: 0x0, symName: __ZNSt3__128__exception_guard_exceptionsINS_29_AllocatorDestroyRangeReverseINS_9allocatorINS_12basic_stringIcNS_11char_traitsIcEENS2_IcEEEEEEPS7_EEED1B8ne200100Ev, symObjAddr: 0x36964, symBinAddr: 0x3A964, symSize: 0x5C }
  - { offset: 0x157A17, size: 0x8, addend: 0x0, symName: __ZNSt3__110unique_ptrINS_5tupleIJNS0_INS_15__thread_structENS_14default_deleteIS2_EEEEPFiP15whisper_contextP13whisper_state19whisper_full_paramsPKfiES7_S9_SA_SC_iEEENS3_ISF_EEED1B8ne200100Ev, symObjAddr: 0x39CFC, symBinAddr: 0x3DCFC, symSize: 0x48 }
  - { offset: 0x1586C7, size: 0x8, addend: 0x0, symName: __GLOBAL__sub_I_whisper.cpp, symObjAddr: 0x3C270, symBinAddr: 0x3DF00, symSize: 0x221C }
  - { offset: 0x162E9C, size: 0x8, addend: 0x0, symName: _OUTLINED_FUNCTION_0, symObjAddr: 0x3A27C, symBinAddr: 0x3DEAC, symSize: 0x18 }
  - { offset: 0x162EB4, size: 0x8, addend: 0x0, symName: _OUTLINED_FUNCTION_1, symObjAddr: 0x3A294, symBinAddr: 0x3DEC4, symSize: 0x8 }
  - { offset: 0x162ECC, size: 0x8, addend: 0x0, symName: _OUTLINED_FUNCTION_2, symObjAddr: 0x3A29C, symBinAddr: 0x3DECC, symSize: 0xC }
  - { offset: 0x162EE4, size: 0x8, addend: 0x0, symName: _OUTLINED_FUNCTION_3, symObjAddr: 0x3A2A8, symBinAddr: 0x3DED8, symSize: 0x8 }
  - { offset: 0x162EFC, size: 0x8, addend: 0x0, symName: _OUTLINED_FUNCTION_4, symObjAddr: 0x3A2B0, symBinAddr: 0x3DEE0, symSize: 0x8 }
  - { offset: 0x162F14, size: 0x8, addend: 0x0, symName: _OUTLINED_FUNCTION_5, symObjAddr: 0x3A2B8, symBinAddr: 0x3DEE8, symSize: 0x8 }
  - { offset: 0x162F2C, size: 0x8, addend: 0x0, symName: _OUTLINED_FUNCTION_6, symObjAddr: 0x3A2C0, symBinAddr: 0x3DEF0, symSize: 0x8 }
  - { offset: 0x162F44, size: 0x8, addend: 0x0, symName: _OUTLINED_FUNCTION_7, symObjAddr: 0x3A2C8, symBinAddr: 0x3DEF8, symSize: 0x8 }
  - { offset: 0x169710, size: 0x8, addend: 0x0, symName: __ZNSt3__14__fs10filesystemdvB8ne200100ERKNS1_4pathES4_, symObjAddr: 0x30B8, symBinAddr: 0x4308C, symSize: 0xB8 }
  - { offset: 0x17847A, size: 0x8, addend: 0x0, symName: _ggml_backend_register, symObjAddr: 0x0, symBinAddr: 0x4011C, symSize: 0xD0 }
  - { offset: 0x1785F9, size: 0x8, addend: 0x0, symName: __ZN21ggml_backend_registry16register_backendEP16ggml_backend_regNSt3__110unique_ptrIv17dl_handle_deleterEE, symObjAddr: 0xD0, symBinAddr: 0x401EC, symSize: 0x194 }
  - { offset: 0x178D56, size: 0x8, addend: 0x0, symName: __ZN21ggml_backend_registryC2Ev, symObjAddr: 0x2AA8, symBinAddr: 0x42BC4, symSize: 0x104 }
  - { offset: 0x179244, size: 0x8, addend: 0x0, symName: __ZNSt3__110unique_ptrIv17dl_handle_deleterED1B8ne200100Ev, symObjAddr: 0x264, symBinAddr: 0x40380, symSize: 0x34 }
  - { offset: 0x1798A4, size: 0x8, addend: 0x0, symName: __ZNSt3__16vectorI22ggml_backend_reg_entryNS_9allocatorIS1_EEE24__emplace_back_slow_pathIJS1_EEEPS1_DpOT_, symObjAddr: 0x2D18, symBinAddr: 0x42E24, symSize: 0x1DC }
  - { offset: 0x179F30, size: 0x8, addend: 0x0, symName: __ZNSt3__16vectorIP19ggml_backend_deviceNS_9allocatorIS2_EEE20__throw_length_errorB8ne200100Ev, symObjAddr: 0x2FA4, symBinAddr: 0x43014, symSize: 0x14 }
  - { offset: 0x179F53, size: 0x8, addend: 0x0, symName: __ZN22ggml_backend_reg_entryD1Ev, symObjAddr: 0x2C30, symBinAddr: 0x42D3C, symSize: 0x34 }
  - { offset: 0x17A023, size: 0x8, addend: 0x0, symName: _ggml_backend_device_register, symObjAddr: 0x298, symBinAddr: 0x403B4, symSize: 0x158 }
  - { offset: 0x17A42E, size: 0x8, addend: 0x0, symName: _ggml_backend_reg_count, symObjAddr: 0x3F0, symBinAddr: 0x4050C, symSize: 0x98 }
  - { offset: 0x17A4D2, size: 0x8, addend: 0x0, symName: _ggml_backend_reg_get, symObjAddr: 0x488, symBinAddr: 0x405A4, symSize: 0x148 }
  - { offset: 0x17A644, size: 0x8, addend: 0x0, symName: _ggml_backend_reg_by_name, symObjAddr: 0x5D0, symBinAddr: 0x406EC, symSize: 0x134 }
  - { offset: 0x17A7E5, size: 0x8, addend: 0x0, symName: _ggml_backend_dev_count, symObjAddr: 0x704, symBinAddr: 0x40820, symSize: 0x98 }
  - { offset: 0x17A87E, size: 0x8, addend: 0x0, symName: _ggml_backend_dev_get, symObjAddr: 0x79C, symBinAddr: 0x408B8, symSize: 0x144 }
  - { offset: 0x17A982, size: 0x8, addend: 0x0, symName: _ggml_backend_dev_by_name, symObjAddr: 0x8E0, symBinAddr: 0x409FC, symSize: 0x138 }
  - { offset: 0x17AB02, size: 0x8, addend: 0x0, symName: _ggml_backend_dev_by_type, symObjAddr: 0xA18, symBinAddr: 0x40B34, symSize: 0xE8 }
  - { offset: 0x17AC11, size: 0x8, addend: 0x0, symName: _ggml_backend_init_by_name, symObjAddr: 0xB00, symBinAddr: 0x40C1C, symSize: 0x34 }
  - { offset: 0x17AC9C, size: 0x8, addend: 0x0, symName: _ggml_backend_init_by_type, symObjAddr: 0xB34, symBinAddr: 0x40C50, symSize: 0x34 }
  - { offset: 0x17AD10, size: 0x8, addend: 0x0, symName: _ggml_backend_init_best, symObjAddr: 0xB68, symBinAddr: 0x40C84, symSize: 0x3C }
  - { offset: 0x17AFDF, size: 0x8, addend: 0x0, symName: _ggml_backend_load, symObjAddr: 0xBA4, symBinAddr: 0x40CC0, symSize: 0x110 }
  - { offset: 0x17B2BD, size: 0x8, addend: 0x0, symName: __ZNSt3__112basic_stringIcNS_11char_traitsIcEENS_9allocatorIcEEE6appendB8ne200100IPKcLi0EEERS5_T_SA_, symObjAddr: 0x31E0, symBinAddr: 0x431B4, symSize: 0x200 }
  - { offset: 0x17BC62, size: 0x8, addend: 0x0, symName: __ZN21ggml_backend_registry12load_backendERKNSt3__14__fs10filesystem4pathEb, symObjAddr: 0xCB4, symBinAddr: 0x40DD0, symSize: 0x560 }
  - { offset: 0x17D54D, size: 0x8, addend: 0x0, symName: _ggml_backend_unload, symObjAddr: 0x1214, symBinAddr: 0x41330, symSize: 0x98 }
  - { offset: 0x17D5C9, size: 0x8, addend: 0x0, symName: __ZN21ggml_backend_registry14unload_backendEP16ggml_backend_regb, symObjAddr: 0x12AC, symBinAddr: 0x413C8, symSize: 0x1DC }
  - { offset: 0x17E0D6, size: 0x8, addend: 0x0, symName: _ggml_backend_load_all, symObjAddr: 0x1488, symBinAddr: 0x415A4, symSize: 0x8 }
  - { offset: 0x17E103, size: 0x8, addend: 0x0, symName: _ggml_backend_load_all_from_path, symObjAddr: 0x1490, symBinAddr: 0x415AC, symSize: 0xF8 }
  - { offset: 0x17E26F, size: 0x8, addend: 0x0, symName: __ZL22ggml_backend_load_bestPKcbS0_, symObjAddr: 0x1588, symBinAddr: 0x416A4, symSize: 0x151C }
  - { offset: 0x18719C, size: 0x8, addend: 0x0, symName: __ZNSt3__14__fs10filesystem18directory_iteratorD1B8ne200100Ev, symObjAddr: 0x3054, symBinAddr: 0x43028, symSize: 0x64 }
  - { offset: 0x1871A7, size: 0x8, addend: 0x0, symName: __ZNSt3__16vectorINS_4__fs10filesystem4pathENS_9allocatorIS3_EEE20__throw_length_errorB8ne200100Ev, symObjAddr: 0x33E0, symBinAddr: 0x433B4, symSize: 0x14 }
  - { offset: 0x1871CA, size: 0x8, addend: 0x0, symName: __ZNSt3__14__fs10filesystem18directory_iteratorD1B8ne200100Ev, symObjAddr: 0x3054, symBinAddr: 0x43028, symSize: 0x64 }
  - { offset: 0x187299, size: 0x8, addend: 0x0, symName: __ZNSt3__16vectorINS_4__fs10filesystem4pathENS_9allocatorIS3_EEED1B8ne200100Ev, symObjAddr: 0x3170, symBinAddr: 0x43144, symSize: 0x70 }
  - { offset: 0x187557, size: 0x8, addend: 0x0, symName: __ZN21ggml_backend_registryD1Ev, symObjAddr: 0x2AA4, symBinAddr: 0x42BC0, symSize: 0x4 }
  - { offset: 0x187583, size: 0x8, addend: 0x0, symName: __ZN21ggml_backend_registryD1Ev, symObjAddr: 0x2AA4, symBinAddr: 0x42BC0, symSize: 0x4 }
  - { offset: 0x187597, size: 0x8, addend: 0x0, symName: __ZN21ggml_backend_registryD2Ev, symObjAddr: 0x2C64, symBinAddr: 0x42D70, symSize: 0xB4 }
  - { offset: 0x187A9C, size: 0x8, addend: 0x0, symName: __ZNSt3__16vectorI22ggml_backend_reg_entryNS_9allocatorIS1_EEED1B8ne200100Ev, symObjAddr: 0x2BAC, symBinAddr: 0x42CC8, symSize: 0x74 }
  - { offset: 0x187F0E, size: 0x8, addend: 0x0, symName: __ZNSt3__16vectorI22ggml_backend_reg_entryNS_9allocatorIS1_EEE20__throw_length_errorB8ne200100Ev, symObjAddr: 0x2EF4, symBinAddr: 0x43000, symSize: 0x14 }
  - { offset: 0x18A226, size: 0x8, addend: 0x0, symName: _ggml_op_can_inplace, symObjAddr: 0x0, symBinAddr: 0x433C8, symSize: 0x44 }
  - { offset: 0x18B499, size: 0x8, addend: 0x0, symName: _ggml_op_can_inplace, symObjAddr: 0x0, symBinAddr: 0x433C8, symSize: 0x44 }
  - { offset: 0x18B502, size: 0x8, addend: 0x0, symName: _ggml_tallocr_new, symObjAddr: 0x44, symBinAddr: 0x4340C, symSize: 0x58 }
  - { offset: 0x18B5B8, size: 0x8, addend: 0x0, symName: _ggml_tallocr_alloc, symObjAddr: 0x9C, symBinAddr: 0x43464, symSize: 0xD0 }
  - { offset: 0x18B676, size: 0x8, addend: 0x0, symName: _ggml_gallocr_new_n, symObjAddr: 0x16C, symBinAddr: 0x43534, symSize: 0x208 }
  - { offset: 0x18B73E, size: 0x8, addend: 0x0, symName: _ggml_gallocr_new_n, symObjAddr: 0x16C, symBinAddr: 0x43534, symSize: 0x208 }
  - { offset: 0x18B920, size: 0x8, addend: 0x0, symName: _ggml_gallocr_new, symObjAddr: 0x374, symBinAddr: 0x4373C, symSize: 0x28 }
  - { offset: 0x18B986, size: 0x8, addend: 0x0, symName: _ggml_dyn_tallocr_reset, symObjAddr: 0x1124, symBinAddr: 0x444EC, symSize: 0xE0 }
  - { offset: 0x18BAAF, size: 0x8, addend: 0x0, symName: _ggml_gallocr_new, symObjAddr: 0x374, symBinAddr: 0x4373C, symSize: 0x28 }
  - { offset: 0x18BB20, size: 0x8, addend: 0x0, symName: _ggml_gallocr_free, symObjAddr: 0x39C, symBinAddr: 0x43764, symSize: 0x144 }
  - { offset: 0x18BCBC, size: 0x8, addend: 0x0, symName: _ggml_vbuffer_free, symObjAddr: 0x4E0, symBinAddr: 0x438A8, symSize: 0xAC }
  - { offset: 0x18C1CD, size: 0x8, addend: 0x0, symName: _ggml_gallocr_reserve_n, symObjAddr: 0x58C, symBinAddr: 0x43954, symSize: 0xB98 }
  - { offset: 0x18D0F4, size: 0x8, addend: 0x0, symName: _ggml_dyn_tallocr_reset, symObjAddr: 0x1124, symBinAddr: 0x444EC, symSize: 0xE0 }
  - { offset: 0x18D12A, size: 0x8, addend: 0x0, symName: _ggml_gallocr_allocate_node, symObjAddr: 0x1EC0, symBinAddr: 0x45288, symSize: 0x644 }
  - { offset: 0x18D7C1, size: 0x8, addend: 0x0, symName: _ggml_gallocr_free_extra_space, symObjAddr: 0x2504, symBinAddr: 0x458CC, symSize: 0x1B0 }
  - { offset: 0x18D7EE, size: 0x8, addend: 0x0, symName: _ggml_dyn_tallocr_free_tensor, symObjAddr: 0x26B4, symBinAddr: 0x45A7C, symSize: 0x1BC }
  - { offset: 0x18DA0D, size: 0x8, addend: 0x0, symName: _ggml_gallocr_hash_get, symObjAddr: 0x1204, symBinAddr: 0x445CC, symSize: 0x94 }
  - { offset: 0x18DAFF, size: 0x8, addend: 0x0, symName: _ggml_gallocr_reserve, symObjAddr: 0x1298, symBinAddr: 0x44660, symSize: 0xC }
  - { offset: 0x18DCEA, size: 0x8, addend: 0x0, symName: _ggml_gallocr_alloc_graph, symObjAddr: 0x12A4, symBinAddr: 0x4466C, symSize: 0x654 }
  - { offset: 0x18E35A, size: 0x8, addend: 0x0, symName: _ggml_gallocr_get_buffer_size, symObjAddr: 0x18F8, symBinAddr: 0x44CC0, symSize: 0x21C }
  - { offset: 0x18E4D7, size: 0x8, addend: 0x0, symName: _ggml_backend_alloc_ctx_tensors_from_buft, symObjAddr: 0x1B14, symBinAddr: 0x44EDC, symSize: 0x1A8 }
  - { offset: 0x18E4EB, size: 0x8, addend: 0x0, symName: _ggml_backend_alloc_ctx_tensors_from_buft, symObjAddr: 0x1B14, symBinAddr: 0x44EDC, symSize: 0x1A8 }
  - { offset: 0x18E721, size: 0x8, addend: 0x0, symName: _alloc_tensor_range, symObjAddr: 0x1CBC, symBinAddr: 0x45084, symSize: 0x1D8 }
  - { offset: 0x18E78E, size: 0x8, addend: 0x0, symName: _alloc_tensor_range, symObjAddr: 0x1CBC, symBinAddr: 0x45084, symSize: 0x1D8 }
  - { offset: 0x18EB82, size: 0x8, addend: 0x0, symName: _ggml_backend_alloc_ctx_tensors, symObjAddr: 0x1E94, symBinAddr: 0x4525C, symSize: 0x2C }
  - { offset: 0x18EE0D, size: 0x8, addend: 0x0, symName: _ggml_gallocr_free_extra_space, symObjAddr: 0x2504, symBinAddr: 0x458CC, symSize: 0x1B0 }
  - { offset: 0x18F0E9, size: 0x8, addend: 0x0, symName: _ggml_dyn_tallocr_free_tensor, symObjAddr: 0x26B4, symBinAddr: 0x45A7C, symSize: 0x1BC }
  - { offset: 0x18F172, size: 0x8, addend: 0x0, symName: _ggml_backend_buft_name, symObjAddr: 0x0, symBinAddr: 0x45C38, symSize: 0x3C }
  - { offset: 0x18F193, size: 0x8, addend: 0x0, symName: _ggml_backend_cpu_buffer_type, symObjAddr: 0x77A8, symBinAddr: 0x4D3E0, symSize: 0xC }
  - { offset: 0x18F1BB, size: 0x8, addend: 0x0, symName: __ZZ28ggml_backend_cpu_buffer_typeE28ggml_backend_cpu_buffer_type, symObjAddr: 0x8AB0, symBinAddr: 0x1748A0, symSize: 0x0 }
  - { offset: 0x18F24E, size: 0x8, addend: 0x0, symName: __ZL27ggml_backend_multi_buffer_i, symObjAddr: 0x89D8, symBinAddr: 0x171768, symSize: 0x0 }
  - { offset: 0x18F26E, size: 0x8, addend: 0x0, symName: __ZL25ggml_backend_cpu_buffer_i, symObjAddr: 0x8A68, symBinAddr: 0x1717F8, symSize: 0x0 }
  - { offset: 0x18F289, size: 0x8, addend: 0x0, symName: __ZL34ggml_backend_cpu_buffer_from_ptr_i, symObjAddr: 0x8A20, symBinAddr: 0x1717B0, symSize: 0x0 }
  - { offset: 0x19264C, size: 0x8, addend: 0x0, symName: _ggml_backend_buft_name, symObjAddr: 0x0, symBinAddr: 0x45C38, symSize: 0x3C }
  - { offset: 0x19267A, size: 0x8, addend: 0x0, symName: _ggml_backend_buft_alloc_buffer, symObjAddr: 0x3C, symBinAddr: 0x45C74, symSize: 0x84 }
  - { offset: 0x1926ED, size: 0x8, addend: 0x0, symName: _ggml_backend_buft_alloc_buffer, symObjAddr: 0x3C, symBinAddr: 0x45C74, symSize: 0x84 }
  - { offset: 0x19275B, size: 0x8, addend: 0x0, symName: _ggml_backend_buffer_init, symObjAddr: 0xC0, symBinAddr: 0x45CF8, symSize: 0x58 }
  - { offset: 0x19276E, size: 0x8, addend: 0x0, symName: _ggml_backend_buffer_init, symObjAddr: 0xC0, symBinAddr: 0x45CF8, symSize: 0x58 }
  - { offset: 0x1927B5, size: 0x8, addend: 0x0, symName: _ggml_backend_buft_get_alignment, symObjAddr: 0x118, symBinAddr: 0x45D50, symSize: 0x3C }
  - { offset: 0x1927E3, size: 0x8, addend: 0x0, symName: _ggml_backend_buft_get_max_size, symObjAddr: 0x154, symBinAddr: 0x45D8C, symSize: 0x48 }
  - { offset: 0x1927F6, size: 0x8, addend: 0x0, symName: _ggml_backend_buft_get_max_size, symObjAddr: 0x154, symBinAddr: 0x45D8C, symSize: 0x48 }
  - { offset: 0x192824, size: 0x8, addend: 0x0, symName: _ggml_backend_buft_get_alloc_size, symObjAddr: 0x19C, symBinAddr: 0x45DD4, symSize: 0x48 }
  - { offset: 0x192837, size: 0x8, addend: 0x0, symName: _ggml_backend_buft_get_alloc_size, symObjAddr: 0x19C, symBinAddr: 0x45DD4, symSize: 0x48 }
  - { offset: 0x192892, size: 0x8, addend: 0x0, symName: _ggml_backend_buft_is_host, symObjAddr: 0x1E4, symBinAddr: 0x45E1C, symSize: 0x48 }
  - { offset: 0x1928B8, size: 0x8, addend: 0x0, symName: _ggml_backend_buft_is_host, symObjAddr: 0x1E4, symBinAddr: 0x45E1C, symSize: 0x48 }
  - { offset: 0x1928E6, size: 0x8, addend: 0x0, symName: _ggml_backend_buft_get_device, symObjAddr: 0x22C, symBinAddr: 0x45E64, symSize: 0x3C }
  - { offset: 0x1928F9, size: 0x8, addend: 0x0, symName: _ggml_backend_buft_get_device, symObjAddr: 0x22C, symBinAddr: 0x45E64, symSize: 0x3C }
  - { offset: 0x192927, size: 0x8, addend: 0x0, symName: _ggml_backend_buffer_name, symObjAddr: 0x268, symBinAddr: 0x45EA0, symSize: 0x70 }
  - { offset: 0x19296C, size: 0x8, addend: 0x0, symName: _ggml_backend_buffer_name, symObjAddr: 0x268, symBinAddr: 0x45EA0, symSize: 0x70 }
  - { offset: 0x1929ED, size: 0x8, addend: 0x0, symName: _ggml_backend_buffer_get_type, symObjAddr: 0x2D8, symBinAddr: 0x45F10, symSize: 0x3C }
  - { offset: 0x192A00, size: 0x8, addend: 0x0, symName: _ggml_backend_buffer_get_type, symObjAddr: 0x2D8, symBinAddr: 0x45F10, symSize: 0x3C }
  - { offset: 0x192A22, size: 0x8, addend: 0x0, symName: _ggml_backend_buffer_free, symObjAddr: 0x314, symBinAddr: 0x45F4C, symSize: 0x34 }
  - { offset: 0x192A36, size: 0x8, addend: 0x0, symName: _ggml_backend_buffer_free, symObjAddr: 0x314, symBinAddr: 0x45F4C, symSize: 0x34 }
  - { offset: 0x192A61, size: 0x8, addend: 0x0, symName: _ggml_backend_buffer_get_size, symObjAddr: 0x348, symBinAddr: 0x45F80, symSize: 0x3C }
  - { offset: 0x192A83, size: 0x8, addend: 0x0, symName: _ggml_backend_buffer_get_base, symObjAddr: 0x384, symBinAddr: 0x45FBC, symSize: 0x88 }
  - { offset: 0x192A96, size: 0x8, addend: 0x0, symName: _ggml_backend_buffer_get_base, symObjAddr: 0x384, symBinAddr: 0x45FBC, symSize: 0x88 }
  - { offset: 0x192AE4, size: 0x8, addend: 0x0, symName: _ggml_backend_buffer_init_tensor, symObjAddr: 0x40C, symBinAddr: 0x46044, symSize: 0x48 }
  - { offset: 0x192AF8, size: 0x8, addend: 0x0, symName: _ggml_backend_buffer_init_tensor, symObjAddr: 0x40C, symBinAddr: 0x46044, symSize: 0x48 }
  - { offset: 0x192B30, size: 0x8, addend: 0x0, symName: _ggml_backend_buffer_clear, symObjAddr: 0x454, symBinAddr: 0x4608C, symSize: 0x48 }
  - { offset: 0x192B44, size: 0x8, addend: 0x0, symName: _ggml_backend_buffer_clear, symObjAddr: 0x454, symBinAddr: 0x4608C, symSize: 0x48 }
  - { offset: 0x192B7C, size: 0x8, addend: 0x0, symName: _ggml_backend_buffer_get_alignment, symObjAddr: 0x49C, symBinAddr: 0x460D4, symSize: 0x70 }
  - { offset: 0x192BA9, size: 0x8, addend: 0x0, symName: _ggml_backend_buffer_get_alignment, symObjAddr: 0x49C, symBinAddr: 0x460D4, symSize: 0x70 }
  - { offset: 0x192C2A, size: 0x8, addend: 0x0, symName: _ggml_backend_buffer_get_max_size, symObjAddr: 0x50C, symBinAddr: 0x46144, symSize: 0x84 }
  - { offset: 0x192C56, size: 0x8, addend: 0x0, symName: _ggml_backend_buffer_get_max_size, symObjAddr: 0x50C, symBinAddr: 0x46144, symSize: 0x84 }
  - { offset: 0x192CD7, size: 0x8, addend: 0x0, symName: _ggml_backend_buffer_get_alloc_size, symObjAddr: 0x590, symBinAddr: 0x461C8, symSize: 0x84 }
  - { offset: 0x192D1D, size: 0x8, addend: 0x0, symName: _ggml_backend_buffer_get_alloc_size, symObjAddr: 0x590, symBinAddr: 0x461C8, symSize: 0x84 }
  - { offset: 0x192DB4, size: 0x8, addend: 0x0, symName: _ggml_backend_buffer_is_host, symObjAddr: 0x614, symBinAddr: 0x4624C, symSize: 0x84 }
  - { offset: 0x192DE0, size: 0x8, addend: 0x0, symName: _ggml_backend_buffer_is_host, symObjAddr: 0x614, symBinAddr: 0x4624C, symSize: 0x84 }
  - { offset: 0x192E55, size: 0x8, addend: 0x0, symName: _ggml_backend_buffer_set_usage, symObjAddr: 0x698, symBinAddr: 0x462D0, symSize: 0x9C }
  - { offset: 0x192EC3, size: 0x8, addend: 0x0, symName: _ggml_backend_buffer_set_usage, symObjAddr: 0x698, symBinAddr: 0x462D0, symSize: 0x9C }
  - { offset: 0x192F7C, size: 0x8, addend: 0x0, symName: _ggml_backend_buffer_is_multi_buffer, symObjAddr: 0x734, symBinAddr: 0x4636C, symSize: 0x4C }
  - { offset: 0x192F90, size: 0x8, addend: 0x0, symName: _ggml_backend_buffer_is_multi_buffer, symObjAddr: 0x734, symBinAddr: 0x4636C, symSize: 0x4C }
  - { offset: 0x192FB2, size: 0x8, addend: 0x0, symName: _ggml_backend_multi_buffer_set_usage, symObjAddr: 0x780, symBinAddr: 0x463B8, symSize: 0xBC }
  - { offset: 0x192FC6, size: 0x8, addend: 0x0, symName: _ggml_backend_multi_buffer_set_usage, symObjAddr: 0x780, symBinAddr: 0x463B8, symSize: 0xBC }
  - { offset: 0x193061, size: 0x8, addend: 0x0, symName: _ggml_backend_buffer_get_usage, symObjAddr: 0x83C, symBinAddr: 0x46474, symSize: 0x3C }
  - { offset: 0x193075, size: 0x8, addend: 0x0, symName: _ggml_backend_buffer_get_usage, symObjAddr: 0x83C, symBinAddr: 0x46474, symSize: 0x3C }
  - { offset: 0x193097, size: 0x8, addend: 0x0, symName: _ggml_backend_buffer_reset, symObjAddr: 0x878, symBinAddr: 0x464B0, symSize: 0x44 }
  - { offset: 0x1930AB, size: 0x8, addend: 0x0, symName: _ggml_backend_buffer_reset, symObjAddr: 0x878, symBinAddr: 0x464B0, symSize: 0x44 }
  - { offset: 0x1930E1, size: 0x8, addend: 0x0, symName: _ggml_backend_buffer_copy_tensor, symObjAddr: 0x8BC, symBinAddr: 0x464F4, symSize: 0x2C }
  - { offset: 0x1930F5, size: 0x8, addend: 0x0, symName: _ggml_backend_buffer_copy_tensor, symObjAddr: 0x8BC, symBinAddr: 0x464F4, symSize: 0x2C }
  - { offset: 0x193134, size: 0x8, addend: 0x0, symName: _ggml_backend_guid, symObjAddr: 0x8E8, symBinAddr: 0x46520, symSize: 0xC }
  - { offset: 0x19315F, size: 0x8, addend: 0x0, symName: _ggml_backend_name, symObjAddr: 0x8F4, symBinAddr: 0x4652C, symSize: 0x18 }
  - { offset: 0x19318A, size: 0x8, addend: 0x0, symName: _ggml_backend_free, symObjAddr: 0x90C, symBinAddr: 0x46544, symSize: 0x10 }
  - { offset: 0x1931D6, size: 0x8, addend: 0x0, symName: _ggml_backend_get_default_buffer_type, symObjAddr: 0x91C, symBinAddr: 0x46554, symSize: 0x70 }
  - { offset: 0x193233, size: 0x8, addend: 0x0, symName: _ggml_backend_dev_buffer_type, symObjAddr: 0x98C, symBinAddr: 0x465C4, symSize: 0x3C }
  - { offset: 0x193247, size: 0x8, addend: 0x0, symName: _ggml_backend_dev_buffer_type, symObjAddr: 0x98C, symBinAddr: 0x465C4, symSize: 0x3C }
  - { offset: 0x193275, size: 0x8, addend: 0x0, symName: _ggml_backend_alloc_buffer, symObjAddr: 0x9C8, symBinAddr: 0x46600, symSize: 0xE8 }
  - { offset: 0x1932C6, size: 0x8, addend: 0x0, symName: _ggml_backend_alloc_buffer, symObjAddr: 0x9C8, symBinAddr: 0x46600, symSize: 0xE8 }
  - { offset: 0x1933D2, size: 0x8, addend: 0x0, symName: _ggml_backend_get_alignment, symObjAddr: 0xAB0, symBinAddr: 0x466E8, symSize: 0xA0 }
  - { offset: 0x1933E5, size: 0x8, addend: 0x0, symName: _ggml_backend_get_alignment, symObjAddr: 0xAB0, symBinAddr: 0x466E8, symSize: 0xA0 }
  - { offset: 0x1934A1, size: 0x8, addend: 0x0, symName: _ggml_backend_get_max_size, symObjAddr: 0xB50, symBinAddr: 0x46788, symSize: 0xB4 }
  - { offset: 0x1934B4, size: 0x8, addend: 0x0, symName: _ggml_backend_get_max_size, symObjAddr: 0xB50, symBinAddr: 0x46788, symSize: 0xB4 }
  - { offset: 0x193570, size: 0x8, addend: 0x0, symName: _ggml_backend_tensor_set_async, symObjAddr: 0xC04, symBinAddr: 0x4683C, symSize: 0x1CC }
  - { offset: 0x1935CB, size: 0x8, addend: 0x0, symName: _ggml_backend_tensor_set_async, symObjAddr: 0xC04, symBinAddr: 0x4683C, symSize: 0x1CC }
  - { offset: 0x193738, size: 0x8, addend: 0x0, symName: _ggml_backend_tensor_set, symObjAddr: 0xDD0, symBinAddr: 0x46A08, symSize: 0x138 }
  - { offset: 0x19374C, size: 0x8, addend: 0x0, symName: _ggml_backend_tensor_set, symObjAddr: 0xDD0, symBinAddr: 0x46A08, symSize: 0x138 }
  - { offset: 0x1937FD, size: 0x8, addend: 0x0, symName: _ggml_backend_tensor_get_async, symObjAddr: 0xF08, symBinAddr: 0x46B40, symSize: 0x1CC }
  - { offset: 0x193859, size: 0x8, addend: 0x0, symName: _ggml_backend_tensor_get_async, symObjAddr: 0xF08, symBinAddr: 0x46B40, symSize: 0x1CC }
  - { offset: 0x1939CC, size: 0x8, addend: 0x0, symName: _ggml_backend_tensor_get, symObjAddr: 0x10D4, symBinAddr: 0x46D0C, symSize: 0x138 }
  - { offset: 0x1939E0, size: 0x8, addend: 0x0, symName: _ggml_backend_tensor_get, symObjAddr: 0x10D4, symBinAddr: 0x46D0C, symSize: 0x138 }
  - { offset: 0x193A91, size: 0x8, addend: 0x0, symName: _ggml_backend_tensor_memset, symObjAddr: 0x120C, symBinAddr: 0x46E44, symSize: 0x160 }
  - { offset: 0x193AA5, size: 0x8, addend: 0x0, symName: _ggml_backend_tensor_memset, symObjAddr: 0x120C, symBinAddr: 0x46E44, symSize: 0x160 }
  - { offset: 0x193B93, size: 0x8, addend: 0x0, symName: _ggml_backend_synchronize, symObjAddr: 0x136C, symBinAddr: 0x46FA4, symSize: 0x44 }
  - { offset: 0x193BA7, size: 0x8, addend: 0x0, symName: _ggml_backend_synchronize, symObjAddr: 0x136C, symBinAddr: 0x46FA4, symSize: 0x44 }
  - { offset: 0x193BD5, size: 0x8, addend: 0x0, symName: _ggml_backend_graph_plan_create, symObjAddr: 0x13B0, symBinAddr: 0x46FE8, symSize: 0x6C }
  - { offset: 0x193BE9, size: 0x8, addend: 0x0, symName: _ggml_backend_graph_plan_create, symObjAddr: 0x13B0, symBinAddr: 0x46FE8, symSize: 0x6C }
  - { offset: 0x193C4D, size: 0x8, addend: 0x0, symName: _ggml_backend_graph_plan_free, symObjAddr: 0x141C, symBinAddr: 0x47054, symSize: 0x6C }
  - { offset: 0x193C61, size: 0x8, addend: 0x0, symName: _ggml_backend_graph_plan_free, symObjAddr: 0x141C, symBinAddr: 0x47054, symSize: 0x6C }
  - { offset: 0x193CC1, size: 0x8, addend: 0x0, symName: _ggml_backend_graph_plan_compute, symObjAddr: 0x1488, symBinAddr: 0x470C0, symSize: 0x6C }
  - { offset: 0x193CD5, size: 0x8, addend: 0x0, symName: _ggml_backend_graph_plan_compute, symObjAddr: 0x1488, symBinAddr: 0x470C0, symSize: 0x6C }
  - { offset: 0x193D39, size: 0x8, addend: 0x0, symName: _ggml_backend_graph_compute, symObjAddr: 0x14F4, symBinAddr: 0x4712C, symSize: 0x6C }
  - { offset: 0x193D8B, size: 0x8, addend: 0x0, symName: _ggml_backend_graph_compute, symObjAddr: 0x14F4, symBinAddr: 0x4712C, symSize: 0x6C }
  - { offset: 0x193E23, size: 0x8, addend: 0x0, symName: _ggml_backend_graph_compute_async, symObjAddr: 0x1560, symBinAddr: 0x47198, symSize: 0x3C }
  - { offset: 0x193E37, size: 0x8, addend: 0x0, symName: _ggml_backend_graph_compute_async, symObjAddr: 0x1560, symBinAddr: 0x47198, symSize: 0x3C }
  - { offset: 0x193E6F, size: 0x8, addend: 0x0, symName: _ggml_backend_supports_op, symObjAddr: 0x159C, symBinAddr: 0x471D4, symSize: 0x70 }
  - { offset: 0x193EAA, size: 0x8, addend: 0x0, symName: _ggml_backend_supports_op, symObjAddr: 0x159C, symBinAddr: 0x471D4, symSize: 0x70 }
  - { offset: 0x193F1C, size: 0x8, addend: 0x0, symName: _ggml_backend_dev_supports_op, symObjAddr: 0x160C, symBinAddr: 0x47244, symSize: 0x3C }
  - { offset: 0x193F30, size: 0x8, addend: 0x0, symName: _ggml_backend_dev_supports_op, symObjAddr: 0x160C, symBinAddr: 0x47244, symSize: 0x3C }
  - { offset: 0x193F68, size: 0x8, addend: 0x0, symName: _ggml_backend_supports_buft, symObjAddr: 0x1648, symBinAddr: 0x47280, symSize: 0x70 }
  - { offset: 0x193FA3, size: 0x8, addend: 0x0, symName: _ggml_backend_supports_buft, symObjAddr: 0x1648, symBinAddr: 0x47280, symSize: 0x70 }
  - { offset: 0x194015, size: 0x8, addend: 0x0, symName: _ggml_backend_dev_supports_buft, symObjAddr: 0x16B8, symBinAddr: 0x472F0, symSize: 0x3C }
  - { offset: 0x194029, size: 0x8, addend: 0x0, symName: _ggml_backend_dev_supports_buft, symObjAddr: 0x16B8, symBinAddr: 0x472F0, symSize: 0x3C }
  - { offset: 0x194061, size: 0x8, addend: 0x0, symName: _ggml_backend_offload_op, symObjAddr: 0x16F4, symBinAddr: 0x4732C, symSize: 0x84 }
  - { offset: 0x19409C, size: 0x8, addend: 0x0, symName: _ggml_backend_offload_op, symObjAddr: 0x16F4, symBinAddr: 0x4732C, symSize: 0x84 }
  - { offset: 0x19410E, size: 0x8, addend: 0x0, symName: _ggml_backend_dev_offload_op, symObjAddr: 0x1778, symBinAddr: 0x473B0, symSize: 0x48 }
  - { offset: 0x194122, size: 0x8, addend: 0x0, symName: _ggml_backend_dev_offload_op, symObjAddr: 0x1778, symBinAddr: 0x473B0, symSize: 0x48 }
  - { offset: 0x19415A, size: 0x8, addend: 0x0, symName: _ggml_backend_get_device, symObjAddr: 0x17C0, symBinAddr: 0x473F8, symSize: 0x3C }
  - { offset: 0x19416E, size: 0x8, addend: 0x0, symName: _ggml_backend_get_device, symObjAddr: 0x17C0, symBinAddr: 0x473F8, symSize: 0x3C }
  - { offset: 0x194190, size: 0x8, addend: 0x0, symName: _ggml_backend_tensor_copy, symObjAddr: 0x17FC, symBinAddr: 0x47434, symSize: 0x250 }
  - { offset: 0x194224, size: 0x8, addend: 0x0, symName: _ggml_backend_tensor_copy, symObjAddr: 0x17FC, symBinAddr: 0x47434, symSize: 0x250 }
  - { offset: 0x19453D, size: 0x8, addend: 0x0, symName: _ggml_backend_tensor_copy_async, symObjAddr: 0x1A4C, symBinAddr: 0x47684, symSize: 0x1A0 }
  - { offset: 0x19456F, size: 0x8, addend: 0x0, symName: _ggml_backend_tensor_copy_async, symObjAddr: 0x1A4C, symBinAddr: 0x47684, symSize: 0x1A0 }
  - { offset: 0x1946C8, size: 0x8, addend: 0x0, symName: _ggml_backend_event_new, symObjAddr: 0x1BEC, symBinAddr: 0x47824, symSize: 0x18 }
  - { offset: 0x1946DC, size: 0x8, addend: 0x0, symName: _ggml_backend_event_new, symObjAddr: 0x1BEC, symBinAddr: 0x47824, symSize: 0x18 }
  - { offset: 0x194707, size: 0x8, addend: 0x0, symName: _ggml_backend_event_free, symObjAddr: 0x1C04, symBinAddr: 0x4783C, symSize: 0x18 }
  - { offset: 0x194732, size: 0x8, addend: 0x0, symName: _ggml_backend_event_record, symObjAddr: 0x1C1C, symBinAddr: 0x47854, symSize: 0x78 }
  - { offset: 0x194781, size: 0x8, addend: 0x0, symName: _ggml_backend_event_synchronize, symObjAddr: 0x1C94, symBinAddr: 0x478CC, symSize: 0x74 }
  - { offset: 0x194795, size: 0x8, addend: 0x0, symName: _ggml_backend_event_synchronize, symObjAddr: 0x1C94, symBinAddr: 0x478CC, symSize: 0x74 }
  - { offset: 0x1947DA, size: 0x8, addend: 0x0, symName: _ggml_backend_event_wait, symObjAddr: 0x1D08, symBinAddr: 0x47940, symSize: 0x6C }
  - { offset: 0x1947EE, size: 0x8, addend: 0x0, symName: _ggml_backend_event_wait, symObjAddr: 0x1D08, symBinAddr: 0x47940, symSize: 0x6C }
  - { offset: 0x19483D, size: 0x8, addend: 0x0, symName: _ggml_backend_dev_name, symObjAddr: 0x1D74, symBinAddr: 0x479AC, symSize: 0x3C }
  - { offset: 0x194851, size: 0x8, addend: 0x0, symName: _ggml_backend_dev_name, symObjAddr: 0x1D74, symBinAddr: 0x479AC, symSize: 0x3C }
  - { offset: 0x19488D, size: 0x8, addend: 0x0, symName: _ggml_backend_dev_description, symObjAddr: 0x1DB0, symBinAddr: 0x479E8, symSize: 0x3C }
  - { offset: 0x1948A1, size: 0x8, addend: 0x0, symName: _ggml_backend_dev_description, symObjAddr: 0x1DB0, symBinAddr: 0x479E8, symSize: 0x3C }
  - { offset: 0x1948DD, size: 0x8, addend: 0x0, symName: _ggml_backend_dev_memory, symObjAddr: 0x1DEC, symBinAddr: 0x47A24, symSize: 0x3C }
  - { offset: 0x1948F1, size: 0x8, addend: 0x0, symName: _ggml_backend_dev_memory, symObjAddr: 0x1DEC, symBinAddr: 0x47A24, symSize: 0x3C }
  - { offset: 0x19494B, size: 0x8, addend: 0x0, symName: _ggml_backend_dev_type, symObjAddr: 0x1E28, symBinAddr: 0x47A60, symSize: 0x3C }
  - { offset: 0x19495F, size: 0x8, addend: 0x0, symName: _ggml_backend_dev_type, symObjAddr: 0x1E28, symBinAddr: 0x47A60, symSize: 0x3C }
  - { offset: 0x19498D, size: 0x8, addend: 0x0, symName: _ggml_backend_dev_get_props, symObjAddr: 0x1E64, symBinAddr: 0x47A9C, symSize: 0x18 }
  - { offset: 0x1949A1, size: 0x8, addend: 0x0, symName: _ggml_backend_dev_get_props, symObjAddr: 0x1E64, symBinAddr: 0x47A9C, symSize: 0x18 }
  - { offset: 0x1949F4, size: 0x8, addend: 0x0, symName: _ggml_backend_dev_backend_reg, symObjAddr: 0x1E7C, symBinAddr: 0x47AB4, symSize: 0x3C }
  - { offset: 0x194A24, size: 0x8, addend: 0x0, symName: _ggml_backend_dev_init, symObjAddr: 0x1EB8, symBinAddr: 0x47AF0, symSize: 0x3C }
  - { offset: 0x194A38, size: 0x8, addend: 0x0, symName: _ggml_backend_dev_init, symObjAddr: 0x1EB8, symBinAddr: 0x47AF0, symSize: 0x3C }
  - { offset: 0x194A85, size: 0x8, addend: 0x0, symName: _ggml_backend_dev_host_buffer_type, symObjAddr: 0x1EF4, symBinAddr: 0x47B2C, symSize: 0x48 }
  - { offset: 0x194A99, size: 0x8, addend: 0x0, symName: _ggml_backend_dev_host_buffer_type, symObjAddr: 0x1EF4, symBinAddr: 0x47B2C, symSize: 0x48 }
  - { offset: 0x194AD5, size: 0x8, addend: 0x0, symName: _ggml_backend_dev_buffer_from_host_ptr, symObjAddr: 0x1F3C, symBinAddr: 0x47B74, symSize: 0x3C }
  - { offset: 0x194AE9, size: 0x8, addend: 0x0, symName: _ggml_backend_dev_buffer_from_host_ptr, symObjAddr: 0x1F3C, symBinAddr: 0x47B74, symSize: 0x3C }
  - { offset: 0x194B58, size: 0x8, addend: 0x0, symName: _ggml_backend_reg_name, symObjAddr: 0x1F78, symBinAddr: 0x47BB0, symSize: 0x3C }
  - { offset: 0x194B6C, size: 0x8, addend: 0x0, symName: _ggml_backend_reg_name, symObjAddr: 0x1F78, symBinAddr: 0x47BB0, symSize: 0x3C }
  - { offset: 0x194BA8, size: 0x8, addend: 0x0, symName: _ggml_backend_reg_dev_count, symObjAddr: 0x1FB4, symBinAddr: 0x47BEC, symSize: 0x3C }
  - { offset: 0x194BBC, size: 0x8, addend: 0x0, symName: _ggml_backend_reg_dev_count, symObjAddr: 0x1FB4, symBinAddr: 0x47BEC, symSize: 0x3C }
  - { offset: 0x194BF8, size: 0x8, addend: 0x0, symName: _ggml_backend_reg_dev_get, symObjAddr: 0x1FF0, symBinAddr: 0x47C28, symSize: 0x3C }
  - { offset: 0x194C0C, size: 0x8, addend: 0x0, symName: _ggml_backend_reg_dev_get, symObjAddr: 0x1FF0, symBinAddr: 0x47C28, symSize: 0x3C }
  - { offset: 0x194C59, size: 0x8, addend: 0x0, symName: _ggml_backend_reg_get_proc_address, symObjAddr: 0x202C, symBinAddr: 0x47C64, symSize: 0x48 }
  - { offset: 0x194C6D, size: 0x8, addend: 0x0, symName: _ggml_backend_reg_get_proc_address, symObjAddr: 0x202C, symBinAddr: 0x47C64, symSize: 0x48 }
  - { offset: 0x194CBA, size: 0x8, addend: 0x0, symName: _ggml_backend_multi_buffer_alloc_buffer, symObjAddr: 0x2074, symBinAddr: 0x47CAC, symSize: 0x100 }
  - { offset: 0x194CE7, size: 0x8, addend: 0x0, symName: _ggml_backend_multi_buffer_alloc_buffer, symObjAddr: 0x2074, symBinAddr: 0x47CAC, symSize: 0x100 }
  - { offset: 0x194DF7, size: 0x8, addend: 0x0, symName: __ZL37ggml_backend_multi_buffer_free_bufferP19ggml_backend_buffer, symObjAddr: 0x2174, symBinAddr: 0x47DAC, symSize: 0xA8 }
  - { offset: 0x194E20, size: 0x8, addend: 0x0, symName: __ZL37ggml_backend_multi_buffer_free_bufferP19ggml_backend_buffer, symObjAddr: 0x2174, symBinAddr: 0x47DAC, symSize: 0xA8 }
  - { offset: 0x194ECA, size: 0x8, addend: 0x0, symName: _ggml_backend_sched_split_graph, symObjAddr: 0x221C, symBinAddr: 0x47E54, symSize: 0x225C }
  - { offset: 0x1952DB, size: 0x8, addend: 0x0, symName: _ggml_backend_sched_split_graph, symObjAddr: 0x221C, symBinAddr: 0x47E54, symSize: 0x225C }
  - { offset: 0x198064, size: 0x8, addend: 0x0, symName: __ZL38ggml_backend_sched_backend_id_from_curP18ggml_backend_schedP11ggml_tensor, symObjAddr: 0x4478, symBinAddr: 0x4A0B0, symSize: 0x458 }
  - { offset: 0x198099, size: 0x8, addend: 0x0, symName: __ZL38ggml_backend_sched_backend_id_from_curP18ggml_backend_schedP11ggml_tensor, symObjAddr: 0x4478, symBinAddr: 0x4A0B0, symSize: 0x458 }
  - { offset: 0x19837E, size: 0x8, addend: 0x0, symName: __ZL35ggml_backend_sched_buffer_supportedP18ggml_backend_schedP11ggml_tensori, symObjAddr: 0x48D0, symBinAddr: 0x4A508, symSize: 0x1A8 }
  - { offset: 0x198391, size: 0x8, addend: 0x0, symName: __ZL35ggml_backend_sched_buffer_supportedP18ggml_backend_schedP11ggml_tensori, symObjAddr: 0x48D0, symBinAddr: 0x4A508, symSize: 0x1A8 }
  - { offset: 0x1985CF, size: 0x8, addend: 0x0, symName: _ggml_backend_sched_new, symObjAddr: 0x4A78, symBinAddr: 0x4A6B0, symSize: 0x4BC }
  - { offset: 0x1986E7, size: 0x8, addend: 0x0, symName: __ZL38ggml_backend_sched_backend_from_bufferP18ggml_backend_schedPK11ggml_tensorS3_, symObjAddr: 0x79C0, symBinAddr: 0x4D5F8, symSize: 0x150 }
  - { offset: 0x1988D3, size: 0x8, addend: 0x0, symName: _ggml_backend_sched_new, symObjAddr: 0x4A78, symBinAddr: 0x4A6B0, symSize: 0x4BC }
  - { offset: 0x198D37, size: 0x8, addend: 0x0, symName: _ggml_backend_sched_reset, symObjAddr: 0x4F34, symBinAddr: 0x4AB6C, symSize: 0x9C }
  - { offset: 0x198DE5, size: 0x8, addend: 0x0, symName: _ggml_backend_sched_reset, symObjAddr: 0x4F34, symBinAddr: 0x4AB6C, symSize: 0x9C }
  - { offset: 0x198E1E, size: 0x8, addend: 0x0, symName: _ggml_backend_sched_free, symObjAddr: 0x4FD0, symBinAddr: 0x4AC08, symSize: 0x108 }
  - { offset: 0x198E49, size: 0x8, addend: 0x0, symName: _ggml_backend_sched_free, symObjAddr: 0x4FD0, symBinAddr: 0x4AC08, symSize: 0x108 }
  - { offset: 0x198FE3, size: 0x8, addend: 0x0, symName: _ggml_backend_sched_reserve, symObjAddr: 0x50D8, symBinAddr: 0x4AD10, symSize: 0x178 }
  - { offset: 0x199103, size: 0x8, addend: 0x0, symName: _ggml_backend_sched_synchronize, symObjAddr: 0x5250, symBinAddr: 0x4AE88, symSize: 0xC4 }
  - { offset: 0x199138, size: 0x8, addend: 0x0, symName: _ggml_backend_sched_synchronize, symObjAddr: 0x5250, symBinAddr: 0x4AE88, symSize: 0xC4 }
  - { offset: 0x1991A7, size: 0x8, addend: 0x0, symName: _ggml_backend_sched_alloc_graph, symObjAddr: 0x5314, symBinAddr: 0x4AF4C, symSize: 0x248 }
  - { offset: 0x199217, size: 0x8, addend: 0x0, symName: _ggml_backend_sched_alloc_graph, symObjAddr: 0x5314, symBinAddr: 0x4AF4C, symSize: 0x248 }
  - { offset: 0x199395, size: 0x8, addend: 0x0, symName: _ggml_backend_sched_graph_compute, symObjAddr: 0x555C, symBinAddr: 0x4B194, symSize: 0xD0 }
  - { offset: 0x1993C0, size: 0x8, addend: 0x0, symName: _ggml_backend_sched_graph_compute, symObjAddr: 0x555C, symBinAddr: 0x4B194, symSize: 0xD0 }
  - { offset: 0x199497, size: 0x8, addend: 0x0, symName: _ggml_backend_sched_graph_compute_async, symObjAddr: 0x562C, symBinAddr: 0x4B264, symSize: 0xDB8 }
  - { offset: 0x1994AB, size: 0x8, addend: 0x0, symName: _ggml_backend_sched_graph_compute_async, symObjAddr: 0x562C, symBinAddr: 0x4B264, symSize: 0xDB8 }
  - { offset: 0x19B3E8, size: 0x8, addend: 0x0, symName: _ggml_backend_sched_set_eval_callback, symObjAddr: 0x63E4, symBinAddr: 0x4C01C, symSize: 0x40 }
  - { offset: 0x19B436, size: 0x8, addend: 0x0, symName: _ggml_backend_sched_get_n_splits, symObjAddr: 0x6424, symBinAddr: 0x4C05C, symSize: 0x3C }
  - { offset: 0x19B44A, size: 0x8, addend: 0x0, symName: _ggml_backend_sched_get_n_splits, symObjAddr: 0x6424, symBinAddr: 0x4C05C, symSize: 0x3C }
  - { offset: 0x19B47A, size: 0x8, addend: 0x0, symName: _ggml_backend_sched_get_n_copies, symObjAddr: 0x6460, symBinAddr: 0x4C098, symSize: 0x3C }
  - { offset: 0x19B48E, size: 0x8, addend: 0x0, symName: _ggml_backend_sched_get_n_copies, symObjAddr: 0x6460, symBinAddr: 0x4C098, symSize: 0x3C }
  - { offset: 0x19B4BE, size: 0x8, addend: 0x0, symName: _ggml_backend_sched_get_n_backends, symObjAddr: 0x649C, symBinAddr: 0x4C0D4, symSize: 0x3C }
  - { offset: 0x19B4D2, size: 0x8, addend: 0x0, symName: _ggml_backend_sched_get_n_backends, symObjAddr: 0x649C, symBinAddr: 0x4C0D4, symSize: 0x3C }
  - { offset: 0x19B502, size: 0x8, addend: 0x0, symName: _ggml_backend_sched_get_backend, symObjAddr: 0x64D8, symBinAddr: 0x4C110, symSize: 0x7C }
  - { offset: 0x19B516, size: 0x8, addend: 0x0, symName: _ggml_backend_sched_get_backend, symObjAddr: 0x64D8, symBinAddr: 0x4C110, symSize: 0x7C }
  - { offset: 0x19B56E, size: 0x8, addend: 0x0, symName: _ggml_backend_sched_get_buffer_type, symObjAddr: 0x6554, symBinAddr: 0x4C18C, symSize: 0xA0 }
  - { offset: 0x19B5BD, size: 0x8, addend: 0x0, symName: _ggml_backend_sched_get_buffer_type, symObjAddr: 0x6554, symBinAddr: 0x4C18C, symSize: 0xA0 }
  - { offset: 0x19B666, size: 0x8, addend: 0x0, symName: _ggml_backend_sched_get_buffer_size, symObjAddr: 0x65F4, symBinAddr: 0x4C22C, symSize: 0xA0 }
  - { offset: 0x19B67A, size: 0x8, addend: 0x0, symName: _ggml_backend_sched_get_buffer_size, symObjAddr: 0x65F4, symBinAddr: 0x4C22C, symSize: 0xA0 }
  - { offset: 0x19B731, size: 0x8, addend: 0x0, symName: _ggml_backend_sched_set_tensor_backend, symObjAddr: 0x6694, symBinAddr: 0x4C2CC, symSize: 0x11C }
  - { offset: 0x19B75C, size: 0x8, addend: 0x0, symName: _ggml_backend_sched_set_tensor_backend, symObjAddr: 0x6694, symBinAddr: 0x4C2CC, symSize: 0x11C }
  - { offset: 0x19B8D5, size: 0x8, addend: 0x0, symName: _ggml_backend_sched_get_tensor_backend, symObjAddr: 0x67B0, symBinAddr: 0x4C3E8, symSize: 0xE0 }
  - { offset: 0x19B8E9, size: 0x8, addend: 0x0, symName: _ggml_backend_sched_get_tensor_backend, symObjAddr: 0x67B0, symBinAddr: 0x4C3E8, symSize: 0xE0 }
  - { offset: 0x19B9E2, size: 0x8, addend: 0x0, symName: _ggml_backend_view_init, symObjAddr: 0x6890, symBinAddr: 0x4C4C8, symSize: 0x11C }
  - { offset: 0x19BA1A, size: 0x8, addend: 0x0, symName: _ggml_backend_view_init, symObjAddr: 0x6890, symBinAddr: 0x4C4C8, symSize: 0x11C }
  - { offset: 0x19BAD9, size: 0x8, addend: 0x0, symName: _ggml_backend_tensor_alloc, symObjAddr: 0x69AC, symBinAddr: 0x4C5E4, symSize: 0x258 }
  - { offset: 0x19BB36, size: 0x8, addend: 0x0, symName: _ggml_backend_tensor_alloc, symObjAddr: 0x69AC, symBinAddr: 0x4C5E4, symSize: 0x258 }
  - { offset: 0x19BD9A, size: 0x8, addend: 0x0, symName: _ggml_backend_graph_copy, symObjAddr: 0x6C04, symBinAddr: 0x4C83C, symSize: 0x2AC }
  - { offset: 0x19BDAE, size: 0x8, addend: 0x0, symName: _ggml_backend_graph_copy, symObjAddr: 0x6C04, symBinAddr: 0x4C83C, symSize: 0x2AC }
  - { offset: 0x19C1AC, size: 0x8, addend: 0x0, symName: __ZL21graph_copy_dup_tensor13ggml_hash_setPP11ggml_tensorP12ggml_contextS4_S1_, symObjAddr: 0x6EB0, symBinAddr: 0x4CAE8, symSize: 0x3F0 }
  - { offset: 0x19C1CD, size: 0x8, addend: 0x0, symName: __ZL21graph_copy_dup_tensor13ggml_hash_setPP11ggml_tensorP12ggml_contextS4_S1_, symObjAddr: 0x6EB0, symBinAddr: 0x4CAE8, symSize: 0x3F0 }
  - { offset: 0x19C61C, size: 0x8, addend: 0x0, symName: __ZL22graph_copy_init_tensorP13ggml_hash_setPP11ggml_tensorPbS2_, symObjAddr: 0x72A0, symBinAddr: 0x4CED8, symSize: 0x1F0 }
  - { offset: 0x19C652, size: 0x8, addend: 0x0, symName: __ZL22graph_copy_init_tensorP13ggml_hash_setPP11ggml_tensorPbS2_, symObjAddr: 0x72A0, symBinAddr: 0x4CED8, symSize: 0x1F0 }
  - { offset: 0x19C931, size: 0x8, addend: 0x0, symName: _ggml_backend_graph_copy_free, symObjAddr: 0x7490, symBinAddr: 0x4D0C8, symSize: 0x48 }
  - { offset: 0x19C9BF, size: 0x8, addend: 0x0, symName: _ggml_backend_graph_copy_free, symObjAddr: 0x7490, symBinAddr: 0x4D0C8, symSize: 0x48 }
  - { offset: 0x19CAB7, size: 0x8, addend: 0x0, symName: _ggml_backend_compare_graph_backend, symObjAddr: 0x74D8, symBinAddr: 0x4D110, symSize: 0x2D0 }
  - { offset: 0x19D11A, size: 0x8, addend: 0x0, symName: _ggml_backend_cpu_buffer_type, symObjAddr: 0x77A8, symBinAddr: 0x4D3E0, symSize: 0xC }
  - { offset: 0x19D12E, size: 0x8, addend: 0x0, symName: __ZL37ggml_backend_cpu_buffer_type_get_nameP24ggml_backend_buffer_type, symObjAddr: 0x77B4, symBinAddr: 0x4D3EC, symSize: 0xC }
  - { offset: 0x19D15A, size: 0x8, addend: 0x0, symName: __ZL41ggml_backend_cpu_buffer_type_alloc_bufferP24ggml_backend_buffer_typem, symObjAddr: 0x77C0, symBinAddr: 0x4D3F8, symSize: 0xA4 }
  - { offset: 0x19D22F, size: 0x8, addend: 0x0, symName: __ZL42ggml_backend_cpu_buffer_type_get_alignmentP24ggml_backend_buffer_type, symObjAddr: 0x7864, symBinAddr: 0x4D49C, symSize: 0x8 }
  - { offset: 0x19D25B, size: 0x8, addend: 0x0, symName: __ZL36ggml_backend_cpu_buffer_type_is_hostP24ggml_backend_buffer_type, symObjAddr: 0x786C, symBinAddr: 0x4D4A4, symSize: 0x8 }
  - { offset: 0x19D287, size: 0x8, addend: 0x0, symName: _ggml_backend_cpu_buffer_from_ptr, symObjAddr: 0x7874, symBinAddr: 0x4D4AC, symSize: 0x8C }
  - { offset: 0x19D30D, size: 0x8, addend: 0x0, symName: __ZL31ggml_backend_multi_buffer_clearP19ggml_backend_bufferh, symObjAddr: 0x7900, symBinAddr: 0x4D538, symSize: 0xC0 }
  - { offset: 0x19D341, size: 0x8, addend: 0x0, symName: __ZL31ggml_backend_multi_buffer_clearP19ggml_backend_bufferh, symObjAddr: 0x7900, symBinAddr: 0x4D538, symSize: 0xC0 }
  - { offset: 0x19D3F9, size: 0x8, addend: 0x0, symName: __ZL38ggml_backend_sched_backend_from_bufferP18ggml_backend_schedPK11ggml_tensorS3_, symObjAddr: 0x79C0, symBinAddr: 0x4D5F8, symSize: 0x150 }
  - { offset: 0x19D40D, size: 0x8, addend: 0x0, symName: __ZL35ggml_backend_cpu_buffer_free_bufferP19ggml_backend_buffer, symObjAddr: 0x7B38, symBinAddr: 0x4D748, symSize: 0x40 }
  - { offset: 0x19D44B, size: 0x8, addend: 0x0, symName: __ZL32ggml_backend_cpu_buffer_get_baseP19ggml_backend_buffer, symObjAddr: 0x7B78, symBinAddr: 0x4D788, symSize: 0x4C }
  - { offset: 0x19D472, size: 0x8, addend: 0x0, symName: __ZL32ggml_backend_cpu_buffer_get_baseP19ggml_backend_buffer, symObjAddr: 0x7B78, symBinAddr: 0x4D788, symSize: 0x4C }
  - { offset: 0x19D4B7, size: 0x8, addend: 0x0, symName: __ZL37ggml_backend_cpu_buffer_memset_tensorP19ggml_backend_bufferP11ggml_tensorhmm, symObjAddr: 0x7BC4, symBinAddr: 0x4D7D4, symSize: 0x48 }
  - { offset: 0x19D4CB, size: 0x8, addend: 0x0, symName: __ZL37ggml_backend_cpu_buffer_memset_tensorP19ggml_backend_bufferP11ggml_tensorhmm, symObjAddr: 0x7BC4, symBinAddr: 0x4D7D4, symSize: 0x48 }
  - { offset: 0x19D53A, size: 0x8, addend: 0x0, symName: __ZL34ggml_backend_cpu_buffer_set_tensorP19ggml_backend_bufferP11ggml_tensorPKvmm, symObjAddr: 0x7C0C, symBinAddr: 0x4D81C, symSize: 0x48 }
  - { offset: 0x19D54E, size: 0x8, addend: 0x0, symName: __ZL34ggml_backend_cpu_buffer_set_tensorP19ggml_backend_bufferP11ggml_tensorPKvmm, symObjAddr: 0x7C0C, symBinAddr: 0x4D81C, symSize: 0x48 }
  - { offset: 0x19D5BD, size: 0x8, addend: 0x0, symName: __ZL34ggml_backend_cpu_buffer_get_tensorP19ggml_backend_bufferPK11ggml_tensorPvmm, symObjAddr: 0x7C54, symBinAddr: 0x4D864, symSize: 0x48 }
  - { offset: 0x19D5D1, size: 0x8, addend: 0x0, symName: __ZL34ggml_backend_cpu_buffer_get_tensorP19ggml_backend_bufferPK11ggml_tensorPvmm, symObjAddr: 0x7C54, symBinAddr: 0x4D864, symSize: 0x48 }
  - { offset: 0x19D640, size: 0x8, addend: 0x0, symName: __ZL34ggml_backend_cpu_buffer_cpy_tensorP19ggml_backend_bufferPK11ggml_tensorPS1_, symObjAddr: 0x7C9C, symBinAddr: 0x4D8AC, symSize: 0xFC }
  - { offset: 0x19D654, size: 0x8, addend: 0x0, symName: __ZL34ggml_backend_cpu_buffer_cpy_tensorP19ggml_backend_bufferPK11ggml_tensorPS1_, symObjAddr: 0x7C9C, symBinAddr: 0x4D8AC, symSize: 0xFC }
  - { offset: 0x19D73E, size: 0x8, addend: 0x0, symName: __ZL29ggml_backend_cpu_buffer_clearP19ggml_backend_bufferh, symObjAddr: 0x7D98, symBinAddr: 0x4D9A8, symSize: 0x40 }
  - { offset: 0x19D751, size: 0x8, addend: 0x0, symName: __ZL29ggml_backend_cpu_buffer_clearP19ggml_backend_bufferh, symObjAddr: 0x7D98, symBinAddr: 0x4D9A8, symSize: 0x40 }
  - { offset: 0x19D792, size: 0x8, addend: 0x0, symName: __ZL46ggml_backend_cpu_buffer_from_ptr_type_get_nameP24ggml_backend_buffer_type, symObjAddr: 0x7DD8, symBinAddr: 0x4D9E8, symSize: 0xC }
  - { offset: 0x19D7A6, size: 0x8, addend: 0x0, symName: __ZL46ggml_backend_cpu_buffer_from_ptr_type_get_nameP24ggml_backend_buffer_type, symObjAddr: 0x7DD8, symBinAddr: 0x4D9E8, symSize: 0xC }
  - { offset: 0x19F67B, size: 0x8, addend: 0x0, symName: _ggml_opt_dataset_init, symObjAddr: 0x0, symBinAddr: 0x4D9F4, symSize: 0x248 }
  - { offset: 0x1A7CCD, size: 0x8, addend: 0x0, symName: __ZNSt3__124uniform_int_distributionIlEclINS_23mersenne_twister_engineIjLm32ELm624ELm397ELm31ELj2567483615ELm11ELj4294967295ELm7ELj2636928640ELm15ELj4022730752ELm18ELj1812433253EEEEElRT_RKNS1_10param_typeE, symObjAddr: 0x3CBC, symBinAddr: 0x51454, symSize: 0x19C }
  - { offset: 0x1A7D71, size: 0x8, addend: 0x0, symName: __ZNSt3__124uniform_int_distributionIlEclINS_23mersenne_twister_engineIjLm32ELm624ELm397ELm31ELj2567483615ELm11ELj4294967295ELm7ELj2636928640ELm15ELj4022730752ELm18ELj1812433253EEEEElRT_RKNS1_10param_typeE, symObjAddr: 0x3CBC, symBinAddr: 0x51454, symSize: 0x19C }
  - { offset: 0x1A80C8, size: 0x8, addend: 0x0, symName: _ggml_opt_dataset_init, symObjAddr: 0x0, symBinAddr: 0x4D9F4, symSize: 0x248 }
  - { offset: 0x1A8349, size: 0x8, addend: 0x0, symName: _ggml_opt_dataset_free, symObjAddr: 0x248, symBinAddr: 0x4DC3C, symSize: 0x40 }
  - { offset: 0x1A83E0, size: 0x8, addend: 0x0, symName: __ZNSt3__16vectorIxNS_9allocatorIxEEE8__appendEm, symObjAddr: 0x3B88, symBinAddr: 0x51320, symSize: 0x120 }
  - { offset: 0x1A8801, size: 0x8, addend: 0x0, symName: __ZNSt3__16vectorIxNS_9allocatorIxEEE20__throw_length_errorB8ne200100Ev, symObjAddr: 0x3CA8, symBinAddr: 0x51440, symSize: 0x14 }
  - { offset: 0x1A8969, size: 0x8, addend: 0x0, symName: _ggml_opt_dataset_free, symObjAddr: 0x248, symBinAddr: 0x4DC3C, symSize: 0x40 }
  - { offset: 0x1A8B3E, size: 0x8, addend: 0x0, symName: _ggml_opt_dataset_ndata, symObjAddr: 0x288, symBinAddr: 0x4DC7C, symSize: 0x8 }
  - { offset: 0x1A8B69, size: 0x8, addend: 0x0, symName: _ggml_opt_dataset_data, symObjAddr: 0x290, symBinAddr: 0x4DC84, symSize: 0x8 }
  - { offset: 0x1A8B88, size: 0x8, addend: 0x0, symName: _ggml_opt_dataset_labels, symObjAddr: 0x298, symBinAddr: 0x4DC8C, symSize: 0x8 }
  - { offset: 0x1A8D5B, size: 0x8, addend: 0x0, symName: _ggml_opt_dataset_shuffle, symObjAddr: 0x2A0, symBinAddr: 0x4DC94, symSize: 0x188 }
  - { offset: 0x1A934F, size: 0x8, addend: 0x0, symName: _ggml_opt_dataset_get_batch, symObjAddr: 0x428, symBinAddr: 0x4DE1C, symSize: 0x2B0 }
  - { offset: 0x1A93A1, size: 0x8, addend: 0x0, symName: _ggml_opt_dataset_get_batch, symObjAddr: 0x428, symBinAddr: 0x4DE1C, symSize: 0x2B0 }
  - { offset: 0x1A95FF, size: 0x8, addend: 0x0, symName: _ggml_opt_dataset_get_batch_host, symObjAddr: 0x6D8, symBinAddr: 0x4E0CC, symSize: 0x180 }
  - { offset: 0x1A9642, size: 0x8, addend: 0x0, symName: _ggml_opt_dataset_get_batch_host, symObjAddr: 0x6D8, symBinAddr: 0x4E0CC, symSize: 0x180 }
  - { offset: 0x1A97A4, size: 0x8, addend: 0x0, symName: _ggml_opt_get_default_optimizer_params, symObjAddr: 0x858, symBinAddr: 0x4E24C, symSize: 0x20 }
  - { offset: 0x1A97B8, size: 0x8, addend: 0x0, symName: _ggml_opt_get_default_optimizer_params, symObjAddr: 0x858, symBinAddr: 0x4E24C, symSize: 0x20 }
  - { offset: 0x1A97ED, size: 0x8, addend: 0x0, symName: _ggml_opt_get_constant_optimizer_params, symObjAddr: 0x878, symBinAddr: 0x4E26C, symSize: 0x14 }
  - { offset: 0x1A9816, size: 0x8, addend: 0x0, symName: _ggml_opt_default_params, symObjAddr: 0x88C, symBinAddr: 0x4E280, symSize: 0x34 }
  - { offset: 0x1A9B87, size: 0x8, addend: 0x0, symName: _ggml_opt_init, symObjAddr: 0x8C0, symBinAddr: 0x4E2B4, symSize: 0x228 }
  - { offset: 0x1A9D9F, size: 0x8, addend: 0x0, symName: __ZL14ggml_opt_buildP16ggml_opt_context, symObjAddr: 0xAE8, symBinAddr: 0x4E4DC, symSize: 0x9F0 }
  - { offset: 0x1A9DE3, size: 0x8, addend: 0x0, symName: __ZL14ggml_opt_buildP16ggml_opt_context, symObjAddr: 0xAE8, symBinAddr: 0x4E4DC, symSize: 0x9F0 }
  - { offset: 0x1AA925, size: 0x8, addend: 0x0, symName: _ggml_opt_free, symObjAddr: 0x14D8, symBinAddr: 0x4EECC, symSize: 0x78 }
  - { offset: 0x1AABA5, size: 0x8, addend: 0x0, symName: __ZNSt3__16vectorIP11ggml_tensorNS_9allocatorIS2_EEE8__appendEm, symObjAddr: 0x34D0, symBinAddr: 0x50EC4, symSize: 0x120 }
  - { offset: 0x1AB1F7, size: 0x8, addend: 0x0, symName: _ggml_opt_free, symObjAddr: 0x14D8, symBinAddr: 0x4EECC, symSize: 0x78 }
  - { offset: 0x1AB646, size: 0x8, addend: 0x0, symName: _ggml_opt_reset, symObjAddr: 0x1550, symBinAddr: 0x4EF44, symSize: 0x3C }
  - { offset: 0x1AB69C, size: 0x8, addend: 0x0, symName: _ggml_opt_static_graphs, symObjAddr: 0x158C, symBinAddr: 0x4EF80, symSize: 0x8 }
  - { offset: 0x1AB6BB, size: 0x8, addend: 0x0, symName: _ggml_opt_inputs, symObjAddr: 0x1594, symBinAddr: 0x4EF88, symSize: 0x8 }
  - { offset: 0x1AB6DA, size: 0x8, addend: 0x0, symName: _ggml_opt_outputs, symObjAddr: 0x159C, symBinAddr: 0x4EF90, symSize: 0x8 }
  - { offset: 0x1AB707, size: 0x8, addend: 0x0, symName: _ggml_opt_labels, symObjAddr: 0x15A4, symBinAddr: 0x4EF98, symSize: 0x8 }
  - { offset: 0x1AB734, size: 0x8, addend: 0x0, symName: _ggml_opt_loss, symObjAddr: 0x15AC, symBinAddr: 0x4EFA0, symSize: 0x8 }
  - { offset: 0x1AB761, size: 0x8, addend: 0x0, symName: _ggml_opt_pred, symObjAddr: 0x15B4, symBinAddr: 0x4EFA8, symSize: 0x8 }
  - { offset: 0x1AB78E, size: 0x8, addend: 0x0, symName: _ggml_opt_ncorrect, symObjAddr: 0x15BC, symBinAddr: 0x4EFB0, symSize: 0x8 }
  - { offset: 0x1AB7BB, size: 0x8, addend: 0x0, symName: _ggml_opt_grad_acc, symObjAddr: 0x15C4, symBinAddr: 0x4EFB8, symSize: 0x8 }
  - { offset: 0x1AB90C, size: 0x8, addend: 0x0, symName: _ggml_opt_result_init, symObjAddr: 0x15CC, symBinAddr: 0x4EFC0, symSize: 0x30 }
  - { offset: 0x1ABBE8, size: 0x8, addend: 0x0, symName: _ggml_opt_result_free, symObjAddr: 0x15FC, symBinAddr: 0x4EFF0, symSize: 0x48 }
  - { offset: 0x1ABEE6, size: 0x8, addend: 0x0, symName: _ggml_opt_result_reset, symObjAddr: 0x1644, symBinAddr: 0x4F038, symSize: 0x1C }
  - { offset: 0x1ABFD9, size: 0x8, addend: 0x0, symName: _ggml_opt_result_ndata, symObjAddr: 0x1660, symBinAddr: 0x4F054, symSize: 0xC }
  - { offset: 0x1AC00F, size: 0x8, addend: 0x0, symName: _ggml_opt_result_loss, symObjAddr: 0x166C, symBinAddr: 0x4F060, symSize: 0x270 }
  - { offset: 0x1AC071, size: 0x8, addend: 0x0, symName: _ggml_opt_result_loss, symObjAddr: 0x166C, symBinAddr: 0x4F060, symSize: 0x270 }
  - { offset: 0x1AC0D6, size: 0x8, addend: 0x0, symName: _ggml_opt_result_pred, symObjAddr: 0x18DC, symBinAddr: 0x4F2D0, symSize: 0x84 }
  - { offset: 0x1AC12C, size: 0x8, addend: 0x0, symName: _ggml_opt_result_accuracy, symObjAddr: 0x1960, symBinAddr: 0x4F354, symSize: 0x6C }
  - { offset: 0x1AC159, size: 0x8, addend: 0x0, symName: _ggml_opt_prepare_alloc, symObjAddr: 0x19CC, symBinAddr: 0x4F3C0, symSize: 0x50 }
  - { offset: 0x1AC1C9, size: 0x8, addend: 0x0, symName: _ggml_opt_alloc, symObjAddr: 0x1A1C, symBinAddr: 0x4F410, symSize: 0x4B0 }
  - { offset: 0x1AC424, size: 0x8, addend: 0x0, symName: _ggml_opt_alloc, symObjAddr: 0x1A1C, symBinAddr: 0x4F410, symSize: 0x4B0 }
  - { offset: 0x1ACA2C, size: 0x8, addend: 0x0, symName: __ZL10map_tensorRNSt3__13mapIP11ggml_tensorS2_NS_4lessIS2_EENS_9allocatorINS_4pairIKS2_S2_EEEEEEP12ggml_contextS2_, symObjAddr: 0x36A0, symBinAddr: 0x50FE4, symSize: 0x2F8 }
  - { offset: 0x1AD2E5, size: 0x8, addend: 0x0, symName: __ZNSt3__16__treeINS_12__value_typeIP11ggml_tensorS3_EENS_19__map_value_compareIS3_S4_NS_4lessIS3_EELb1EEENS_9allocatorIS4_EEE7destroyEPNS_11__tree_nodeIS4_PvEE, symObjAddr: 0x3B44, symBinAddr: 0x512DC, symSize: 0x44 }
  - { offset: 0x1AD8E5, size: 0x8, addend: 0x0, symName: _ggml_opt_eval, symObjAddr: 0x1ECC, symBinAddr: 0x4F8C0, symSize: 0x710 }
  - { offset: 0x1AECB6, size: 0x8, addend: 0x0, symName: _ggml_opt_epoch, symObjAddr: 0x25DC, symBinAddr: 0x4FFD0, symSize: 0x2D4 }
  - { offset: 0x1AF0B9, size: 0x8, addend: 0x0, symName: _ggml_opt_epoch_callback_progress_bar, symObjAddr: 0x28B0, symBinAddr: 0x502A4, symSize: 0x658 }
  - { offset: 0x1AF1D0, size: 0x8, addend: 0x0, symName: _ggml_opt_epoch_callback_progress_bar, symObjAddr: 0x28B0, symBinAddr: 0x502A4, symSize: 0x658 }
  - { offset: 0x1AF700, size: 0x8, addend: 0x0, symName: _ggml_opt_fit, symObjAddr: 0x2F08, symBinAddr: 0x508FC, symSize: 0x594 }
  - { offset: 0x1B061D, size: 0x8, addend: 0x0, symName: _ggml_opt_context_optimizer_type, symObjAddr: 0x349C, symBinAddr: 0x50E90, symSize: 0x8 }
  - { offset: 0x1B063A, size: 0x8, addend: 0x0, symName: _ggml_opt_context_optimizer_type, symObjAddr: 0x349C, symBinAddr: 0x50E90, symSize: 0x8 }
  - { offset: 0x1B0667, size: 0x8, addend: 0x0, symName: _ggml_opt_optimizer_name, symObjAddr: 0x34A4, symBinAddr: 0x50E98, symSize: 0x2C }
  - { offset: 0x1B126A, size: 0x8, addend: 0x0, symName: __ZNSt3__16vectorIxNS_9allocatorIxEEE20__throw_length_errorB8ne200100Ev, symObjAddr: 0x3CA8, symBinAddr: 0x51440, symSize: 0x14 }
  - { offset: 0x1B1282, size: 0x8, addend: 0x0, symName: __ZNSt3__124uniform_int_distributionIlEclINS_23mersenne_twister_engineIjLm32ELm624ELm397ELm31ELj2567483615ELm11ELj4294967295ELm7ELj2636928640ELm15ELj4022730752ELm18ELj1812433253EEEEElRT_RKNS1_10param_typeE, symObjAddr: 0x3CBC, symBinAddr: 0x51454, symSize: 0x19C }
  - { offset: 0x1B133B, size: 0x8, addend: 0x0, symName: __ZNSt3__125__independent_bits_engineINS_23mersenne_twister_engineIjLm32ELm624ELm397ELm31ELj2567483615ELm11ELj4294967295ELm7ELj2636928640ELm15ELj4022730752ELm18ELj1812433253EEEmE6__evalENS_17integral_constantIbLb1EEE, symObjAddr: 0x3E58, symBinAddr: 0x515F0, symSize: 0x330 }
  - { offset: 0x1B3854, size: 0x8, addend: 0x0, symName: _quantize_row_q4_0_ref, symObjAddr: 0x0, symBinAddr: 0x51920, symSize: 0x3B4 }
  - { offset: 0x1B3862, size: 0x8, addend: 0x0, symName: _quantize_row_q4_0_ref, symObjAddr: 0x0, symBinAddr: 0x51920, symSize: 0x3B4 }
  - { offset: 0x1B3AC5, size: 0x8, addend: 0x0, symName: _quantize_row_q5_0_ref, symObjAddr: 0x7E8, symBinAddr: 0x52108, symSize: 0x4B8 }
  - { offset: 0x1B3D35, size: 0x8, addend: 0x0, symName: _quantize_row_mxfp4_ref, symObjAddr: 0x1898, symBinAddr: 0x531B8, symSize: 0x728 }
  - { offset: 0x1B3EBB, size: 0x8, addend: 0x0, symName: _dequantize_row_q4_0, symObjAddr: 0x1FC0, symBinAddr: 0x538E0, symSize: 0x190 }
  - { offset: 0x1B4065, size: 0x8, addend: 0x0, symName: _dequantize_row_q4_1, symObjAddr: 0x2150, symBinAddr: 0x53A70, symSize: 0x1A8 }
  - { offset: 0x1B42DE, size: 0x8, addend: 0x0, symName: _dequantize_row_q5_0, symObjAddr: 0x22F8, symBinAddr: 0x53C18, symSize: 0x1E4 }
  - { offset: 0x1B448C, size: 0x8, addend: 0x0, symName: _dequantize_row_q5_1, symObjAddr: 0x24DC, symBinAddr: 0x53DFC, symSize: 0x22C }
  - { offset: 0x1B4715, size: 0x8, addend: 0x0, symName: _dequantize_row_q8_0, symObjAddr: 0x2708, symBinAddr: 0x54028, symSize: 0x10C }
  - { offset: 0x1B4896, size: 0x8, addend: 0x0, symName: _dequantize_row_mxfp4, symObjAddr: 0x2814, symBinAddr: 0x54134, symSize: 0x248 }
  - { offset: 0x1B4990, size: 0x8, addend: 0x0, symName: _iq2xs_init_impl, symObjAddr: 0x25514, symBinAddr: 0x76E34, symSize: 0xD98 }
  - { offset: 0x1B49B4, size: 0x8, addend: 0x0, symName: _iq2xs_init_impl.kgrid_2bit_256, symObjAddr: 0x3E3D8, symBinAddr: 0x1469E0, symSize: 0x0 }
  - { offset: 0x1B49CB, size: 0x8, addend: 0x0, symName: _iq2xs_init_impl.kgrid_2bit_512, symObjAddr: 0x3E5D8, symBinAddr: 0x146BE0, symSize: 0x0 }
  - { offset: 0x1B49E2, size: 0x8, addend: 0x0, symName: _iq2xs_init_impl.kgrid_1bit_2048, symObjAddr: 0x3E9D8, symBinAddr: 0x146FE0, symSize: 0x0 }
  - { offset: 0x1B49F9, size: 0x8, addend: 0x0, symName: _iq2xs_init_impl.kgrid_2bit_1024, symObjAddr: 0x3F9D8, symBinAddr: 0x147FE0, symSize: 0x0 }
  - { offset: 0x1B4F1B, size: 0x8, addend: 0x0, symName: _iq2_compare_func, symObjAddr: 0x262AC, symBinAddr: 0x77BCC, symSize: 0x40 }
  - { offset: 0x1B4F92, size: 0x8, addend: 0x0, symName: _iq3xs_init_impl, symObjAddr: 0x2A9A8, symBinAddr: 0x7C2C8, symSize: 0x968 }
  - { offset: 0x1B4FB6, size: 0x8, addend: 0x0, symName: _iq3xs_init_impl.kgrid_256, symObjAddr: 0x401D8, symBinAddr: 0x1487E0, symSize: 0x0 }
  - { offset: 0x1B4FCD, size: 0x8, addend: 0x0, symName: _iq3xs_init_impl.kgrid_512, symObjAddr: 0x403D8, symBinAddr: 0x1489E0, symSize: 0x0 }
  - { offset: 0x1B54C9, size: 0x8, addend: 0x0, symName: _iq3_compare_func, symObjAddr: 0x2B310, symBinAddr: 0x7CC30, symSize: 0x40 }
  - { offset: 0x1B54F0, size: 0x8, addend: 0x0, symName: _kvalues_mxfp4, symObjAddr: 0x35F38, symBinAddr: 0x13E540, symSize: 0x0 }
  - { offset: 0x1B552E, size: 0x8, addend: 0x0, symName: _iq2xxs_grid, symObjAddr: 0x35F48, symBinAddr: 0x13E550, symSize: 0x0 }
  - { offset: 0x1B556D, size: 0x8, addend: 0x0, symName: _ksigns_iq2xs, symObjAddr: 0x36748, symBinAddr: 0x13ED50, symSize: 0x0 }
  - { offset: 0x1B55AB, size: 0x8, addend: 0x0, symName: _iq2xs_grid, symObjAddr: 0x367C8, symBinAddr: 0x13EDD0, symSize: 0x0 }
  - { offset: 0x1B55D1, size: 0x8, addend: 0x0, symName: _iq2s_grid, symObjAddr: 0x377C8, symBinAddr: 0x13FDD0, symSize: 0x0 }
  - { offset: 0x1B55F7, size: 0x8, addend: 0x0, symName: _iq3xxs_grid, symObjAddr: 0x397C8, symBinAddr: 0x141DD0, symSize: 0x0 }
  - { offset: 0x1B5636, size: 0x8, addend: 0x0, symName: _iq3s_grid, symObjAddr: 0x39BC8, symBinAddr: 0x1421D0, symSize: 0x0 }
  - { offset: 0x1B565C, size: 0x8, addend: 0x0, symName: _iq1s_grid, symObjAddr: 0x3A3C8, symBinAddr: 0x1429D0, symSize: 0x0 }
  - { offset: 0x1B5682, size: 0x8, addend: 0x0, symName: _kvalues_iq4nl, symObjAddr: 0x3E3C8, symBinAddr: 0x1469D0, symSize: 0x0 }
  - { offset: 0x1B5699, size: 0x8, addend: 0x0, symName: _iq2_data, symObjAddr: 0xE8018, symBinAddr: 0x1FD950, symSize: 0x0 }
  - { offset: 0x1B570E, size: 0x8, addend: 0x0, symName: _iq3_data, symObjAddr: 0xE8078, symBinAddr: 0x1FD9B0, symSize: 0x0 }
  - { offset: 0x1B6381, size: 0x8, addend: 0x0, symName: _quantize_row_q4_1_ref, symObjAddr: 0x3B4, symBinAddr: 0x51CD4, symSize: 0x434 }
  - { offset: 0x1B669F, size: 0x8, addend: 0x0, symName: _quantize_row_q5_1_ref, symObjAddr: 0xCA0, symBinAddr: 0x525C0, symSize: 0x530 }
  - { offset: 0x1B6A20, size: 0x8, addend: 0x0, symName: _quantize_row_q8_0_ref, symObjAddr: 0x11D0, symBinAddr: 0x52AF0, symSize: 0x318 }
  - { offset: 0x1B6C36, size: 0x8, addend: 0x0, symName: _quantize_row_q8_1_ref, symObjAddr: 0x14E8, symBinAddr: 0x52E08, symSize: 0x3B0 }
  - { offset: 0x1B734F, size: 0x8, addend: 0x0, symName: _quantize_row_q2_K_ref, symObjAddr: 0x2A5C, symBinAddr: 0x5437C, symSize: 0xD64 }
  - { offset: 0x1B7B34, size: 0x8, addend: 0x0, symName: _dequantize_row_q2_K, symObjAddr: 0x37C0, symBinAddr: 0x550E0, symSize: 0x3B0 }
  - { offset: 0x1B84D3, size: 0x8, addend: 0x0, symName: _quantize_q2_K, symObjAddr: 0x3B70, symBinAddr: 0x55490, symSize: 0x2A4C }
  - { offset: 0x1B9433, size: 0x8, addend: 0x0, symName: _quantize_row_q3_K_ref, symObjAddr: 0x65BC, symBinAddr: 0x57EDC, symSize: 0xD2C }
  - { offset: 0x1B9975, size: 0x8, addend: 0x0, symName: _dequantize_row_q3_K, symObjAddr: 0x72E8, symBinAddr: 0x58C08, symSize: 0x540 }
  - { offset: 0x1B9FC5, size: 0x8, addend: 0x0, symName: _quantize_q3_K, symObjAddr: 0x7828, symBinAddr: 0x59148, symSize: 0x13FC }
  - { offset: 0x1BA6EB, size: 0x8, addend: 0x0, symName: _quantize_row_q4_K_ref, symObjAddr: 0x8C24, symBinAddr: 0x5A544, symSize: 0x1554 }
  - { offset: 0x1BAE12, size: 0x8, addend: 0x0, symName: _dequantize_row_q4_K, symObjAddr: 0xA178, symBinAddr: 0x5BA98, symSize: 0x764 }
  - { offset: 0x1BB3DA, size: 0x8, addend: 0x0, symName: _quantize_q4_K, symObjAddr: 0xA8DC, symBinAddr: 0x5C1FC, symSize: 0x2DD4 }
  - { offset: 0x1BBFC9, size: 0x8, addend: 0x0, symName: _quantize_row_q5_K_ref, symObjAddr: 0xD6B0, symBinAddr: 0x5EFD0, symSize: 0x16F8 }
  - { offset: 0x1BC74A, size: 0x8, addend: 0x0, symName: _dequantize_row_q5_K, symObjAddr: 0xEDA8, symBinAddr: 0x606C8, symSize: 0x4F4 }
  - { offset: 0x1BCDAA, size: 0x8, addend: 0x0, symName: _quantize_q5_K, symObjAddr: 0xF29C, symBinAddr: 0x60BBC, symSize: 0x2FB4 }
  - { offset: 0x1BD9D5, size: 0x8, addend: 0x0, symName: _quantize_row_q6_K_ref, symObjAddr: 0x12250, symBinAddr: 0x63B70, symSize: 0xCAC }
  - { offset: 0x1BDF30, size: 0x8, addend: 0x0, symName: _make_qx_quants, symObjAddr: 0x12EFC, symBinAddr: 0x6481C, symSize: 0xC44 }
  - { offset: 0x1BDFCD, size: 0x8, addend: 0x0, symName: _make_qx_quants, symObjAddr: 0x12EFC, symBinAddr: 0x6481C, symSize: 0xC44 }
  - { offset: 0x1BE14B, size: 0x8, addend: 0x0, symName: _dequantize_row_q6_K, symObjAddr: 0x13B40, symBinAddr: 0x65460, symSize: 0x818 }
  - { offset: 0x1BE4E0, size: 0x8, addend: 0x0, symName: _quantize_q6_K, symObjAddr: 0x14358, symBinAddr: 0x65C78, symSize: 0x85B4 }
  - { offset: 0x1C04EA, size: 0x8, addend: 0x0, symName: _quantize_q4_0, symObjAddr: 0x1C90C, symBinAddr: 0x6E22C, symSize: 0xC30 }
  - { offset: 0x1C0A0B, size: 0x8, addend: 0x0, symName: _quantize_q4_1, symObjAddr: 0x1D53C, symBinAddr: 0x6EE5C, symSize: 0x1330 }
  - { offset: 0x1C10E4, size: 0x8, addend: 0x0, symName: _quantize_q5_0, symObjAddr: 0x1E86C, symBinAddr: 0x7018C, symSize: 0xDEC }
  - { offset: 0x1C1661, size: 0x8, addend: 0x0, symName: _quantize_q5_1, symObjAddr: 0x1F658, symBinAddr: 0x70F78, symSize: 0x15C0 }
  - { offset: 0x1C1C30, size: 0x8, addend: 0x0, symName: _quantize_q8_0, symObjAddr: 0x20C18, symBinAddr: 0x72538, symSize: 0x5C }
  - { offset: 0x1C1CEC, size: 0x8, addend: 0x0, symName: _quantize_mxfp4, symObjAddr: 0x20C74, symBinAddr: 0x72594, symSize: 0x38 }
  - { offset: 0x1C1D99, size: 0x8, addend: 0x0, symName: _quantize_row_tq1_0_ref, symObjAddr: 0x20CAC, symBinAddr: 0x725CC, symSize: 0x3E0 }
  - { offset: 0x1C2139, size: 0x8, addend: 0x0, symName: _quantize_row_tq2_0_ref, symObjAddr: 0x2108C, symBinAddr: 0x729AC, symSize: 0x1E4 }
  - { offset: 0x1C23C2, size: 0x8, addend: 0x0, symName: _quantize_tq1_0, symObjAddr: 0x21270, symBinAddr: 0x72B90, symSize: 0x5C }
  - { offset: 0x1C247F, size: 0x8, addend: 0x0, symName: _quantize_tq2_0, symObjAddr: 0x212CC, symBinAddr: 0x72BEC, symSize: 0x5C }
  - { offset: 0x1C253C, size: 0x8, addend: 0x0, symName: _dequantize_row_tq1_0, symObjAddr: 0x21328, symBinAddr: 0x72C48, symSize: 0xC80 }
  - { offset: 0x1C2835, size: 0x8, addend: 0x0, symName: _dequantize_row_tq2_0, symObjAddr: 0x21FA8, symBinAddr: 0x738C8, symSize: 0x394 }
  - { offset: 0x1C2A0D, size: 0x8, addend: 0x0, symName: _dequantize_row_iq2_xxs, symObjAddr: 0x2233C, symBinAddr: 0x73C5C, symSize: 0x370 }
  - { offset: 0x1C2C51, size: 0x8, addend: 0x0, symName: _dequantize_row_iq2_xs, symObjAddr: 0x226AC, symBinAddr: 0x73FCC, symSize: 0x4A0 }
  - { offset: 0x1C2E5E, size: 0x8, addend: 0x0, symName: _dequantize_row_iq2_s, symObjAddr: 0x22B4C, symBinAddr: 0x7446C, symSize: 0x3BC }
  - { offset: 0x1C30A0, size: 0x8, addend: 0x0, symName: _dequantize_row_iq3_xxs, symObjAddr: 0x22F08, symBinAddr: 0x74828, symSize: 0x3A0 }
  - { offset: 0x1C32FA, size: 0x8, addend: 0x0, symName: _dequantize_row_iq3_s, symObjAddr: 0x232A8, symBinAddr: 0x74BC8, symSize: 0x6E8 }
  - { offset: 0x1C35AD, size: 0x8, addend: 0x0, symName: _dequantize_row_iq1_s, symObjAddr: 0x23990, symBinAddr: 0x752B0, symSize: 0x1C4 }
  - { offset: 0x1C3805, size: 0x8, addend: 0x0, symName: _dequantize_row_iq1_m, symObjAddr: 0x23B54, symBinAddr: 0x75474, symSize: 0x244 }
  - { offset: 0x1C3AD9, size: 0x8, addend: 0x0, symName: _dequantize_row_iq4_nl, symObjAddr: 0x23D98, symBinAddr: 0x756B8, symSize: 0x404 }
  - { offset: 0x1C3C8D, size: 0x8, addend: 0x0, symName: _dequantize_row_iq4_xs, symObjAddr: 0x2419C, symBinAddr: 0x75ABC, symSize: 0x468 }
  - { offset: 0x1C3E8E, size: 0x8, addend: 0x0, symName: _quantize_row_q8_K_ref, symObjAddr: 0x24604, symBinAddr: 0x75F24, symSize: 0x77C }
  - { offset: 0x1C401B, size: 0x8, addend: 0x0, symName: _dequantize_row_q8_K, symObjAddr: 0x24D80, symBinAddr: 0x766A0, symSize: 0x794 }
  - { offset: 0x1C4162, size: 0x8, addend: 0x0, symName: _iq2_compare_func, symObjAddr: 0x262AC, symBinAddr: 0x77BCC, symSize: 0x40 }
  - { offset: 0x1C41BE, size: 0x8, addend: 0x0, symName: _iq2xs_free_impl, symObjAddr: 0x262EC, symBinAddr: 0x77C0C, symSize: 0xF8 }
  - { offset: 0x1C423B, size: 0x8, addend: 0x0, symName: _quantize_iq2_xxs, symObjAddr: 0x263E4, symBinAddr: 0x77D04, symSize: 0x292C }
  - { offset: 0x1C471C, size: 0x8, addend: 0x0, symName: _quantize_iq2_xxs, symObjAddr: 0x263E4, symBinAddr: 0x77D04, symSize: 0x292C }
  - { offset: 0x1C5185, size: 0x8, addend: 0x0, symName: _quantize_iq2_xs, symObjAddr: 0x28D10, symBinAddr: 0x7A630, symSize: 0x1C98 }
  - { offset: 0x1C5199, size: 0x8, addend: 0x0, symName: _iq2_find_best_neighbour, symObjAddr: 0x34F28, symBinAddr: 0x86848, symSize: 0x1E0 }
  - { offset: 0x1C5299, size: 0x8, addend: 0x0, symName: _iq1_sort_helper, symObjAddr: 0x35108, symBinAddr: 0x86A28, symSize: 0x18 }
  - { offset: 0x1C58CA, size: 0x8, addend: 0x0, symName: _quantize_iq2_xs, symObjAddr: 0x28D10, symBinAddr: 0x7A630, symSize: 0x1C98 }
  - { offset: 0x1C638F, size: 0x8, addend: 0x0, symName: _iq3xs_init_impl, symObjAddr: 0x2A9A8, symBinAddr: 0x7C2C8, symSize: 0x968 }
  - { offset: 0x1C63BF, size: 0x8, addend: 0x0, symName: _iq3_compare_func, symObjAddr: 0x2B310, symBinAddr: 0x7CC30, symSize: 0x40 }
  - { offset: 0x1C641B, size: 0x8, addend: 0x0, symName: _iq3xs_free_impl, symObjAddr: 0x2B350, symBinAddr: 0x7CC70, symSize: 0x90 }
  - { offset: 0x1C6494, size: 0x8, addend: 0x0, symName: _quantize_iq3_xxs, symObjAddr: 0x2B3E0, symBinAddr: 0x7CD00, symSize: 0xCC }
  - { offset: 0x1C64A8, size: 0x8, addend: 0x0, symName: _quantize_iq3_xxs, symObjAddr: 0x2B3E0, symBinAddr: 0x7CD00, symSize: 0xCC }
  - { offset: 0x1C6589, size: 0x8, addend: 0x0, symName: _quantize_row_iq3_xxs_impl, symObjAddr: 0x2B4AC, symBinAddr: 0x7CDCC, symSize: 0x179C }
  - { offset: 0x1C659D, size: 0x8, addend: 0x0, symName: _quantize_row_iq3_xxs_impl, symObjAddr: 0x2B4AC, symBinAddr: 0x7CDCC, symSize: 0x179C }
  - { offset: 0x1C7304, size: 0x8, addend: 0x0, symName: _quantize_row_iq3_xxs_ref, symObjAddr: 0x2CC48, symBinAddr: 0x7E568, symSize: 0x8 }
  - { offset: 0x1C78B0, size: 0x8, addend: 0x0, symName: _quantize_iq3_s, symObjAddr: 0x2CC50, symBinAddr: 0x7E570, symSize: 0x1980 }
  - { offset: 0x1C8266, size: 0x8, addend: 0x0, symName: _quantize_row_iq3_s_ref, symObjAddr: 0x2E5D0, symBinAddr: 0x7FEF0, symSize: 0x10 }
  - { offset: 0x1C86E4, size: 0x8, addend: 0x0, symName: _quantize_iq1_s, symObjAddr: 0x2E5E0, symBinAddr: 0x7FF00, symSize: 0x14D8 }
  - { offset: 0x1C8E9E, size: 0x8, addend: 0x0, symName: _quantize_iq1_m, symObjAddr: 0x2FAB8, symBinAddr: 0x813D8, symSize: 0x1638 }
  - { offset: 0x1C8EB2, size: 0x8, addend: 0x0, symName: _iq1_find_best_neighbour2, symObjAddr: 0x35120, symBinAddr: 0x86A40, symSize: 0x5A4 }
  - { offset: 0x1C970E, size: 0x8, addend: 0x0, symName: _quantize_iq1_m, symObjAddr: 0x2FAB8, symBinAddr: 0x813D8, symSize: 0x1638 }
  - { offset: 0x1C9F54, size: 0x8, addend: 0x0, symName: _quantize_iq4_nl, symObjAddr: 0x310F0, symBinAddr: 0x82A10, symSize: 0x1CC }
  - { offset: 0x1CA13D, size: 0x8, addend: 0x0, symName: _quantize_row_iq4_nl_impl, symObjAddr: 0x312BC, symBinAddr: 0x82BDC, symSize: 0xE04 }
  - { offset: 0x1CAA39, size: 0x8, addend: 0x0, symName: _quantize_row_iq4_nl_ref, symObjAddr: 0x320C0, symBinAddr: 0x839E0, symSize: 0xE0 }
  - { offset: 0x1CAB77, size: 0x8, addend: 0x0, symName: _quantize_iq4_xs, symObjAddr: 0x321A0, symBinAddr: 0x83AC0, symSize: 0x1CC }
  - { offset: 0x1CADAC, size: 0x8, addend: 0x0, symName: _quantize_row_iq4_xs_ref, symObjAddr: 0x3236C, symBinAddr: 0x83C8C, symSize: 0xE0 }
  - { offset: 0x1CB37C, size: 0x8, addend: 0x0, symName: _quantize_iq2_s, symObjAddr: 0x3244C, symBinAddr: 0x83D6C, symSize: 0x1AF8 }
  - { offset: 0x1CBDE8, size: 0x8, addend: 0x0, symName: _quantize_row_iq2_s_ref, symObjAddr: 0x33F44, symBinAddr: 0x85864, symSize: 0x10 }
  - { offset: 0x1CBDFC, size: 0x8, addend: 0x0, symName: _quantize_row_iq2_s_ref, symObjAddr: 0x33F44, symBinAddr: 0x85864, symSize: 0x10 }
  - { offset: 0x1CBF43, size: 0x8, addend: 0x0, symName: _ggml_validate_row_data, symObjAddr: 0x33F54, symBinAddr: 0x85874, symSize: 0xFD4 }
  - { offset: 0x1CD3C2, size: 0x8, addend: 0x0, symName: _iq1_sort_helper, symObjAddr: 0x35108, symBinAddr: 0x86A28, symSize: 0x18 }
  - { offset: 0x1CD683, size: 0x8, addend: 0x0, symName: _ggml_critical_section_mutex, symObjAddr: 0x38, symBinAddr: 0x174920, symSize: 0x0 }
  - { offset: 0x1CE37E, size: 0x8, addend: 0x0, symName: _ggml_critical_section_start, symObjAddr: 0x0, symBinAddr: 0x86FE4, symSize: 0xC }
  - { offset: 0x1CE394, size: 0x8, addend: 0x0, symName: _ggml_critical_section_end, symObjAddr: 0xC, symBinAddr: 0x86FF0, symSize: 0xC }
  - { offset: 0x1CE3B1, size: 0x8, addend: 0x0, symName: __GLOBAL__sub_I_ggml_threading.cpp, symObjAddr: 0x18, symBinAddr: 0x86FFC, symSize: 0x1C }
  - { offset: 0x1CE3C9, size: 0x8, addend: 0x0, symName: __GLOBAL__sub_I_ggml_threading.cpp, symObjAddr: 0x18, symBinAddr: 0x86FFC, symSize: 0x1C }
  - { offset: 0x1D02F4, size: 0x8, addend: 0x0, symName: _ggml_print_backtrace, symObjAddr: 0x0, symBinAddr: 0x87018, symSize: 0x164 }
  - { offset: 0x1D0376, size: 0x8, addend: 0x0, symName: _ggml_init, symObjAddr: 0x1714, symBinAddr: 0x8872C, symSize: 0x1C8 }
  - { offset: 0x1D039E, size: 0x8, addend: 0x0, symName: _ggml_init.is_first_call, symObjAddr: 0x89A70, symBinAddr: 0x1FD9E8, symSize: 0x0 }
  - { offset: 0x1D0503, size: 0x8, addend: 0x0, symName: _ggml_reset, symObjAddr: 0x18DC, symBinAddr: 0x888F4, symSize: 0x14 }
  - { offset: 0x1D053A, size: 0x8, addend: 0x0, symName: _ggml_hash_size, symObjAddr: 0xEB98, symBinAddr: 0x95BB0, symSize: 0x48 }
  - { offset: 0x1D055B, size: 0x8, addend: 0x0, symName: _ggml_hash_size.primes, symObjAddr: 0x147B0, symBinAddr: 0x148FF0, symSize: 0x0 }
  - { offset: 0x1D05CE, size: 0x8, addend: 0x0, symName: _g_abort_callback, symObjAddr: 0x89A68, symBinAddr: 0x1FD9E0, symSize: 0x0 }
  - { offset: 0x1D0607, size: 0x8, addend: 0x0, symName: _type_traits, symObjAddr: 0x17BB8, symBinAddr: 0x171840, symSize: 0x0 }
  - { offset: 0x1D073D, size: 0x8, addend: 0x0, symName: _GGML_OP_NAME, symObjAddr: 0x18478, symBinAddr: 0x172100, symSize: 0x0 }
  - { offset: 0x1D0762, size: 0x8, addend: 0x0, symName: _GGML_OP_SYMBOL, symObjAddr: 0x18768, symBinAddr: 0x1723F0, symSize: 0x0 }
  - { offset: 0x1D0779, size: 0x8, addend: 0x0, symName: _GGML_UNARY_OP_NAME, symObjAddr: 0x18A58, symBinAddr: 0x1726E0, symSize: 0x0 }
  - { offset: 0x1D079E, size: 0x8, addend: 0x0, symName: _GGML_GLU_OP_NAME, symObjAddr: 0x18B08, symBinAddr: 0x172790, symSize: 0x0 }
  - { offset: 0x1D07C2, size: 0x8, addend: 0x0, symName: _g_logger_state.0, symObjAddr: 0x18B58, symBinAddr: 0x174960, symSize: 0x0 }
  - { offset: 0x1D07CD, size: 0x8, addend: 0x0, symName: _g_logger_state.1, symObjAddr: 0x89A78, symBinAddr: 0x1FD9F0, symSize: 0x0 }
  - { offset: 0x1D1179, size: 0x8, addend: 0x0, symName: _ggml_print_backtrace, symObjAddr: 0x0, symBinAddr: 0x87018, symSize: 0x164 }
  - { offset: 0x1D1243, size: 0x8, addend: 0x0, symName: _ggml_set_abort_callback, symObjAddr: 0x164, symBinAddr: 0x8717C, symSize: 0x14 }
  - { offset: 0x1D12FA, size: 0x8, addend: 0x0, symName: _ggml_set_abort_callback, symObjAddr: 0x164, symBinAddr: 0x8717C, symSize: 0x14 }
  - { offset: 0x1D1335, size: 0x8, addend: 0x0, symName: _ggml_abort, symObjAddr: 0x178, symBinAddr: 0x87190, symSize: 0xAC }
  - { offset: 0x1D13FB, size: 0x8, addend: 0x0, symName: _ggml_log_internal, symObjAddr: 0x224, symBinAddr: 0x8723C, symSize: 0x104 }
  - { offset: 0x1D16D9, size: 0x8, addend: 0x0, symName: _ggml_log_internal, symObjAddr: 0x224, symBinAddr: 0x8723C, symSize: 0x104 }
  - { offset: 0x1D1816, size: 0x8, addend: 0x0, symName: _ggml_log_callback_default, symObjAddr: 0x328, symBinAddr: 0x87340, symSize: 0x30 }
  - { offset: 0x1D189B, size: 0x8, addend: 0x0, symName: _ggml_aligned_malloc, symObjAddr: 0x358, symBinAddr: 0x87370, symSize: 0xC8 }
  - { offset: 0x1D1960, size: 0x8, addend: 0x0, symName: _ggml_aligned_free, symObjAddr: 0x420, symBinAddr: 0x87438, symSize: 0x4 }
  - { offset: 0x1D1988, size: 0x8, addend: 0x0, symName: _ggml_aligned_free, symObjAddr: 0x420, symBinAddr: 0x87438, symSize: 0x4 }
  - { offset: 0x1D199C, size: 0x8, addend: 0x0, symName: _ggml_status_to_string, symObjAddr: 0x424, symBinAddr: 0x8743C, symSize: 0x28 }
  - { offset: 0x1D1AC6, size: 0x8, addend: 0x0, symName: _ggml_fp16_to_fp32, symObjAddr: 0x44C, symBinAddr: 0x87464, symSize: 0x4C }
  - { offset: 0x1D1CD9, size: 0x8, addend: 0x0, symName: _ggml_fp32_to_fp16, symObjAddr: 0x498, symBinAddr: 0x874B0, symSize: 0x78 }
  - { offset: 0x1D1D09, size: 0x8, addend: 0x0, symName: _ggml_fp32_to_fp16, symObjAddr: 0x498, symBinAddr: 0x874B0, symSize: 0x78 }
  - { offset: 0x1D1E63, size: 0x8, addend: 0x0, symName: _ggml_bf16_to_fp32, symObjAddr: 0x510, symBinAddr: 0x87528, symSize: 0xC }
  - { offset: 0x1D1E91, size: 0x8, addend: 0x0, symName: _ggml_bf16_to_fp32, symObjAddr: 0x510, symBinAddr: 0x87528, symSize: 0xC }
  - { offset: 0x1D1F0D, size: 0x8, addend: 0x0, symName: _ggml_fp32_to_bf16, symObjAddr: 0x51C, symBinAddr: 0x87534, symSize: 0x38 }
  - { offset: 0x1D1F6F, size: 0x8, addend: 0x0, symName: _ggml_fp16_to_fp32_row, symObjAddr: 0x554, symBinAddr: 0x8756C, symSize: 0x120 }
  - { offset: 0x1D1FB3, size: 0x8, addend: 0x0, symName: _ggml_fp16_to_fp32_row, symObjAddr: 0x554, symBinAddr: 0x8756C, symSize: 0x120 }
  - { offset: 0x1D2089, size: 0x8, addend: 0x0, symName: _ggml_fp32_to_fp16_row, symObjAddr: 0x674, symBinAddr: 0x8768C, symSize: 0x1A4 }
  - { offset: 0x1D21CA, size: 0x8, addend: 0x0, symName: _ggml_bf16_to_fp32_row, symObjAddr: 0x818, symBinAddr: 0x87830, symSize: 0xDC }
  - { offset: 0x1D2239, size: 0x8, addend: 0x0, symName: _ggml_fp32_to_bf16_row_ref, symObjAddr: 0x8F4, symBinAddr: 0x8790C, symSize: 0xE4 }
  - { offset: 0x1D2265, size: 0x8, addend: 0x0, symName: _ggml_fp32_to_bf16_row_ref, symObjAddr: 0x8F4, symBinAddr: 0x8790C, symSize: 0xE4 }
  - { offset: 0x1D2298, size: 0x8, addend: 0x0, symName: _ggml_fp32_to_bf16_row, symObjAddr: 0x9D8, symBinAddr: 0x879F0, symSize: 0xE4 }
  - { offset: 0x1D2307, size: 0x8, addend: 0x0, symName: _ggml_guid_matches, symObjAddr: 0xABC, symBinAddr: 0x87AD4, symSize: 0x18 }
  - { offset: 0x1D2343, size: 0x8, addend: 0x0, symName: _ggml_version, symObjAddr: 0xAD4, symBinAddr: 0x87AEC, symSize: 0xC }
  - { offset: 0x1D235E, size: 0x8, addend: 0x0, symName: _ggml_commit, symObjAddr: 0xAE0, symBinAddr: 0x87AF8, symSize: 0xC }
  - { offset: 0x1D2379, size: 0x8, addend: 0x0, symName: _ggml_time_init, symObjAddr: 0xAEC, symBinAddr: 0x87B04, symSize: 0x4 }
  - { offset: 0x1D2390, size: 0x8, addend: 0x0, symName: _ggml_time_ms, symObjAddr: 0xAF0, symBinAddr: 0x87B08, symSize: 0x4C }
  - { offset: 0x1D243A, size: 0x8, addend: 0x0, symName: _ggml_time_us, symObjAddr: 0xB3C, symBinAddr: 0x87B54, symSize: 0x50 }
  - { offset: 0x1D2482, size: 0x8, addend: 0x0, symName: _ggml_cycles, symObjAddr: 0xB8C, symBinAddr: 0x87BA4, symSize: 0x4 }
  - { offset: 0x1D24A1, size: 0x8, addend: 0x0, symName: _ggml_cycles, symObjAddr: 0xB8C, symBinAddr: 0x87BA4, symSize: 0x4 }
  - { offset: 0x1D24BC, size: 0x8, addend: 0x0, symName: _ggml_cycles_per_ms, symObjAddr: 0xB90, symBinAddr: 0x87BA8, symSize: 0x8 }
  - { offset: 0x1D24D7, size: 0x8, addend: 0x0, symName: _ggml_fopen, symObjAddr: 0xB98, symBinAddr: 0x87BB0, symSize: 0x4 }
  - { offset: 0x1D24FF, size: 0x8, addend: 0x0, symName: _ggml_fopen, symObjAddr: 0xB98, symBinAddr: 0x87BB0, symSize: 0x4 }
  - { offset: 0x1D2538, size: 0x8, addend: 0x0, symName: _ggml_get_type_traits, symObjAddr: 0xB9C, symBinAddr: 0x87BB4, symSize: 0x4C }
  - { offset: 0x1D2568, size: 0x8, addend: 0x0, symName: _ggml_print_object, symObjAddr: 0xBE8, symBinAddr: 0x87C00, symSize: 0x40 }
  - { offset: 0x1D257C, size: 0x8, addend: 0x0, symName: _ggml_print_object, symObjAddr: 0xBE8, symBinAddr: 0x87C00, symSize: 0x40 }
  - { offset: 0x1D25D4, size: 0x8, addend: 0x0, symName: _ggml_print_objects, symObjAddr: 0xC28, symBinAddr: 0x87C40, symSize: 0x94 }
  - { offset: 0x1D2673, size: 0x8, addend: 0x0, symName: _ggml_nelements, symObjAddr: 0xCBC, symBinAddr: 0x87CD4, symSize: 0x18 }
  - { offset: 0x1D2692, size: 0x8, addend: 0x0, symName: _ggml_nrows, symObjAddr: 0xCD4, symBinAddr: 0x87CEC, symSize: 0x14 }
  - { offset: 0x1D26F7, size: 0x8, addend: 0x0, symName: _ggml_nbytes, symObjAddr: 0xCE8, symBinAddr: 0x87D00, symSize: 0xB8 }
  - { offset: 0x1D2729, size: 0x8, addend: 0x0, symName: _ggml_nbytes, symObjAddr: 0xCE8, symBinAddr: 0x87D00, symSize: 0xB8 }
  - { offset: 0x1D2788, size: 0x8, addend: 0x0, symName: _ggml_blck_size, symObjAddr: 0xDA0, symBinAddr: 0x87DB8, symSize: 0x18 }
  - { offset: 0x1D27A7, size: 0x8, addend: 0x0, symName: _ggml_type_size, symObjAddr: 0xDB8, symBinAddr: 0x87DD0, symSize: 0x18 }
  - { offset: 0x1D2838, size: 0x8, addend: 0x0, symName: _ggml_nbytes_pad, symObjAddr: 0xDD0, symBinAddr: 0x87DE8, symSize: 0xAC }
  - { offset: 0x1D2890, size: 0x8, addend: 0x0, symName: _ggml_nbytes_pad, symObjAddr: 0xDD0, symBinAddr: 0x87DE8, symSize: 0xAC }
  - { offset: 0x1D28ED, size: 0x8, addend: 0x0, symName: _ggml_row_size, symObjAddr: 0xE7C, symBinAddr: 0x87E94, symSize: 0x24 }
  - { offset: 0x1D2917, size: 0x8, addend: 0x0, symName: _ggml_row_size, symObjAddr: 0xE7C, symBinAddr: 0x87E94, symSize: 0x24 }
  - { offset: 0x1D2949, size: 0x8, addend: 0x0, symName: _ggml_type_sizef, symObjAddr: 0xEA0, symBinAddr: 0x87EB8, symSize: 0x28 }
  - { offset: 0x1D2974, size: 0x8, addend: 0x0, symName: _ggml_type_name, symObjAddr: 0xEC8, symBinAddr: 0x87EE0, symSize: 0x2C }
  - { offset: 0x1D2993, size: 0x8, addend: 0x0, symName: _ggml_is_quantized, symObjAddr: 0xEF4, symBinAddr: 0x87F0C, symSize: 0x18 }
  - { offset: 0x1D29B2, size: 0x8, addend: 0x0, symName: _ggml_op_name, symObjAddr: 0xF0C, symBinAddr: 0x87F24, symSize: 0x10 }
  - { offset: 0x1D29D1, size: 0x8, addend: 0x0, symName: _ggml_op_symbol, symObjAddr: 0xF1C, symBinAddr: 0x87F34, symSize: 0x10 }
  - { offset: 0x1D29F0, size: 0x8, addend: 0x0, symName: _ggml_unary_op_name, symObjAddr: 0xF2C, symBinAddr: 0x87F44, symSize: 0x10 }
  - { offset: 0x1D2A0F, size: 0x8, addend: 0x0, symName: _ggml_glu_op_name, symObjAddr: 0xF3C, symBinAddr: 0x87F54, symSize: 0x10 }
  - { offset: 0x1D2AE0, size: 0x8, addend: 0x0, symName: _ggml_op_desc, symObjAddr: 0xF4C, symBinAddr: 0x87F64, symSize: 0x58 }
  - { offset: 0x1D2C11, size: 0x8, addend: 0x0, symName: _ggml_get_unary_op, symObjAddr: 0xFA4, symBinAddr: 0x87FBC, symSize: 0x44 }
  - { offset: 0x1D2C59, size: 0x8, addend: 0x0, symName: _ggml_get_glu_op, symObjAddr: 0xFE8, symBinAddr: 0x88000, symSize: 0x44 }
  - { offset: 0x1D2C6D, size: 0x8, addend: 0x0, symName: _ggml_get_glu_op, symObjAddr: 0xFE8, symBinAddr: 0x88000, symSize: 0x44 }
  - { offset: 0x1D2CB5, size: 0x8, addend: 0x0, symName: _ggml_element_size, symObjAddr: 0x102C, symBinAddr: 0x88044, symSize: 0x1C }
  - { offset: 0x1D2CC9, size: 0x8, addend: 0x0, symName: _ggml_element_size, symObjAddr: 0x102C, symBinAddr: 0x88044, symSize: 0x1C }
  - { offset: 0x1D2CFE, size: 0x8, addend: 0x0, symName: _ggml_is_scalar, symObjAddr: 0x1048, symBinAddr: 0x88060, symSize: 0x3C }
  - { offset: 0x1D2D1D, size: 0x8, addend: 0x0, symName: _ggml_is_vector, symObjAddr: 0x1084, symBinAddr: 0x8809C, symSize: 0x30 }
  - { offset: 0x1D2D3C, size: 0x8, addend: 0x0, symName: _ggml_is_matrix, symObjAddr: 0x10B4, symBinAddr: 0x880CC, symSize: 0x24 }
  - { offset: 0x1D2D5B, size: 0x8, addend: 0x0, symName: _ggml_is_3d, symObjAddr: 0x10D8, symBinAddr: 0x880F0, symSize: 0x10 }
  - { offset: 0x1D2D7A, size: 0x8, addend: 0x0, symName: _ggml_n_dims, symObjAddr: 0x10E8, symBinAddr: 0x88100, symSize: 0x3C }
  - { offset: 0x1D2DBF, size: 0x8, addend: 0x0, symName: _ggml_ftype_to_ggml_type, symObjAddr: 0x1124, symBinAddr: 0x8813C, symSize: 0x58 }
  - { offset: 0x1D2E00, size: 0x8, addend: 0x0, symName: _ggml_tensor_overhead, symObjAddr: 0x117C, symBinAddr: 0x88194, symSize: 0x8 }
  - { offset: 0x1D2E14, size: 0x8, addend: 0x0, symName: _ggml_tensor_overhead, symObjAddr: 0x117C, symBinAddr: 0x88194, symSize: 0x8 }
  - { offset: 0x1D2E2F, size: 0x8, addend: 0x0, symName: _ggml_is_transposed, symObjAddr: 0x1184, symBinAddr: 0x8819C, symSize: 0x10 }
  - { offset: 0x1D2EB0, size: 0x8, addend: 0x0, symName: _ggml_is_contiguous, symObjAddr: 0x1194, symBinAddr: 0x881AC, symSize: 0x9C }
  - { offset: 0x1D2ED2, size: 0x8, addend: 0x0, symName: _ggml_is_contiguous, symObjAddr: 0x1194, symBinAddr: 0x881AC, symSize: 0x9C }
  - { offset: 0x1D2EF0, size: 0x8, addend: 0x0, symName: _ggml_is_contiguous, symObjAddr: 0x1194, symBinAddr: 0x881AC, symSize: 0x9C }
  - { offset: 0x1D2F63, size: 0x8, addend: 0x0, symName: _ggml_is_contiguous_0, symObjAddr: 0x1230, symBinAddr: 0x88248, symSize: 0x9C }
  - { offset: 0x1D2F85, size: 0x8, addend: 0x0, symName: _ggml_is_contiguous_0, symObjAddr: 0x1230, symBinAddr: 0x88248, symSize: 0x9C }
  - { offset: 0x1D2FF7, size: 0x8, addend: 0x0, symName: _ggml_is_contiguous_1, symObjAddr: 0x12CC, symBinAddr: 0x882E4, symSize: 0xB0 }
  - { offset: 0x1D3019, size: 0x8, addend: 0x0, symName: _ggml_is_contiguous_1, symObjAddr: 0x12CC, symBinAddr: 0x882E4, symSize: 0xB0 }
  - { offset: 0x1D3083, size: 0x8, addend: 0x0, symName: _ggml_is_contiguous_2, symObjAddr: 0x137C, symBinAddr: 0x88394, symSize: 0x9C }
  - { offset: 0x1D30B3, size: 0x8, addend: 0x0, symName: _ggml_is_contiguous_2, symObjAddr: 0x137C, symBinAddr: 0x88394, symSize: 0x9C }
  - { offset: 0x1D3139, size: 0x8, addend: 0x0, symName: _ggml_is_contiguously_allocated, symObjAddr: 0x1418, symBinAddr: 0x88430, symSize: 0xCC }
  - { offset: 0x1D3191, size: 0x8, addend: 0x0, symName: _ggml_is_contiguously_allocated, symObjAddr: 0x1418, symBinAddr: 0x88430, symSize: 0xCC }
  - { offset: 0x1D3239, size: 0x8, addend: 0x0, symName: _ggml_is_permuted, symObjAddr: 0x14E4, symBinAddr: 0x884FC, symSize: 0x38 }
  - { offset: 0x1D3266, size: 0x8, addend: 0x0, symName: _ggml_is_contiguous_channels, symObjAddr: 0x151C, symBinAddr: 0x88534, symSize: 0x48 }
  - { offset: 0x1D329B, size: 0x8, addend: 0x0, symName: _ggml_is_contiguous_rows, symObjAddr: 0x1564, symBinAddr: 0x8857C, symSize: 0x48 }
  - { offset: 0x1D32E6, size: 0x8, addend: 0x0, symName: _ggml_is_empty, symObjAddr: 0x15AC, symBinAddr: 0x885C4, symSize: 0x30 }
  - { offset: 0x1D3304, size: 0x8, addend: 0x0, symName: _ggml_is_empty, symObjAddr: 0x15AC, symBinAddr: 0x885C4, symSize: 0x30 }
  - { offset: 0x1D331E, size: 0x8, addend: 0x0, symName: _ggml_are_same_shape, symObjAddr: 0x15DC, symBinAddr: 0x885F4, symSize: 0x4C }
  - { offset: 0x1D3345, size: 0x8, addend: 0x0, symName: _ggml_are_same_stride, symObjAddr: 0x1628, symBinAddr: 0x88640, symSize: 0x4C }
  - { offset: 0x1D33AD, size: 0x8, addend: 0x0, symName: _ggml_can_repeat, symObjAddr: 0x1674, symBinAddr: 0x8868C, symSize: 0xA0 }
  - { offset: 0x1D33D7, size: 0x8, addend: 0x0, symName: _ggml_can_repeat, symObjAddr: 0x1674, symBinAddr: 0x8868C, symSize: 0xA0 }
  - { offset: 0x1D33F1, size: 0x8, addend: 0x0, symName: _ggml_can_repeat, symObjAddr: 0x1674, symBinAddr: 0x8868C, symSize: 0xA0 }
  - { offset: 0x1D34E9, size: 0x8, addend: 0x0, symName: _ggml_reset, symObjAddr: 0x18DC, symBinAddr: 0x888F4, symSize: 0x14 }
  - { offset: 0x1D3535, size: 0x8, addend: 0x0, symName: _ggml_free, symObjAddr: 0x18F0, symBinAddr: 0x88908, symSize: 0x40 }
  - { offset: 0x1D359B, size: 0x8, addend: 0x0, symName: _ggml_used_mem, symObjAddr: 0x1930, symBinAddr: 0x88948, symSize: 0x1C }
  - { offset: 0x1D35C8, size: 0x8, addend: 0x0, symName: _ggml_get_no_alloc, symObjAddr: 0x194C, symBinAddr: 0x88964, symSize: 0x8 }
  - { offset: 0x1D35F5, size: 0x8, addend: 0x0, symName: _ggml_set_no_alloc, symObjAddr: 0x1954, symBinAddr: 0x8896C, symSize: 0x8 }
  - { offset: 0x1D3629, size: 0x8, addend: 0x0, symName: _ggml_get_mem_buffer, symObjAddr: 0x195C, symBinAddr: 0x88974, symSize: 0x8 }
  - { offset: 0x1D3656, size: 0x8, addend: 0x0, symName: _ggml_get_mem_size, symObjAddr: 0x1964, symBinAddr: 0x8897C, symSize: 0x8 }
  - { offset: 0x1D377B, size: 0x8, addend: 0x0, symName: _ggml_get_max_tensor_size, symObjAddr: 0x196C, symBinAddr: 0x88984, symSize: 0xFC }
  - { offset: 0x1D37D3, size: 0x8, addend: 0x0, symName: _ggml_get_max_tensor_size, symObjAddr: 0x196C, symBinAddr: 0x88984, symSize: 0xFC }
  - { offset: 0x1D38C7, size: 0x8, addend: 0x0, symName: _ggml_get_first_tensor, symObjAddr: 0x1A68, symBinAddr: 0x88A80, symSize: 0x30 }
  - { offset: 0x1D38FA, size: 0x8, addend: 0x0, symName: _ggml_get_next_tensor, symObjAddr: 0x1A98, symBinAddr: 0x88AB0, symSize: 0x30 }
  - { offset: 0x1D3935, size: 0x8, addend: 0x0, symName: _ggml_new_tensor, symObjAddr: 0x1AC8, symBinAddr: 0x88AE0, symSize: 0xC }
  - { offset: 0x1D39A5, size: 0x8, addend: 0x0, symName: _ggml_new_tensor_impl, symObjAddr: 0x1AD4, symBinAddr: 0x88AEC, symSize: 0x448 }
  - { offset: 0x1D3DC9, size: 0x8, addend: 0x0, symName: _ggml_new_tensor_1d, symObjAddr: 0x1F1C, symBinAddr: 0x88F34, symSize: 0x30 }
  - { offset: 0x1D3E6C, size: 0x8, addend: 0x0, symName: _ggml_new_tensor_2d, symObjAddr: 0x1F4C, symBinAddr: 0x88F64, symSize: 0x5C }
  - { offset: 0x1D3F26, size: 0x8, addend: 0x0, symName: _ggml_new_tensor_3d, symObjAddr: 0x1FA8, symBinAddr: 0x88FC0, symSize: 0x60 }
  - { offset: 0x1D3FE8, size: 0x8, addend: 0x0, symName: _ggml_new_tensor_4d, symObjAddr: 0x2008, symBinAddr: 0x89020, symSize: 0x60 }
  - { offset: 0x1D40B6, size: 0x8, addend: 0x0, symName: _ggml_new_buffer, symObjAddr: 0x2068, symBinAddr: 0x89080, symSize: 0xDC }
  - { offset: 0x1D4193, size: 0x8, addend: 0x0, symName: _ggml_dup_tensor, symObjAddr: 0x2144, symBinAddr: 0x8915C, symSize: 0x18 }
  - { offset: 0x1D4219, size: 0x8, addend: 0x0, symName: _ggml_unravel_index, symObjAddr: 0x215C, symBinAddr: 0x89174, symSize: 0x4C }
  - { offset: 0x1D4302, size: 0x8, addend: 0x0, symName: _ggml_get_data, symObjAddr: 0x21A8, symBinAddr: 0x891C0, symSize: 0x8 }
  - { offset: 0x1D432F, size: 0x8, addend: 0x0, symName: _ggml_get_data_f32, symObjAddr: 0x21B0, symBinAddr: 0x891C8, symSize: 0x8 }
  - { offset: 0x1D435C, size: 0x8, addend: 0x0, symName: _ggml_get_name, symObjAddr: 0x21B8, symBinAddr: 0x891D0, symSize: 0x8 }
  - { offset: 0x1D437B, size: 0x8, addend: 0x0, symName: _ggml_set_name, symObjAddr: 0x21C0, symBinAddr: 0x891D8, symSize: 0x2C }
  - { offset: 0x1D43C6, size: 0x8, addend: 0x0, symName: _ggml_format_name, symObjAddr: 0x21EC, symBinAddr: 0x89204, symSize: 0x44 }
  - { offset: 0x1D4416, size: 0x8, addend: 0x0, symName: _ggml_view_tensor, symObjAddr: 0x2230, symBinAddr: 0x89248, symSize: 0x70 }
  - { offset: 0x1D44A1, size: 0x8, addend: 0x0, symName: _ggml_get_tensor, symObjAddr: 0x22A0, symBinAddr: 0x892B8, symSize: 0x78 }
  - { offset: 0x1D45C4, size: 0x8, addend: 0x0, symName: _ggml_dup, symObjAddr: 0x2318, symBinAddr: 0x89330, symSize: 0x40 }
  - { offset: 0x1D470F, size: 0x8, addend: 0x0, symName: _ggml_dup_inplace, symObjAddr: 0x2358, symBinAddr: 0x89370, symSize: 0x7C }
  - { offset: 0x1D4814, size: 0x8, addend: 0x0, symName: _ggml_add, symObjAddr: 0x23D4, symBinAddr: 0x893EC, symSize: 0x8 }
  - { offset: 0x1D488A, size: 0x8, addend: 0x0, symName: _ggml_add_impl, symObjAddr: 0x23DC, symBinAddr: 0x893F4, symSize: 0x144 }
  - { offset: 0x1D4A66, size: 0x8, addend: 0x0, symName: _ggml_add_inplace, symObjAddr: 0x2520, symBinAddr: 0x89538, symSize: 0x8 }
  - { offset: 0x1D4AA3, size: 0x8, addend: 0x0, symName: _ggml_add_inplace, symObjAddr: 0x2520, symBinAddr: 0x89538, symSize: 0x8 }
  - { offset: 0x1D4BAE, size: 0x8, addend: 0x0, symName: _ggml_add_cast, symObjAddr: 0x2528, symBinAddr: 0x89540, symSize: 0x13C }
  - { offset: 0x1D4D97, size: 0x8, addend: 0x0, symName: _ggml_add_id, symObjAddr: 0x2664, symBinAddr: 0x8967C, symSize: 0x128 }
  - { offset: 0x1D4DAB, size: 0x8, addend: 0x0, symName: _ggml_add_id, symObjAddr: 0x2664, symBinAddr: 0x8967C, symSize: 0x128 }
  - { offset: 0x1D4EEA, size: 0x8, addend: 0x0, symName: _ggml_add1, symObjAddr: 0x278C, symBinAddr: 0x897A4, symSize: 0x8 }
  - { offset: 0x1D4EFE, size: 0x8, addend: 0x0, symName: _ggml_add1, symObjAddr: 0x278C, symBinAddr: 0x897A4, symSize: 0x8 }
  - { offset: 0x1D4F74, size: 0x8, addend: 0x0, symName: _ggml_add1_impl, symObjAddr: 0x2794, symBinAddr: 0x897AC, symSize: 0x15C }
  - { offset: 0x1D515E, size: 0x8, addend: 0x0, symName: _ggml_add1_inplace, symObjAddr: 0x28F0, symBinAddr: 0x89908, symSize: 0x8 }
  - { offset: 0x1D51AA, size: 0x8, addend: 0x0, symName: _ggml_add1_inplace, symObjAddr: 0x28F0, symBinAddr: 0x89908, symSize: 0x8 }
  - { offset: 0x1D5220, size: 0x8, addend: 0x0, symName: _ggml_acc, symObjAddr: 0x28F8, symBinAddr: 0x89910, symSize: 0x8 }
  - { offset: 0x1D52F2, size: 0x8, addend: 0x0, symName: _ggml_acc_impl, symObjAddr: 0x2900, symBinAddr: 0x89918, symSize: 0x23C }
  - { offset: 0x1D560C, size: 0x8, addend: 0x0, symName: _ggml_acc_inplace, symObjAddr: 0x2B3C, symBinAddr: 0x89B54, symSize: 0x8 }
  - { offset: 0x1D566A, size: 0x8, addend: 0x0, symName: _ggml_acc_inplace, symObjAddr: 0x2B3C, symBinAddr: 0x89B54, symSize: 0x8 }
  - { offset: 0x1D573C, size: 0x8, addend: 0x0, symName: _ggml_sub, symObjAddr: 0x2B44, symBinAddr: 0x89B5C, symSize: 0x8 }
  - { offset: 0x1D57B2, size: 0x8, addend: 0x0, symName: _ggml_sub_impl, symObjAddr: 0x2B4C, symBinAddr: 0x89B64, symSize: 0x144 }
  - { offset: 0x1D598E, size: 0x8, addend: 0x0, symName: _ggml_sub_inplace, symObjAddr: 0x2C90, symBinAddr: 0x89CA8, symSize: 0x8 }
  - { offset: 0x1D59A2, size: 0x8, addend: 0x0, symName: _ggml_sub_inplace, symObjAddr: 0x2C90, symBinAddr: 0x89CA8, symSize: 0x8 }
  - { offset: 0x1D5A18, size: 0x8, addend: 0x0, symName: _ggml_mul, symObjAddr: 0x2C98, symBinAddr: 0x89CB0, symSize: 0x8 }
  - { offset: 0x1D5A72, size: 0x8, addend: 0x0, symName: _ggml_mul_impl, symObjAddr: 0x2CA0, symBinAddr: 0x89CB8, symSize: 0x144 }
  - { offset: 0x1D5C4E, size: 0x8, addend: 0x0, symName: _ggml_mul_inplace, symObjAddr: 0x2DE4, symBinAddr: 0x89DFC, symSize: 0x8 }
  - { offset: 0x1D5C62, size: 0x8, addend: 0x0, symName: _ggml_mul_inplace, symObjAddr: 0x2DE4, symBinAddr: 0x89DFC, symSize: 0x8 }
  - { offset: 0x1D5CD8, size: 0x8, addend: 0x0, symName: _ggml_div, symObjAddr: 0x2DEC, symBinAddr: 0x89E04, symSize: 0x8 }
  - { offset: 0x1D5D32, size: 0x8, addend: 0x0, symName: _ggml_div_impl, symObjAddr: 0x2DF4, symBinAddr: 0x89E0C, symSize: 0x144 }
  - { offset: 0x1D5F0E, size: 0x8, addend: 0x0, symName: _ggml_div_inplace, symObjAddr: 0x2F38, symBinAddr: 0x89F50, symSize: 0x8 }
  - { offset: 0x1D5F22, size: 0x8, addend: 0x0, symName: _ggml_div_inplace, symObjAddr: 0x2F38, symBinAddr: 0x89F50, symSize: 0x8 }
  - { offset: 0x1D5FDB, size: 0x8, addend: 0x0, symName: _ggml_sqr, symObjAddr: 0x2F40, symBinAddr: 0x89F58, symSize: 0x40 }
  - { offset: 0x1D60E0, size: 0x8, addend: 0x0, symName: _ggml_sqr_inplace, symObjAddr: 0x2F80, symBinAddr: 0x89F98, symSize: 0x7C }
  - { offset: 0x1D6228, size: 0x8, addend: 0x0, symName: _ggml_sqrt, symObjAddr: 0x2FFC, symBinAddr: 0x8A014, symSize: 0x40 }
  - { offset: 0x1D632D, size: 0x8, addend: 0x0, symName: _ggml_sqrt_inplace, symObjAddr: 0x303C, symBinAddr: 0x8A054, symSize: 0x7C }
  - { offset: 0x1D6475, size: 0x8, addend: 0x0, symName: _ggml_log, symObjAddr: 0x30B8, symBinAddr: 0x8A0D0, symSize: 0x40 }
  - { offset: 0x1D657A, size: 0x8, addend: 0x0, symName: _ggml_log_inplace, symObjAddr: 0x30F8, symBinAddr: 0x8A110, symSize: 0x7C }
  - { offset: 0x1D6721, size: 0x8, addend: 0x0, symName: _ggml_expm1, symObjAddr: 0x3174, symBinAddr: 0x8A18C, symSize: 0x10C }
  - { offset: 0x1D68ED, size: 0x8, addend: 0x0, symName: _ggml_unary, symObjAddr: 0x3280, symBinAddr: 0x8A298, symSize: 0x10C }
  - { offset: 0x1D692F, size: 0x8, addend: 0x0, symName: _ggml_unary, symObjAddr: 0x3280, symBinAddr: 0x8A298, symSize: 0x10C }
  - { offset: 0x1D6AF7, size: 0x8, addend: 0x0, symName: _ggml_expm1_inplace, symObjAddr: 0x338C, symBinAddr: 0x8A3A4, symSize: 0x8 }
  - { offset: 0x1D6B0B, size: 0x8, addend: 0x0, symName: _ggml_expm1_inplace, symObjAddr: 0x338C, symBinAddr: 0x8A3A4, symSize: 0x8 }
  - { offset: 0x1D6B6A, size: 0x8, addend: 0x0, symName: _ggml_unary_inplace, symObjAddr: 0x3394, symBinAddr: 0x8A3AC, symSize: 0x140 }
  - { offset: 0x1D6D44, size: 0x8, addend: 0x0, symName: _ggml_softplus, symObjAddr: 0x34D4, symBinAddr: 0x8A4EC, symSize: 0x10C }
  - { offset: 0x1D6D58, size: 0x8, addend: 0x0, symName: _ggml_softplus, symObjAddr: 0x34D4, symBinAddr: 0x8A4EC, symSize: 0x10C }
  - { offset: 0x1D6F24, size: 0x8, addend: 0x0, symName: _ggml_softplus_inplace, symObjAddr: 0x35E0, symBinAddr: 0x8A5F8, symSize: 0x8 }
  - { offset: 0x1D6F38, size: 0x8, addend: 0x0, symName: _ggml_softplus_inplace, symObjAddr: 0x35E0, symBinAddr: 0x8A5F8, symSize: 0x8 }
  - { offset: 0x1D6FDA, size: 0x8, addend: 0x0, symName: _ggml_sin, symObjAddr: 0x35E8, symBinAddr: 0x8A600, symSize: 0x40 }
  - { offset: 0x1D70CA, size: 0x8, addend: 0x0, symName: _ggml_sin_inplace, symObjAddr: 0x3628, symBinAddr: 0x8A640, symSize: 0x7C }
  - { offset: 0x1D7212, size: 0x8, addend: 0x0, symName: _ggml_cos, symObjAddr: 0x36A4, symBinAddr: 0x8A6BC, symSize: 0x40 }
  - { offset: 0x1D7302, size: 0x8, addend: 0x0, symName: _ggml_cos_inplace, symObjAddr: 0x36E4, symBinAddr: 0x8A6FC, symSize: 0x7C }
  - { offset: 0x1D743D, size: 0x8, addend: 0x0, symName: _ggml_sum, symObjAddr: 0x3760, symBinAddr: 0x8A778, symSize: 0x50 }
  - { offset: 0x1D752C, size: 0x8, addend: 0x0, symName: _ggml_sum_rows, symObjAddr: 0x37B0, symBinAddr: 0x8A7C8, symSize: 0x8C }
  - { offset: 0x1D7617, size: 0x8, addend: 0x0, symName: _ggml_cumsum, symObjAddr: 0x383C, symBinAddr: 0x8A854, symSize: 0x74 }
  - { offset: 0x1D76E1, size: 0x8, addend: 0x0, symName: _ggml_mean, symObjAddr: 0x38B0, symBinAddr: 0x8A8C8, symSize: 0x8C }
  - { offset: 0x1D76F5, size: 0x8, addend: 0x0, symName: _ggml_mean, symObjAddr: 0x38B0, symBinAddr: 0x8A8C8, symSize: 0x8C }
  - { offset: 0x1D77BC, size: 0x8, addend: 0x0, symName: _ggml_argmax, symObjAddr: 0x393C, symBinAddr: 0x8A954, symSize: 0xC0 }
  - { offset: 0x1D78DE, size: 0x8, addend: 0x0, symName: _ggml_count_equal, symObjAddr: 0x39FC, symBinAddr: 0x8AA14, symSize: 0xB8 }
  - { offset: 0x1D791B, size: 0x8, addend: 0x0, symName: _ggml_count_equal, symObjAddr: 0x39FC, symBinAddr: 0x8AA14, symSize: 0xB8 }
  - { offset: 0x1D7A41, size: 0x8, addend: 0x0, symName: _ggml_repeat, symObjAddr: 0x3AB4, symBinAddr: 0x8AACC, symSize: 0xF0 }
  - { offset: 0x1D7A55, size: 0x8, addend: 0x0, symName: _ggml_repeat, symObjAddr: 0x3AB4, symBinAddr: 0x8AACC, symSize: 0xF0 }
  - { offset: 0x1D7B9A, size: 0x8, addend: 0x0, symName: _ggml_repeat_4d, symObjAddr: 0x3BA4, symBinAddr: 0x8ABBC, symSize: 0xF0 }
  - { offset: 0x1D7C26, size: 0x8, addend: 0x0, symName: _ggml_repeat_4d, symObjAddr: 0x3BA4, symBinAddr: 0x8ABBC, symSize: 0xF0 }
  - { offset: 0x1D7DC1, size: 0x8, addend: 0x0, symName: _ggml_repeat_back, symObjAddr: 0x3C94, symBinAddr: 0x8ACAC, symSize: 0xF0 }
  - { offset: 0x1D7DD5, size: 0x8, addend: 0x0, symName: _ggml_repeat_back, symObjAddr: 0x3C94, symBinAddr: 0x8ACAC, symSize: 0xF0 }
  - { offset: 0x1D7F24, size: 0x8, addend: 0x0, symName: _ggml_concat, symObjAddr: 0x3D84, symBinAddr: 0x8AD9C, symSize: 0x1B4 }
  - { offset: 0x1D7F38, size: 0x8, addend: 0x0, symName: _ggml_concat, symObjAddr: 0x3D84, symBinAddr: 0x8AD9C, symSize: 0x1B4 }
  - { offset: 0x1D80A8, size: 0x8, addend: 0x0, symName: _ggml_abs, symObjAddr: 0x3F38, symBinAddr: 0x8AF50, symSize: 0x10C }
  - { offset: 0x1D8274, size: 0x8, addend: 0x0, symName: _ggml_abs_inplace, symObjAddr: 0x4044, symBinAddr: 0x8B05C, symSize: 0x8 }
  - { offset: 0x1D8288, size: 0x8, addend: 0x0, symName: _ggml_abs_inplace, symObjAddr: 0x4044, symBinAddr: 0x8B05C, symSize: 0x8 }
  - { offset: 0x1D82E7, size: 0x8, addend: 0x0, symName: _ggml_sgn, symObjAddr: 0x404C, symBinAddr: 0x8B064, symSize: 0x10C }
  - { offset: 0x1D84B3, size: 0x8, addend: 0x0, symName: _ggml_sgn_inplace, symObjAddr: 0x4158, symBinAddr: 0x8B170, symSize: 0x8 }
  - { offset: 0x1D84C7, size: 0x8, addend: 0x0, symName: _ggml_sgn_inplace, symObjAddr: 0x4158, symBinAddr: 0x8B170, symSize: 0x8 }
  - { offset: 0x1D8526, size: 0x8, addend: 0x0, symName: _ggml_neg, symObjAddr: 0x4160, symBinAddr: 0x8B178, symSize: 0x10C }
  - { offset: 0x1D86DD, size: 0x8, addend: 0x0, symName: _ggml_neg_inplace, symObjAddr: 0x426C, symBinAddr: 0x8B284, symSize: 0x8 }
  - { offset: 0x1D86F1, size: 0x8, addend: 0x0, symName: _ggml_neg_inplace, symObjAddr: 0x426C, symBinAddr: 0x8B284, symSize: 0x8 }
  - { offset: 0x1D8750, size: 0x8, addend: 0x0, symName: _ggml_step, symObjAddr: 0x4274, symBinAddr: 0x8B28C, symSize: 0x10C }
  - { offset: 0x1D891C, size: 0x8, addend: 0x0, symName: _ggml_step_inplace, symObjAddr: 0x4380, symBinAddr: 0x8B398, symSize: 0x8 }
  - { offset: 0x1D8930, size: 0x8, addend: 0x0, symName: _ggml_step_inplace, symObjAddr: 0x4380, symBinAddr: 0x8B398, symSize: 0x8 }
  - { offset: 0x1D898F, size: 0x8, addend: 0x0, symName: _ggml_tanh, symObjAddr: 0x4388, symBinAddr: 0x8B3A0, symSize: 0x10C }
  - { offset: 0x1D8B5B, size: 0x8, addend: 0x0, symName: _ggml_tanh_inplace, symObjAddr: 0x4494, symBinAddr: 0x8B4AC, symSize: 0x8 }
  - { offset: 0x1D8B6F, size: 0x8, addend: 0x0, symName: _ggml_tanh_inplace, symObjAddr: 0x4494, symBinAddr: 0x8B4AC, symSize: 0x8 }
  - { offset: 0x1D8BCE, size: 0x8, addend: 0x0, symName: _ggml_elu, symObjAddr: 0x449C, symBinAddr: 0x8B4B4, symSize: 0x10C }
  - { offset: 0x1D8D9A, size: 0x8, addend: 0x0, symName: _ggml_elu_inplace, symObjAddr: 0x45A8, symBinAddr: 0x8B5C0, symSize: 0x8 }
  - { offset: 0x1D8DAE, size: 0x8, addend: 0x0, symName: _ggml_elu_inplace, symObjAddr: 0x45A8, symBinAddr: 0x8B5C0, symSize: 0x8 }
  - { offset: 0x1D8E0D, size: 0x8, addend: 0x0, symName: _ggml_relu, symObjAddr: 0x45B0, symBinAddr: 0x8B5C8, symSize: 0x10C }
  - { offset: 0x1D8FD9, size: 0x8, addend: 0x0, symName: _ggml_relu_inplace, symObjAddr: 0x46BC, symBinAddr: 0x8B6D4, symSize: 0x8 }
  - { offset: 0x1D8FED, size: 0x8, addend: 0x0, symName: _ggml_relu_inplace, symObjAddr: 0x46BC, symBinAddr: 0x8B6D4, symSize: 0x8 }
  - { offset: 0x1D904C, size: 0x8, addend: 0x0, symName: _ggml_leaky_relu, symObjAddr: 0x46C4, symBinAddr: 0x8B6DC, symSize: 0xCC }
  - { offset: 0x1D91DD, size: 0x8, addend: 0x0, symName: _ggml_sigmoid, symObjAddr: 0x4790, symBinAddr: 0x8B7A8, symSize: 0x10C }
  - { offset: 0x1D91F1, size: 0x8, addend: 0x0, symName: _ggml_sigmoid, symObjAddr: 0x4790, symBinAddr: 0x8B7A8, symSize: 0x10C }
  - { offset: 0x1D93BD, size: 0x8, addend: 0x0, symName: _ggml_sigmoid_inplace, symObjAddr: 0x489C, symBinAddr: 0x8B8B4, symSize: 0x8 }
  - { offset: 0x1D93D1, size: 0x8, addend: 0x0, symName: _ggml_sigmoid_inplace, symObjAddr: 0x489C, symBinAddr: 0x8B8B4, symSize: 0x8 }
  - { offset: 0x1D9430, size: 0x8, addend: 0x0, symName: _ggml_gelu, symObjAddr: 0x48A4, symBinAddr: 0x8B8BC, symSize: 0x10C }
  - { offset: 0x1D95FC, size: 0x8, addend: 0x0, symName: _ggml_gelu_inplace, symObjAddr: 0x49B0, symBinAddr: 0x8B9C8, symSize: 0x8 }
  - { offset: 0x1D9610, size: 0x8, addend: 0x0, symName: _ggml_gelu_inplace, symObjAddr: 0x49B0, symBinAddr: 0x8B9C8, symSize: 0x8 }
  - { offset: 0x1D966F, size: 0x8, addend: 0x0, symName: _ggml_gelu_erf, symObjAddr: 0x49B8, symBinAddr: 0x8B9D0, symSize: 0x10C }
  - { offset: 0x1D983B, size: 0x8, addend: 0x0, symName: _ggml_gelu_erf_inplace, symObjAddr: 0x4AC4, symBinAddr: 0x8BADC, symSize: 0x8 }
  - { offset: 0x1D984F, size: 0x8, addend: 0x0, symName: _ggml_gelu_erf_inplace, symObjAddr: 0x4AC4, symBinAddr: 0x8BADC, symSize: 0x8 }
  - { offset: 0x1D98AE, size: 0x8, addend: 0x0, symName: _ggml_gelu_quick, symObjAddr: 0x4ACC, symBinAddr: 0x8BAE4, symSize: 0x10C }
  - { offset: 0x1D9A7A, size: 0x8, addend: 0x0, symName: _ggml_gelu_quick_inplace, symObjAddr: 0x4BD8, symBinAddr: 0x8BBF0, symSize: 0x8 }
  - { offset: 0x1D9A8E, size: 0x8, addend: 0x0, symName: _ggml_gelu_quick_inplace, symObjAddr: 0x4BD8, symBinAddr: 0x8BBF0, symSize: 0x8 }
  - { offset: 0x1D9AED, size: 0x8, addend: 0x0, symName: _ggml_silu, symObjAddr: 0x4BE0, symBinAddr: 0x8BBF8, symSize: 0x10C }
  - { offset: 0x1D9CA4, size: 0x8, addend: 0x0, symName: _ggml_silu_inplace, symObjAddr: 0x4CEC, symBinAddr: 0x8BD04, symSize: 0x8 }
  - { offset: 0x1D9CB8, size: 0x8, addend: 0x0, symName: _ggml_silu_inplace, symObjAddr: 0x4CEC, symBinAddr: 0x8BD04, symSize: 0x8 }
  - { offset: 0x1D9D5F, size: 0x8, addend: 0x0, symName: _ggml_xielu, symObjAddr: 0x4CF4, symBinAddr: 0x8BD0C, symSize: 0xC0 }
  - { offset: 0x1D9F7B, size: 0x8, addend: 0x0, symName: _ggml_silu_back, symObjAddr: 0x4DB4, symBinAddr: 0x8BDCC, symSize: 0x44 }
  - { offset: 0x1DA043, size: 0x8, addend: 0x0, symName: _ggml_hardswish, symObjAddr: 0x4DF8, symBinAddr: 0x8BE10, symSize: 0x10C }
  - { offset: 0x1DA20F, size: 0x8, addend: 0x0, symName: _ggml_hardsigmoid, symObjAddr: 0x4F04, symBinAddr: 0x8BF1C, symSize: 0x10C }
  - { offset: 0x1DA223, size: 0x8, addend: 0x0, symName: _ggml_hardsigmoid, symObjAddr: 0x4F04, symBinAddr: 0x8BF1C, symSize: 0x10C }
  - { offset: 0x1DA3EF, size: 0x8, addend: 0x0, symName: _ggml_exp, symObjAddr: 0x5010, symBinAddr: 0x8C028, symSize: 0x10C }
  - { offset: 0x1DA403, size: 0x8, addend: 0x0, symName: _ggml_exp, symObjAddr: 0x5010, symBinAddr: 0x8C028, symSize: 0x10C }
  - { offset: 0x1DA5CF, size: 0x8, addend: 0x0, symName: _ggml_exp_inplace, symObjAddr: 0x511C, symBinAddr: 0x8C134, symSize: 0x8 }
  - { offset: 0x1DA5E3, size: 0x8, addend: 0x0, symName: _ggml_exp_inplace, symObjAddr: 0x511C, symBinAddr: 0x8C134, symSize: 0x8 }
  - { offset: 0x1DA642, size: 0x8, addend: 0x0, symName: _ggml_floor, symObjAddr: 0x5124, symBinAddr: 0x8C13C, symSize: 0x10C }
  - { offset: 0x1DA80E, size: 0x8, addend: 0x0, symName: _ggml_floor_inplace, symObjAddr: 0x5230, symBinAddr: 0x8C248, symSize: 0x8 }
  - { offset: 0x1DA822, size: 0x8, addend: 0x0, symName: _ggml_floor_inplace, symObjAddr: 0x5230, symBinAddr: 0x8C248, symSize: 0x8 }
  - { offset: 0x1DA881, size: 0x8, addend: 0x0, symName: _ggml_ceil, symObjAddr: 0x5238, symBinAddr: 0x8C250, symSize: 0x10C }
  - { offset: 0x1DAA4D, size: 0x8, addend: 0x0, symName: _ggml_ceil_inplace, symObjAddr: 0x5344, symBinAddr: 0x8C35C, symSize: 0x8 }
  - { offset: 0x1DAA61, size: 0x8, addend: 0x0, symName: _ggml_ceil_inplace, symObjAddr: 0x5344, symBinAddr: 0x8C35C, symSize: 0x8 }
  - { offset: 0x1DAAC0, size: 0x8, addend: 0x0, symName: _ggml_round, symObjAddr: 0x534C, symBinAddr: 0x8C364, symSize: 0x10C }
  - { offset: 0x1DAC8C, size: 0x8, addend: 0x0, symName: _ggml_round_inplace, symObjAddr: 0x5458, symBinAddr: 0x8C470, symSize: 0x8 }
  - { offset: 0x1DACA0, size: 0x8, addend: 0x0, symName: _ggml_round_inplace, symObjAddr: 0x5458, symBinAddr: 0x8C470, symSize: 0x8 }
  - { offset: 0x1DACFF, size: 0x8, addend: 0x0, symName: _ggml_trunc, symObjAddr: 0x5460, symBinAddr: 0x8C478, symSize: 0x10C }
  - { offset: 0x1DAECB, size: 0x8, addend: 0x0, symName: _ggml_trunc_inplace, symObjAddr: 0x556C, symBinAddr: 0x8C584, symSize: 0x8 }
  - { offset: 0x1DAEDF, size: 0x8, addend: 0x0, symName: _ggml_trunc_inplace, symObjAddr: 0x556C, symBinAddr: 0x8C584, symSize: 0x8 }
  - { offset: 0x1DAF3E, size: 0x8, addend: 0x0, symName: _ggml_glu, symObjAddr: 0x5574, symBinAddr: 0x8C58C, symSize: 0x10 }
  - { offset: 0x1DAFCF, size: 0x8, addend: 0x0, symName: _ggml_glu_impl, symObjAddr: 0x5584, symBinAddr: 0x8C59C, symSize: 0x2A4 }
  - { offset: 0x1DB263, size: 0x8, addend: 0x0, symName: _ggml_glu_split, symObjAddr: 0x5828, symBinAddr: 0x8C840, symSize: 0x8 }
  - { offset: 0x1DB277, size: 0x8, addend: 0x0, symName: _ggml_glu_split, symObjAddr: 0x5828, symBinAddr: 0x8C840, symSize: 0x8 }
  - { offset: 0x1DB304, size: 0x8, addend: 0x0, symName: _ggml_reglu, symObjAddr: 0x5830, symBinAddr: 0x8C848, symSize: 0x10 }
  - { offset: 0x1DB36F, size: 0x8, addend: 0x0, symName: _ggml_reglu_swapped, symObjAddr: 0x5840, symBinAddr: 0x8C858, symSize: 0x10 }
  - { offset: 0x1DB3DA, size: 0x8, addend: 0x0, symName: _ggml_reglu_split, symObjAddr: 0x5850, symBinAddr: 0x8C868, symSize: 0xC }
  - { offset: 0x1DB456, size: 0x8, addend: 0x0, symName: _ggml_geglu, symObjAddr: 0x585C, symBinAddr: 0x8C874, symSize: 0x10 }
  - { offset: 0x1DB4C1, size: 0x8, addend: 0x0, symName: _ggml_geglu_swapped, symObjAddr: 0x586C, symBinAddr: 0x8C884, symSize: 0x10 }
  - { offset: 0x1DB52C, size: 0x8, addend: 0x0, symName: _ggml_geglu_split, symObjAddr: 0x587C, symBinAddr: 0x8C894, symSize: 0xC }
  - { offset: 0x1DB5A8, size: 0x8, addend: 0x0, symName: _ggml_swiglu, symObjAddr: 0x5888, symBinAddr: 0x8C8A0, symSize: 0x10 }
  - { offset: 0x1DB613, size: 0x8, addend: 0x0, symName: _ggml_swiglu_swapped, symObjAddr: 0x5898, symBinAddr: 0x8C8B0, symSize: 0x10 }
  - { offset: 0x1DB67E, size: 0x8, addend: 0x0, symName: _ggml_swiglu_split, symObjAddr: 0x58A8, symBinAddr: 0x8C8C0, symSize: 0xC }
  - { offset: 0x1DB6FA, size: 0x8, addend: 0x0, symName: _ggml_geglu_erf, symObjAddr: 0x58B4, symBinAddr: 0x8C8CC, symSize: 0x10 }
  - { offset: 0x1DB765, size: 0x8, addend: 0x0, symName: _ggml_geglu_erf_swapped, symObjAddr: 0x58C4, symBinAddr: 0x8C8DC, symSize: 0x10 }
  - { offset: 0x1DB7D0, size: 0x8, addend: 0x0, symName: _ggml_geglu_erf_split, symObjAddr: 0x58D4, symBinAddr: 0x8C8EC, symSize: 0xC }
  - { offset: 0x1DB84C, size: 0x8, addend: 0x0, symName: _ggml_geglu_quick, symObjAddr: 0x58E0, symBinAddr: 0x8C8F8, symSize: 0x10 }
  - { offset: 0x1DB8B7, size: 0x8, addend: 0x0, symName: _ggml_geglu_quick_swapped, symObjAddr: 0x58F0, symBinAddr: 0x8C908, symSize: 0x10 }
  - { offset: 0x1DB922, size: 0x8, addend: 0x0, symName: _ggml_geglu_quick_split, symObjAddr: 0x5900, symBinAddr: 0x8C918, symSize: 0xC }
  - { offset: 0x1DB99E, size: 0x8, addend: 0x0, symName: _ggml_swiglu_oai, symObjAddr: 0x590C, symBinAddr: 0x8C924, symSize: 0x30 }
  - { offset: 0x1DBAD2, size: 0x8, addend: 0x0, symName: _ggml_norm, symObjAddr: 0x593C, symBinAddr: 0x8C954, symSize: 0x80 }
  - { offset: 0x1DBC0A, size: 0x8, addend: 0x0, symName: _ggml_norm_inplace, symObjAddr: 0x59BC, symBinAddr: 0x8C9D4, symSize: 0x8C }
  - { offset: 0x1DBC1E, size: 0x8, addend: 0x0, symName: _ggml_norm_inplace, symObjAddr: 0x59BC, symBinAddr: 0x8C9D4, symSize: 0x8C }
  - { offset: 0x1DBDB3, size: 0x8, addend: 0x0, symName: _ggml_rms_norm, symObjAddr: 0x5A48, symBinAddr: 0x8CA60, symSize: 0x80 }
  - { offset: 0x1DBEEB, size: 0x8, addend: 0x0, symName: _ggml_rms_norm_inplace, symObjAddr: 0x5AC8, symBinAddr: 0x8CAE0, symSize: 0x8C }
  - { offset: 0x1DBEFF, size: 0x8, addend: 0x0, symName: _ggml_rms_norm_inplace, symObjAddr: 0x5AC8, symBinAddr: 0x8CAE0, symSize: 0x8C }
  - { offset: 0x1DC044, size: 0x8, addend: 0x0, symName: _ggml_rms_norm_back, symObjAddr: 0x5B54, symBinAddr: 0x8CB6C, symSize: 0x84 }
  - { offset: 0x1DC134, size: 0x8, addend: 0x0, symName: _ggml_group_norm, symObjAddr: 0x5BD8, symBinAddr: 0x8CBF0, symSize: 0x54 }
  - { offset: 0x1DC1A5, size: 0x8, addend: 0x0, symName: _ggml_group_norm, symObjAddr: 0x5BD8, symBinAddr: 0x8CBF0, symSize: 0x54 }
  - { offset: 0x1DC324, size: 0x8, addend: 0x0, symName: _ggml_group_norm_inplace, symObjAddr: 0x5C2C, symBinAddr: 0x8CC44, symSize: 0x90 }
  - { offset: 0x1DC4F9, size: 0x8, addend: 0x0, symName: _ggml_l2_norm, symObjAddr: 0x5CBC, symBinAddr: 0x8CCD4, symSize: 0x50 }
  - { offset: 0x1DC641, size: 0x8, addend: 0x0, symName: _ggml_l2_norm_inplace, symObjAddr: 0x5D0C, symBinAddr: 0x8CD24, symSize: 0x8C }
  - { offset: 0x1DC7D4, size: 0x8, addend: 0x0, symName: _ggml_mul_mat, symObjAddr: 0x5D98, symBinAddr: 0x8CDB0, symSize: 0x114 }
  - { offset: 0x1DC923, size: 0x8, addend: 0x0, symName: _ggml_mul_mat_set_prec, symObjAddr: 0x5EAC, symBinAddr: 0x8CEC4, symSize: 0x44 }
  - { offset: 0x1DC99F, size: 0x8, addend: 0x0, symName: _ggml_mul_mat_id, symObjAddr: 0x5EF0, symBinAddr: 0x8CF08, symSize: 0x234 }
  - { offset: 0x1DC9B3, size: 0x8, addend: 0x0, symName: _ggml_mul_mat_id, symObjAddr: 0x5EF0, symBinAddr: 0x8CF08, symSize: 0x234 }
  - { offset: 0x1DCB9B, size: 0x8, addend: 0x0, symName: _ggml_out_prod, symObjAddr: 0x6124, symBinAddr: 0x8D13C, symSize: 0x114 }
  - { offset: 0x1DCD62, size: 0x8, addend: 0x0, symName: _ggml_scale, symObjAddr: 0x6238, symBinAddr: 0x8D250, symSize: 0xF0 }
  - { offset: 0x1DCEDE, size: 0x8, addend: 0x0, symName: _ggml_scale_impl, symObjAddr: 0x6328, symBinAddr: 0x8D340, symSize: 0x13C }
  - { offset: 0x1DCEF2, size: 0x8, addend: 0x0, symName: _ggml_scale_impl, symObjAddr: 0x6328, symBinAddr: 0x8D340, symSize: 0x13C }
  - { offset: 0x1DD0A8, size: 0x8, addend: 0x0, symName: _ggml_scale_inplace, symObjAddr: 0x6464, symBinAddr: 0x8D47C, symSize: 0xC }
  - { offset: 0x1DD0BC, size: 0x8, addend: 0x0, symName: _ggml_scale_inplace, symObjAddr: 0x6464, symBinAddr: 0x8D47C, symSize: 0xC }
  - { offset: 0x1DD135, size: 0x8, addend: 0x0, symName: _ggml_scale_bias, symObjAddr: 0x6470, symBinAddr: 0x8D488, symSize: 0xF0 }
  - { offset: 0x1DD2E1, size: 0x8, addend: 0x0, symName: _ggml_scale_bias_inplace, symObjAddr: 0x6560, symBinAddr: 0x8D578, symSize: 0x8 }
  - { offset: 0x1DD2F5, size: 0x8, addend: 0x0, symName: _ggml_scale_bias_inplace, symObjAddr: 0x6560, symBinAddr: 0x8D578, symSize: 0x8 }
  - { offset: 0x1DD388, size: 0x8, addend: 0x0, symName: _ggml_set, symObjAddr: 0x6568, symBinAddr: 0x8D580, symSize: 0x8 }
  - { offset: 0x1DD45A, size: 0x8, addend: 0x0, symName: _ggml_set_impl, symObjAddr: 0x6570, symBinAddr: 0x8D588, symSize: 0x174 }
  - { offset: 0x1DD68B, size: 0x8, addend: 0x0, symName: _ggml_set_inplace, symObjAddr: 0x66E4, symBinAddr: 0x8D6FC, symSize: 0x8 }
  - { offset: 0x1DD69F, size: 0x8, addend: 0x0, symName: _ggml_set_inplace, symObjAddr: 0x66E4, symBinAddr: 0x8D6FC, symSize: 0x8 }
  - { offset: 0x1DD771, size: 0x8, addend: 0x0, symName: _ggml_set_1d, symObjAddr: 0x66EC, symBinAddr: 0x8D704, symSize: 0x14 }
  - { offset: 0x1DD800, size: 0x8, addend: 0x0, symName: _ggml_set_1d_inplace, symObjAddr: 0x6700, symBinAddr: 0x8D718, symSize: 0x14 }
  - { offset: 0x1DD88F, size: 0x8, addend: 0x0, symName: _ggml_set_2d, symObjAddr: 0x6714, symBinAddr: 0x8D72C, symSize: 0x10 }
  - { offset: 0x1DD935, size: 0x8, addend: 0x0, symName: _ggml_set_2d_inplace, symObjAddr: 0x6724, symBinAddr: 0x8D73C, symSize: 0x10 }
  - { offset: 0x1DDA1E, size: 0x8, addend: 0x0, symName: _ggml_cpy, symObjAddr: 0x6734, symBinAddr: 0x8D74C, symSize: 0x10C }
  - { offset: 0x1DDB71, size: 0x8, addend: 0x0, symName: _ggml_cast, symObjAddr: 0x6840, symBinAddr: 0x8D858, symSize: 0x5C }
  - { offset: 0x1DDB85, size: 0x8, addend: 0x0, symName: _ggml_cast, symObjAddr: 0x6840, symBinAddr: 0x8D858, symSize: 0x5C }
  - { offset: 0x1DDC8A, size: 0x8, addend: 0x0, symName: _ggml_cont, symObjAddr: 0x689C, symBinAddr: 0x8D8B4, symSize: 0x5C }
  - { offset: 0x1DDDE3, size: 0x8, addend: 0x0, symName: _ggml_cont_1d, symObjAddr: 0x68F8, symBinAddr: 0x8D910, symSize: 0xDC }
  - { offset: 0x1DDF70, size: 0x8, addend: 0x0, symName: _ggml_cont_4d, symObjAddr: 0x69D4, symBinAddr: 0x8D9EC, symSize: 0xDC }
  - { offset: 0x1DE0C7, size: 0x8, addend: 0x0, symName: _ggml_cont_2d, symObjAddr: 0x6AB0, symBinAddr: 0x8DAC8, symSize: 0xDC }
  - { offset: 0x1DE268, size: 0x8, addend: 0x0, symName: _ggml_cont_3d, symObjAddr: 0x6B8C, symBinAddr: 0x8DBA4, symSize: 0xDC }
  - { offset: 0x1DE41D, size: 0x8, addend: 0x0, symName: _ggml_reshape, symObjAddr: 0x6C68, symBinAddr: 0x8DC80, symSize: 0x158 }
  - { offset: 0x1DE5C1, size: 0x8, addend: 0x0, symName: _ggml_reshape_1d, symObjAddr: 0x6DC0, symBinAddr: 0x8DDD8, symSize: 0x170 }
  - { offset: 0x1DE5D5, size: 0x8, addend: 0x0, symName: _ggml_reshape_1d, symObjAddr: 0x6DC0, symBinAddr: 0x8DDD8, symSize: 0x170 }
  - { offset: 0x1DE78E, size: 0x8, addend: 0x0, symName: _ggml_reshape_2d, symObjAddr: 0x6F30, symBinAddr: 0x8DF48, symSize: 0x174 }
  - { offset: 0x1DE958, size: 0x8, addend: 0x0, symName: _ggml_reshape_3d, symObjAddr: 0x70A4, symBinAddr: 0x8E0BC, symSize: 0x17C }
  - { offset: 0x1DEB33, size: 0x8, addend: 0x0, symName: _ggml_reshape_4d, symObjAddr: 0x7220, symBinAddr: 0x8E238, symSize: 0x180 }
  - { offset: 0x1DED7C, size: 0x8, addend: 0x0, symName: _ggml_view_1d, symObjAddr: 0x73A0, symBinAddr: 0x8E3B8, symSize: 0x90 }
  - { offset: 0x1DEE98, size: 0x8, addend: 0x0, symName: _ggml_view_2d, symObjAddr: 0x7430, symBinAddr: 0x8E448, symSize: 0xD4 }
  - { offset: 0x1DEEAC, size: 0x8, addend: 0x0, symName: _ggml_view_2d, symObjAddr: 0x7430, symBinAddr: 0x8E448, symSize: 0xD4 }
  - { offset: 0x1DF015, size: 0x8, addend: 0x0, symName: _ggml_view_3d, symObjAddr: 0x7504, symBinAddr: 0x8E51C, symSize: 0xE8 }
  - { offset: 0x1DF1A0, size: 0x8, addend: 0x0, symName: _ggml_view_4d, symObjAddr: 0x75EC, symBinAddr: 0x8E604, symSize: 0xDC }
  - { offset: 0x1DF2EF, size: 0x8, addend: 0x0, symName: _ggml_permute, symObjAddr: 0x76C8, symBinAddr: 0x8E6E0, symSize: 0x2F0 }
  - { offset: 0x1DF503, size: 0x8, addend: 0x0, symName: _ggml_transpose, symObjAddr: 0x79B8, symBinAddr: 0x8E9D0, symSize: 0xAC }
  - { offset: 0x1DF5CF, size: 0x8, addend: 0x0, symName: _ggml_get_rows, symObjAddr: 0x7A64, symBinAddr: 0x8EA7C, symSize: 0x158 }
  - { offset: 0x1DF7C2, size: 0x8, addend: 0x0, symName: _ggml_get_rows_back, symObjAddr: 0x7BBC, symBinAddr: 0x8EBD4, symSize: 0x138 }
  - { offset: 0x1DF97E, size: 0x8, addend: 0x0, symName: _ggml_set_rows, symObjAddr: 0x7CF4, symBinAddr: 0x8ED0C, symSize: 0x2E8 }
  - { offset: 0x1DFBBE, size: 0x8, addend: 0x0, symName: _ggml_diag, symObjAddr: 0x7FDC, symBinAddr: 0x8EFF4, symSize: 0xB4 }
  - { offset: 0x1DFBD2, size: 0x8, addend: 0x0, symName: _ggml_diag, symObjAddr: 0x7FDC, symBinAddr: 0x8EFF4, symSize: 0xB4 }
  - { offset: 0x1DFD17, size: 0x8, addend: 0x0, symName: _ggml_diag_mask_inf, symObjAddr: 0x8090, symBinAddr: 0x8F0A8, symSize: 0x74 }
  - { offset: 0x1DFE4F, size: 0x8, addend: 0x0, symName: _ggml_diag_mask_inf_inplace, symObjAddr: 0x8104, symBinAddr: 0x8F11C, symSize: 0x80 }
  - { offset: 0x1DFE63, size: 0x8, addend: 0x0, symName: _ggml_diag_mask_inf_inplace, symObjAddr: 0x8104, symBinAddr: 0x8F11C, symSize: 0x80 }
  - { offset: 0x1E000E, size: 0x8, addend: 0x0, symName: _ggml_diag_mask_zero, symObjAddr: 0x8184, symBinAddr: 0x8F19C, symSize: 0x74 }
  - { offset: 0x1E0146, size: 0x8, addend: 0x0, symName: _ggml_diag_mask_zero_inplace, symObjAddr: 0x81F8, symBinAddr: 0x8F210, symSize: 0x80 }
  - { offset: 0x1E015A, size: 0x8, addend: 0x0, symName: _ggml_diag_mask_zero_inplace, symObjAddr: 0x81F8, symBinAddr: 0x8F210, symSize: 0x80 }
  - { offset: 0x1E02A8, size: 0x8, addend: 0x0, symName: _ggml_soft_max, symObjAddr: 0x8278, symBinAddr: 0x8F290, symSize: 0x14 }
  - { offset: 0x1E030D, size: 0x8, addend: 0x0, symName: _ggml_soft_max_impl, symObjAddr: 0x828C, symBinAddr: 0x8F2A4, symSize: 0x340 }
  - { offset: 0x1E06E0, size: 0x8, addend: 0x0, symName: _ggml_soft_max_inplace, symObjAddr: 0x85CC, symBinAddr: 0x8F5E4, symSize: 0x14 }
  - { offset: 0x1E06F4, size: 0x8, addend: 0x0, symName: _ggml_soft_max_inplace, symObjAddr: 0x85CC, symBinAddr: 0x8F5E4, symSize: 0x14 }
  - { offset: 0x1E0759, size: 0x8, addend: 0x0, symName: _ggml_soft_max_ext, symObjAddr: 0x85E0, symBinAddr: 0x8F5F8, symSize: 0x8 }
  - { offset: 0x1E0803, size: 0x8, addend: 0x0, symName: _ggml_soft_max_ext_inplace, symObjAddr: 0x85E8, symBinAddr: 0x8F600, symSize: 0x8 }
  - { offset: 0x1E08AD, size: 0x8, addend: 0x0, symName: _ggml_soft_max_add_sinks, symObjAddr: 0x85F0, symBinAddr: 0x8F608, symSize: 0xF0 }
  - { offset: 0x1E092F, size: 0x8, addend: 0x0, symName: _ggml_soft_max_ext_back, symObjAddr: 0x86E0, symBinAddr: 0x8F6F8, symSize: 0x58 }
  - { offset: 0x1E09AD, size: 0x8, addend: 0x0, symName: _ggml_soft_max_ext_back, symObjAddr: 0x86E0, symBinAddr: 0x8F6F8, symSize: 0x58 }
  - { offset: 0x1E0AD5, size: 0x8, addend: 0x0, symName: _ggml_soft_max_ext_back_inplace, symObjAddr: 0x8738, symBinAddr: 0x8F750, symSize: 0x94 }
  - { offset: 0x1E0C27, size: 0x8, addend: 0x0, symName: _ggml_rope, symObjAddr: 0x87CC, symBinAddr: 0x8F7E4, symSize: 0x54 }
  - { offset: 0x1E0CE1, size: 0x8, addend: 0x0, symName: _ggml_rope_impl, symObjAddr: 0x8820, symBinAddr: 0x8F838, symSize: 0x2FC }
  - { offset: 0x1E0FE9, size: 0x8, addend: 0x0, symName: _ggml_rope_multi, symObjAddr: 0x8B1C, symBinAddr: 0x8FB34, symSize: 0x20 }
  - { offset: 0x1E0FFD, size: 0x8, addend: 0x0, symName: _ggml_rope_multi, symObjAddr: 0x8B1C, symBinAddr: 0x8FB34, symSize: 0x20 }
  - { offset: 0x1E1129, size: 0x8, addend: 0x0, symName: _ggml_rope_multi_inplace, symObjAddr: 0x8B3C, symBinAddr: 0x8FB54, symSize: 0x24 }
  - { offset: 0x1E12BE, size: 0x8, addend: 0x0, symName: _ggml_rope_inplace, symObjAddr: 0x8B60, symBinAddr: 0x8FB78, symSize: 0x58 }
  - { offset: 0x1E1378, size: 0x8, addend: 0x0, symName: _ggml_rope_ext, symObjAddr: 0x8BB8, symBinAddr: 0x8FBD0, symSize: 0x2C }
  - { offset: 0x1E1498, size: 0x8, addend: 0x0, symName: _ggml_rope_ext_inplace, symObjAddr: 0x8BE4, symBinAddr: 0x8FBFC, symSize: 0x30 }
  - { offset: 0x1E161A, size: 0x8, addend: 0x0, symName: _ggml_rope_custom, symObjAddr: 0x8C14, symBinAddr: 0x8FC2C, symSize: 0x34 }
  - { offset: 0x1E1789, size: 0x8, addend: 0x0, symName: _ggml_rope_custom_inplace, symObjAddr: 0x8C48, symBinAddr: 0x8FC60, symSize: 0x38 }
  - { offset: 0x1E193B, size: 0x8, addend: 0x0, symName: _ggml_rope_yarn_corr_dims, symObjAddr: 0x8C80, symBinAddr: 0x8FC98, symSize: 0xB8 }
  - { offset: 0x1E1AF8, size: 0x8, addend: 0x0, symName: _ggml_rope_ext_back, symObjAddr: 0x8D38, symBinAddr: 0x8FD50, symSize: 0x34 }
  - { offset: 0x1E1D80, size: 0x8, addend: 0x0, symName: _ggml_rope_multi_back, symObjAddr: 0x8D6C, symBinAddr: 0x8FD84, symSize: 0x28 }
  - { offset: 0x1E1F59, size: 0x8, addend: 0x0, symName: _ggml_clamp, symObjAddr: 0x8D94, symBinAddr: 0x8FDAC, symSize: 0x90 }
  - { offset: 0x1E20DC, size: 0x8, addend: 0x0, symName: _ggml_im2col, symObjAddr: 0x8E24, symBinAddr: 0x8FE3C, symSize: 0x27C }
  - { offset: 0x1E233F, size: 0x8, addend: 0x0, symName: _ggml_im2col_back, symObjAddr: 0x90A0, symBinAddr: 0x900B8, symSize: 0xA4 }
  - { offset: 0x1E2353, size: 0x8, addend: 0x0, symName: _ggml_im2col_back, symObjAddr: 0x90A0, symBinAddr: 0x900B8, symSize: 0xA4 }
  - { offset: 0x1E2473, size: 0x8, addend: 0x0, symName: _ggml_conv_1d, symObjAddr: 0x9144, symBinAddr: 0x9015C, symSize: 0xAC }
  - { offset: 0x1E2487, size: 0x8, addend: 0x0, symName: _ggml_conv_1d, symObjAddr: 0x9144, symBinAddr: 0x9015C, symSize: 0xAC }
  - { offset: 0x1E2613, size: 0x8, addend: 0x0, symName: _ggml_conv_1d_ph, symObjAddr: 0x91F0, symBinAddr: 0x90208, symSize: 0xB4 }
  - { offset: 0x1E2793, size: 0x8, addend: 0x0, symName: _ggml_conv_1d_dw, symObjAddr: 0x92A4, symBinAddr: 0x902BC, symSize: 0xB4 }
  - { offset: 0x1E291B, size: 0x8, addend: 0x0, symName: _ggml_conv_1d_dw_ph, symObjAddr: 0x9358, symBinAddr: 0x90370, symSize: 0xBC }
  - { offset: 0x1E2AE2, size: 0x8, addend: 0x0, symName: _ggml_conv_transpose_1d, symObjAddr: 0x9414, symBinAddr: 0x9042C, symSize: 0x1D0 }
  - { offset: 0x1E2DD6, size: 0x8, addend: 0x0, symName: _ggml_conv_2d, symObjAddr: 0x95E4, symBinAddr: 0x905FC, symSize: 0x1AC }
  - { offset: 0x1E315F, size: 0x8, addend: 0x0, symName: _ggml_im2col_3d, symObjAddr: 0x9790, symBinAddr: 0x907A8, symSize: 0x220 }
  - { offset: 0x1E3464, size: 0x8, addend: 0x0, symName: _ggml_conv_3d, symObjAddr: 0x99B0, symBinAddr: 0x909C8, symSize: 0x200 }
  - { offset: 0x1E388E, size: 0x8, addend: 0x0, symName: _ggml_conv_2d_sk_p0, symObjAddr: 0x9BB0, symBinAddr: 0x90BC8, symSize: 0x38 }
  - { offset: 0x1E3916, size: 0x8, addend: 0x0, symName: _ggml_conv_2d_s1_ph, symObjAddr: 0x9BE8, symBinAddr: 0x90C00, symSize: 0x44 }
  - { offset: 0x1E399E, size: 0x8, addend: 0x0, symName: _ggml_conv_2d_dw, symObjAddr: 0x9C2C, symBinAddr: 0x90C44, symSize: 0x128 }
  - { offset: 0x1E3BA5, size: 0x8, addend: 0x0, symName: _ggml_conv_2d_dw_direct, symObjAddr: 0x9D54, symBinAddr: 0x90D6C, symSize: 0x23C }
  - { offset: 0x1E3E21, size: 0x8, addend: 0x0, symName: _ggml_conv_2d_direct, symObjAddr: 0x9F90, symBinAddr: 0x90FA8, symSize: 0x150 }
  - { offset: 0x1E3E35, size: 0x8, addend: 0x0, symName: _ggml_conv_2d_direct, symObjAddr: 0x9F90, symBinAddr: 0x90FA8, symSize: 0x150 }
  - { offset: 0x1E40A1, size: 0x8, addend: 0x0, symName: _ggml_conv_3d_direct, symObjAddr: 0xA0E0, symBinAddr: 0x910F8, symSize: 0x1FC }
  - { offset: 0x1E4495, size: 0x8, addend: 0x0, symName: _ggml_conv_transpose_2d_p0, symObjAddr: 0xA2DC, symBinAddr: 0x912F4, symSize: 0xE4 }
  - { offset: 0x1E466A, size: 0x8, addend: 0x0, symName: _ggml_pool_1d, symObjAddr: 0xA3C0, symBinAddr: 0x913D8, symSize: 0x108 }
  - { offset: 0x1E47FE, size: 0x8, addend: 0x0, symName: _ggml_pool_2d, symObjAddr: 0xA4C8, symBinAddr: 0x914E0, symSize: 0x13C }
  - { offset: 0x1E49FC, size: 0x8, addend: 0x0, symName: _ggml_pool_2d_back, symObjAddr: 0xA604, symBinAddr: 0x9161C, symSize: 0xC4 }
  - { offset: 0x1E4B08, size: 0x8, addend: 0x0, symName: _ggml_upscale, symObjAddr: 0xA6C8, symBinAddr: 0x916E0, symSize: 0xF0 }
  - { offset: 0x1E4B93, size: 0x8, addend: 0x0, symName: _ggml_upscale, symObjAddr: 0xA6C8, symBinAddr: 0x916E0, symSize: 0xF0 }
  - { offset: 0x1E4D3E, size: 0x8, addend: 0x0, symName: _ggml_upscale_ext, symObjAddr: 0xA7B8, symBinAddr: 0x917D0, symSize: 0xC0 }
  - { offset: 0x1E4F19, size: 0x8, addend: 0x0, symName: _ggml_interpolate, symObjAddr: 0xA878, symBinAddr: 0x91890, symSize: 0xB0 }
  - { offset: 0x1E5172, size: 0x8, addend: 0x0, symName: _ggml_pad, symObjAddr: 0xA928, symBinAddr: 0x91940, symSize: 0xC8 }
  - { offset: 0x1E53B1, size: 0x8, addend: 0x0, symName: _ggml_pad_ext, symObjAddr: 0xA9F0, symBinAddr: 0x91A08, symSize: 0xFC }
  - { offset: 0x1E55B8, size: 0x8, addend: 0x0, symName: _ggml_pad_reflect_1d, symObjAddr: 0xAAEC, symBinAddr: 0x91B04, symSize: 0x248 }
  - { offset: 0x1E5877, size: 0x8, addend: 0x0, symName: _ggml_roll, symObjAddr: 0xAD34, symBinAddr: 0x91D4C, symSize: 0x194 }
  - { offset: 0x1E5A90, size: 0x8, addend: 0x0, symName: _ggml_arange, symObjAddr: 0xAEC8, symBinAddr: 0x91EE0, symSize: 0x98 }
  - { offset: 0x1E5AA4, size: 0x8, addend: 0x0, symName: _ggml_arange, symObjAddr: 0xAEC8, symBinAddr: 0x91EE0, symSize: 0x98 }
  - { offset: 0x1E5C1B, size: 0x8, addend: 0x0, symName: _ggml_timestep_embedding, symObjAddr: 0xAF60, symBinAddr: 0x91F78, symSize: 0x94 }
  - { offset: 0x1E5C2F, size: 0x8, addend: 0x0, symName: _ggml_timestep_embedding, symObjAddr: 0xAF60, symBinAddr: 0x91F78, symSize: 0x94 }
  - { offset: 0x1E5D6B, size: 0x8, addend: 0x0, symName: _ggml_tri, symObjAddr: 0xAFF4, symBinAddr: 0x9200C, symSize: 0x134 }
  - { offset: 0x1E5F33, size: 0x8, addend: 0x0, symName: _ggml_fill, symObjAddr: 0xB128, symBinAddr: 0x92140, symSize: 0x8 }
  - { offset: 0x1E5F47, size: 0x8, addend: 0x0, symName: _ggml_fill, symObjAddr: 0xB128, symBinAddr: 0x92140, symSize: 0x8 }
  - { offset: 0x1E5FC0, size: 0x8, addend: 0x0, symName: _ggml_fill_impl, symObjAddr: 0xB130, symBinAddr: 0x92148, symSize: 0x160 }
  - { offset: 0x1E61DC, size: 0x8, addend: 0x0, symName: _ggml_fill_inplace, symObjAddr: 0xB290, symBinAddr: 0x922A8, symSize: 0x8 }
  - { offset: 0x1E61F0, size: 0x8, addend: 0x0, symName: _ggml_fill_inplace, symObjAddr: 0xB290, symBinAddr: 0x922A8, symSize: 0x8 }
  - { offset: 0x1E6269, size: 0x8, addend: 0x0, symName: _ggml_argsort, symObjAddr: 0xB298, symBinAddr: 0x922B0, symSize: 0x80 }
  - { offset: 0x1E6337, size: 0x8, addend: 0x0, symName: _ggml_top_k, symObjAddr: 0xB318, symBinAddr: 0x92330, symSize: 0x180 }
  - { offset: 0x1E6439, size: 0x8, addend: 0x0, symName: _ggml_top_k, symObjAddr: 0xB318, symBinAddr: 0x92330, symSize: 0x180 }
  - { offset: 0x1E6691, size: 0x8, addend: 0x0, symName: _ggml_flash_attn_ext, symObjAddr: 0xB498, symBinAddr: 0x924B0, symSize: 0x318 }
  - { offset: 0x1E6988, size: 0x8, addend: 0x0, symName: _ggml_flash_attn_ext_set_prec, symObjAddr: 0xB7B0, symBinAddr: 0x927C8, symSize: 0x44 }
  - { offset: 0x1E699C, size: 0x8, addend: 0x0, symName: _ggml_flash_attn_ext_set_prec, symObjAddr: 0xB7B0, symBinAddr: 0x927C8, symSize: 0x44 }
  - { offset: 0x1E6A18, size: 0x8, addend: 0x0, symName: _ggml_flash_attn_ext_get_prec, symObjAddr: 0xB7F4, symBinAddr: 0x9280C, symSize: 0x44 }
  - { offset: 0x1E6A2C, size: 0x8, addend: 0x0, symName: _ggml_flash_attn_ext_get_prec, symObjAddr: 0xB7F4, symBinAddr: 0x9280C, symSize: 0x44 }
  - { offset: 0x1E6A93, size: 0x8, addend: 0x0, symName: _ggml_flash_attn_ext_add_sinks, symObjAddr: 0xB838, symBinAddr: 0x92850, symSize: 0xF0 }
  - { offset: 0x1E6AA7, size: 0x8, addend: 0x0, symName: _ggml_flash_attn_ext_add_sinks, symObjAddr: 0xB838, symBinAddr: 0x92850, symSize: 0xF0 }
  - { offset: 0x1E6B29, size: 0x8, addend: 0x0, symName: _ggml_flash_attn_back, symObjAddr: 0xB928, symBinAddr: 0x92940, symSize: 0x20 }
  - { offset: 0x1E6B3D, size: 0x8, addend: 0x0, symName: _ggml_flash_attn_back, symObjAddr: 0xB928, symBinAddr: 0x92940, symSize: 0x20 }
  - { offset: 0x1E6BC5, size: 0x8, addend: 0x0, symName: _ggml_ssm_conv, symObjAddr: 0xB948, symBinAddr: 0x92960, symSize: 0x160 }
  - { offset: 0x1E6C60, size: 0x8, addend: 0x0, symName: _ggml_ssm_conv, symObjAddr: 0xB948, symBinAddr: 0x92960, symSize: 0x160 }
  - { offset: 0x1E6E54, size: 0x8, addend: 0x0, symName: _ggml_ssm_scan, symObjAddr: 0xBAA8, symBinAddr: 0x92AC0, symSize: 0x734 }
  - { offset: 0x1E7507, size: 0x8, addend: 0x0, symName: _ggml_win_part, symObjAddr: 0xC1DC, symBinAddr: 0x931F4, symSize: 0x164 }
  - { offset: 0x1E751B, size: 0x8, addend: 0x0, symName: _ggml_win_part, symObjAddr: 0xC1DC, symBinAddr: 0x931F4, symSize: 0x164 }
  - { offset: 0x1E76BE, size: 0x8, addend: 0x0, symName: _ggml_win_unpart, symObjAddr: 0xC340, symBinAddr: 0x93358, symSize: 0xE4 }
  - { offset: 0x1E7817, size: 0x8, addend: 0x0, symName: _ggml_get_rel_pos, symObjAddr: 0xC424, symBinAddr: 0x9343C, symSize: 0xEC }
  - { offset: 0x1E792D, size: 0x8, addend: 0x0, symName: _ggml_add_rel_pos, symObjAddr: 0xC510, symBinAddr: 0x93528, symSize: 0x8 }
  - { offset: 0x1E79BA, size: 0x8, addend: 0x0, symName: _ggml_add_rel_pos_impl, symObjAddr: 0xC518, symBinAddr: 0x93530, symSize: 0x3C4 }
  - { offset: 0x1E7E78, size: 0x8, addend: 0x0, symName: _ggml_add_rel_pos_inplace, symObjAddr: 0xC8DC, symBinAddr: 0x938F4, symSize: 0x8 }
  - { offset: 0x1E7E8C, size: 0x8, addend: 0x0, symName: _ggml_add_rel_pos_inplace, symObjAddr: 0xC8DC, symBinAddr: 0x938F4, symSize: 0x8 }
  - { offset: 0x1E7F19, size: 0x8, addend: 0x0, symName: _ggml_rwkv_wkv6, symObjAddr: 0xC8E4, symBinAddr: 0x938FC, symSize: 0x5B0 }
  - { offset: 0x1E85AF, size: 0x8, addend: 0x0, symName: _ggml_gated_linear_attn, symObjAddr: 0xCE94, symBinAddr: 0x93EAC, symSize: 0x50C }
  - { offset: 0x1E8BA8, size: 0x8, addend: 0x0, symName: _ggml_rwkv_wkv7, symObjAddr: 0xD3A0, symBinAddr: 0x943B8, symSize: 0x6A4 }
  - { offset: 0x1E9412, size: 0x8, addend: 0x0, symName: _ggml_map_custom1, symObjAddr: 0xDA44, symBinAddr: 0x94A5C, symSize: 0xC4 }
  - { offset: 0x1E959C, size: 0x8, addend: 0x0, symName: _ggml_map_custom1_inplace, symObjAddr: 0xDB08, symBinAddr: 0x94B20, symSize: 0xD0 }
  - { offset: 0x1E95B0, size: 0x8, addend: 0x0, symName: _ggml_map_custom1_inplace, symObjAddr: 0xDB08, symBinAddr: 0x94B20, symSize: 0xD0 }
  - { offset: 0x1E972B, size: 0x8, addend: 0x0, symName: _ggml_map_custom2, symObjAddr: 0xDBD8, symBinAddr: 0x94BF0, symSize: 0xD0 }
  - { offset: 0x1E9834, size: 0x8, addend: 0x0, symName: _ggml_map_custom2, symObjAddr: 0xDBD8, symBinAddr: 0x94BF0, symSize: 0xD0 }
  - { offset: 0x1E99D9, size: 0x8, addend: 0x0, symName: _ggml_map_custom2_inplace, symObjAddr: 0xDCA8, symBinAddr: 0x94CC0, symSize: 0xDC }
  - { offset: 0x1E99ED, size: 0x8, addend: 0x0, symName: _ggml_map_custom2_inplace, symObjAddr: 0xDCA8, symBinAddr: 0x94CC0, symSize: 0xDC }
  - { offset: 0x1E9B83, size: 0x8, addend: 0x0, symName: _ggml_map_custom3, symObjAddr: 0xDD84, symBinAddr: 0x94D9C, symSize: 0xD8 }
  - { offset: 0x1E9C9F, size: 0x8, addend: 0x0, symName: _ggml_map_custom3, symObjAddr: 0xDD84, symBinAddr: 0x94D9C, symSize: 0xD8 }
  - { offset: 0x1E9E5F, size: 0x8, addend: 0x0, symName: _ggml_map_custom3_inplace, symObjAddr: 0xDE5C, symBinAddr: 0x94E74, symSize: 0xE4 }
  - { offset: 0x1E9E73, size: 0x8, addend: 0x0, symName: _ggml_map_custom3_inplace, symObjAddr: 0xDE5C, symBinAddr: 0x94E74, symSize: 0xE4 }
  - { offset: 0x1EA024, size: 0x8, addend: 0x0, symName: _ggml_custom_4d, symObjAddr: 0xDF40, symBinAddr: 0x94F58, symSize: 0x104 }
  - { offset: 0x1EA038, size: 0x8, addend: 0x0, symName: _ggml_custom_4d, symObjAddr: 0xDF40, symBinAddr: 0x94F58, symSize: 0x104 }
  - { offset: 0x1EA257, size: 0x8, addend: 0x0, symName: _ggml_custom_inplace, symObjAddr: 0xE044, symBinAddr: 0x9505C, symSize: 0x158 }
  - { offset: 0x1EA3D8, size: 0x8, addend: 0x0, symName: _ggml_cross_entropy_loss, symObjAddr: 0xE19C, symBinAddr: 0x951B4, symSize: 0xB8 }
  - { offset: 0x1EA3EC, size: 0x8, addend: 0x0, symName: _ggml_cross_entropy_loss, symObjAddr: 0xE19C, symBinAddr: 0x951B4, symSize: 0xB8 }
  - { offset: 0x1EA512, size: 0x8, addend: 0x0, symName: _ggml_cross_entropy_loss_back, symObjAddr: 0xE254, symBinAddr: 0x9526C, symSize: 0x114 }
  - { offset: 0x1EA526, size: 0x8, addend: 0x0, symName: _ggml_cross_entropy_loss_back, symObjAddr: 0xE254, symBinAddr: 0x9526C, symSize: 0x114 }
  - { offset: 0x1EA67F, size: 0x8, addend: 0x0, symName: _ggml_opt_step_adamw, symObjAddr: 0xE368, symBinAddr: 0x95380, symSize: 0x248 }
  - { offset: 0x1EA693, size: 0x8, addend: 0x0, symName: _ggml_opt_step_adamw, symObjAddr: 0xE368, symBinAddr: 0x95380, symSize: 0x248 }
  - { offset: 0x1EA8AC, size: 0x8, addend: 0x0, symName: _ggml_opt_step_sgd, symObjAddr: 0xE5B0, symBinAddr: 0x955C8, symSize: 0x18C }
  - { offset: 0x1EA8C0, size: 0x8, addend: 0x0, symName: _ggml_opt_step_sgd, symObjAddr: 0xE5B0, symBinAddr: 0x955C8, symSize: 0x18C }
  - { offset: 0x1EAA3B, size: 0x8, addend: 0x0, symName: _ggml_solve_tri, symObjAddr: 0xE73C, symBinAddr: 0x95754, symSize: 0x2E4 }
  - { offset: 0x1EAA4F, size: 0x8, addend: 0x0, symName: _ggml_solve_tri, symObjAddr: 0xE73C, symBinAddr: 0x95754, symSize: 0x2E4 }
  - { offset: 0x1EADFC, size: 0x8, addend: 0x0, symName: _ggml_hash_set_new, symObjAddr: 0xEA20, symBinAddr: 0x95A38, symSize: 0x178 }
  - { offset: 0x1EAF82, size: 0x8, addend: 0x0, symName: _ggml_hash_size, symObjAddr: 0xEB98, symBinAddr: 0x95BB0, symSize: 0x48 }
  - { offset: 0x1EAF96, size: 0x8, addend: 0x0, symName: _ggml_hash_set_reset, symObjAddr: 0xEBE0, symBinAddr: 0x95BF8, symSize: 0x18 }
  - { offset: 0x1EAFD4, size: 0x8, addend: 0x0, symName: _ggml_hash_set_free, symObjAddr: 0xEBF8, symBinAddr: 0x95C10, symSize: 0x28 }
  - { offset: 0x1EB065, size: 0x8, addend: 0x0, symName: _ggml_build_forward_expand, symObjAddr: 0xEC20, symBinAddr: 0x95C38, symSize: 0x7C }
  - { offset: 0x1EB0F1, size: 0x8, addend: 0x0, symName: _ggml_build_backward_expand, symObjAddr: 0xEC9C, symBinAddr: 0x95CB4, symSize: 0x2860 }
  - { offset: 0x1EB105, size: 0x8, addend: 0x0, symName: _ggml_visit_parents, symObjAddr: 0x13DB0, symBinAddr: 0x9ADC8, symSize: 0x3C4 }
  - { offset: 0x1EB39C, size: 0x8, addend: 0x0, symName: _ggml_add_or_set, symObjAddr: 0x14174, symBinAddr: 0x9B18C, symSize: 0x110 }
  - { offset: 0x1EBF53, size: 0x8, addend: 0x0, symName: _ggml_build_backward_expand, symObjAddr: 0xEC9C, symBinAddr: 0x95CB4, symSize: 0x2860 }
  - { offset: 0x1EF857, size: 0x8, addend: 0x0, symName: _ggml_graph_overhead_custom, symObjAddr: 0x114FC, symBinAddr: 0x98514, symSize: 0x98 }
  - { offset: 0x1EF86B, size: 0x8, addend: 0x0, symName: _ggml_add_or_set, symObjAddr: 0x14174, symBinAddr: 0x9B18C, symSize: 0x110 }
  - { offset: 0x1EF98F, size: 0x8, addend: 0x0, symName: _ggml_sub_or_set, symObjAddr: 0x14284, symBinAddr: 0x9B29C, symSize: 0x1F4 }
  - { offset: 0x1EF9A3, size: 0x8, addend: 0x0, symName: _ggml_sub_or_set, symObjAddr: 0x14284, symBinAddr: 0x9B29C, symSize: 0x1F4 }
  - { offset: 0x1EFC95, size: 0x8, addend: 0x0, symName: _ggml_add1_or_set, symObjAddr: 0x14478, symBinAddr: 0x9B490, symSize: 0x110 }
  - { offset: 0x1EFCA9, size: 0x8, addend: 0x0, symName: _ggml_add1_or_set, symObjAddr: 0x14478, symBinAddr: 0x9B490, symSize: 0x110 }
  - { offset: 0x1EFE8A, size: 0x8, addend: 0x0, symName: _ggml_graph_overhead_custom, symObjAddr: 0x114FC, symBinAddr: 0x98514, symSize: 0x98 }
  - { offset: 0x1EFFEA, size: 0x8, addend: 0x0, symName: _ggml_graph_overhead, symObjAddr: 0x11594, symBinAddr: 0x985AC, symSize: 0x70 }
  - { offset: 0x1F013B, size: 0x8, addend: 0x0, symName: _ggml_new_graph_custom, symObjAddr: 0x11604, symBinAddr: 0x9861C, symSize: 0x240 }
  - { offset: 0x1F0501, size: 0x8, addend: 0x0, symName: _ggml_new_graph, symObjAddr: 0x11844, symBinAddr: 0x9885C, symSize: 0xC }
  - { offset: 0x1F0551, size: 0x8, addend: 0x0, symName: _ggml_graph_view, symObjAddr: 0x11850, symBinAddr: 0x98868, symSize: 0x40 }
  - { offset: 0x1F060F, size: 0x8, addend: 0x0, symName: _ggml_graph_cpy, symObjAddr: 0x11890, symBinAddr: 0x988A8, symSize: 0x4B8 }
  - { offset: 0x1F09EB, size: 0x8, addend: 0x0, symName: _ggml_graph_dup, symObjAddr: 0x11D48, symBinAddr: 0x98D60, symSize: 0x44 }
  - { offset: 0x1F09FF, size: 0x8, addend: 0x0, symName: _ggml_graph_dup, symObjAddr: 0x11D48, symBinAddr: 0x98D60, symSize: 0x44 }
  - { offset: 0x1F0A93, size: 0x8, addend: 0x0, symName: _ggml_set_zero, symObjAddr: 0x11D8C, symBinAddr: 0x98DA4, symSize: 0x1B0 }
  - { offset: 0x1F0C28, size: 0x8, addend: 0x0, symName: _ggml_graph_reset, symObjAddr: 0x11F3C, symBinAddr: 0x98F54, symSize: 0x214 }
  - { offset: 0x1F0C93, size: 0x8, addend: 0x0, symName: _ggml_graph_reset, symObjAddr: 0x11F3C, symBinAddr: 0x98F54, symSize: 0x214 }
  - { offset: 0x1F0E8B, size: 0x8, addend: 0x0, symName: _ggml_graph_get_grad_acc, symObjAddr: 0x12150, symBinAddr: 0x99168, symSize: 0x70 }
  - { offset: 0x1F0EC0, size: 0x8, addend: 0x0, symName: _ggml_graph_get_grad_acc, symObjAddr: 0x12150, symBinAddr: 0x99168, symSize: 0x70 }
  - { offset: 0x1F0EF4, size: 0x8, addend: 0x0, symName: _ggml_graph_get_grad_acc, symObjAddr: 0x12150, symBinAddr: 0x99168, symSize: 0x70 }
  - { offset: 0x1F0F30, size: 0x8, addend: 0x0, symName: _ggml_graph_get_grad_acc, symObjAddr: 0x12150, symBinAddr: 0x99168, symSize: 0x70 }
  - { offset: 0x1F0F74, size: 0x8, addend: 0x0, symName: _ggml_graph_clear, symObjAddr: 0x121C0, symBinAddr: 0x991D8, symSize: 0x1C }
  - { offset: 0x1F0FDD, size: 0x8, addend: 0x0, symName: _ggml_graph_size, symObjAddr: 0x121DC, symBinAddr: 0x991F4, symSize: 0x8 }
  - { offset: 0x1F100A, size: 0x8, addend: 0x0, symName: _ggml_graph_node, symObjAddr: 0x121E4, symBinAddr: 0x991FC, symSize: 0x80 }
  - { offset: 0x1F1062, size: 0x8, addend: 0x0, symName: _ggml_graph_nodes, symObjAddr: 0x12264, symBinAddr: 0x9927C, symSize: 0x8 }
  - { offset: 0x1F1076, size: 0x8, addend: 0x0, symName: _ggml_graph_nodes, symObjAddr: 0x12264, symBinAddr: 0x9927C, symSize: 0x8 }
  - { offset: 0x1F10A3, size: 0x8, addend: 0x0, symName: _ggml_graph_n_nodes, symObjAddr: 0x1226C, symBinAddr: 0x99284, symSize: 0x8 }
  - { offset: 0x1F10D0, size: 0x8, addend: 0x0, symName: _ggml_graph_add_node, symObjAddr: 0x12274, symBinAddr: 0x9928C, symSize: 0x54 }
  - { offset: 0x1F110D, size: 0x8, addend: 0x0, symName: _ggml_graph_get_tensor, symObjAddr: 0x122C8, symBinAddr: 0x992E0, symSize: 0xB4 }
  - { offset: 0x1F1121, size: 0x8, addend: 0x0, symName: _ggml_graph_get_tensor, symObjAddr: 0x122C8, symBinAddr: 0x992E0, symSize: 0xB4 }
  - { offset: 0x1F121B, size: 0x8, addend: 0x0, symName: _ggml_graph_get_grad, symObjAddr: 0x1237C, symBinAddr: 0x99394, symSize: 0x70 }
  - { offset: 0x1F124F, size: 0x8, addend: 0x0, symName: _ggml_graph_get_grad, symObjAddr: 0x1237C, symBinAddr: 0x99394, symSize: 0x70 }
  - { offset: 0x1F128B, size: 0x8, addend: 0x0, symName: _ggml_graph_get_grad, symObjAddr: 0x1237C, symBinAddr: 0x99394, symSize: 0x70 }
  - { offset: 0x1F12EB, size: 0x8, addend: 0x0, symName: _ggml_graph_print, symObjAddr: 0x123EC, symBinAddr: 0x99404, symSize: 0x1DC }
  - { offset: 0x1F15AD, size: 0x8, addend: 0x0, symName: _ggml_can_fuse_subgraph_ext, symObjAddr: 0x125C8, symBinAddr: 0x995E0, symSize: 0x270 }
  - { offset: 0x1F187A, size: 0x8, addend: 0x0, symName: _ggml_graph_dump_dot, symObjAddr: 0x12838, symBinAddr: 0x99850, symSize: 0xAD4 }
  - { offset: 0x1F1A23, size: 0x8, addend: 0x0, symName: _ggml_graph_dump_dot, symObjAddr: 0x12838, symBinAddr: 0x99850, symSize: 0xAD4 }
  - { offset: 0x1F24BD, size: 0x8, addend: 0x0, symName: _ggml_set_input, symObjAddr: 0x1330C, symBinAddr: 0x9A324, symSize: 0x10 }
  - { offset: 0x1F24E4, size: 0x8, addend: 0x0, symName: _ggml_set_output, symObjAddr: 0x1331C, symBinAddr: 0x9A334, symSize: 0x10 }
  - { offset: 0x1F250B, size: 0x8, addend: 0x0, symName: _ggml_set_param, symObjAddr: 0x1332C, symBinAddr: 0x9A344, symSize: 0x48 }
  - { offset: 0x1F2537, size: 0x8, addend: 0x0, symName: _ggml_set_loss, symObjAddr: 0x13374, symBinAddr: 0x9A38C, symSize: 0xA4 }
  - { offset: 0x1F254B, size: 0x8, addend: 0x0, symName: _ggml_set_loss, symObjAddr: 0x13374, symBinAddr: 0x9A38C, symSize: 0xA4 }
  - { offset: 0x1F25AD, size: 0x8, addend: 0x0, symName: _ggml_quantize_init, symObjAddr: 0x13418, symBinAddr: 0x9A430, symSize: 0x7C }
  - { offset: 0x1F25C1, size: 0x8, addend: 0x0, symName: _ggml_quantize_init, symObjAddr: 0x13418, symBinAddr: 0x9A430, symSize: 0x7C }
  - { offset: 0x1F267A, size: 0x8, addend: 0x0, symName: _ggml_quantize_free, symObjAddr: 0x13494, symBinAddr: 0x9A4AC, symSize: 0x34 }
  - { offset: 0x1F2722, size: 0x8, addend: 0x0, symName: _ggml_quantize_requires_imatrix, symObjAddr: 0x134C8, symBinAddr: 0x9A4E0, symSize: 0x14 }
  - { offset: 0x1F27F6, size: 0x8, addend: 0x0, symName: _ggml_quantize_chunk, symObjAddr: 0x134DC, symBinAddr: 0x9A4F4, symSize: 0x790 }
  - { offset: 0x1F2F00, size: 0x8, addend: 0x0, symName: _ggml_log_set, symObjAddr: 0x13C6C, symBinAddr: 0x9AC84, symSize: 0x24 }
  - { offset: 0x1F32C6, size: 0x8, addend: 0x0, symName: _ggml_log_set, symObjAddr: 0x13C6C, symBinAddr: 0x9AC84, symSize: 0x24 }
  - { offset: 0x1F32FC, size: 0x8, addend: 0x0, symName: _ggml_threadpool_params_init, symObjAddr: 0x13C90, symBinAddr: 0x9ACA8, symSize: 0x5C }
  - { offset: 0x1F33C0, size: 0x8, addend: 0x0, symName: _ggml_threadpool_params_default, symObjAddr: 0x13CEC, symBinAddr: 0x9AD04, symSize: 0x5C }
  - { offset: 0x1F33FE, size: 0x8, addend: 0x0, symName: _ggml_threadpool_params_default, symObjAddr: 0x13CEC, symBinAddr: 0x9AD04, symSize: 0x5C }
  - { offset: 0x1F3422, size: 0x8, addend: 0x0, symName: _ggml_threadpool_params_match, symObjAddr: 0x13D48, symBinAddr: 0x9AD60, symSize: 0x68 }
  - { offset: 0x1F3685, size: 0x8, addend: 0x0, symName: __ZL26previous_terminate_handler, symObjAddr: 0x6178, symBinAddr: 0x1FD9F8, symSize: 0x0 }
  - { offset: 0x1F43BF, size: 0x8, addend: 0x0, symName: __ZL23ggml_uncaught_exceptionv, symObjAddr: 0x0, symBinAddr: 0x9B5A0, symSize: 0x20 }
  - { offset: 0x1F43F7, size: 0x8, addend: 0x0, symName: __GLOBAL__sub_I_ggml.cpp, symObjAddr: 0x20, symBinAddr: 0x9B5C0, symSize: 0x7C }
  - { offset: 0x1F4480, size: 0x8, addend: 0x0, symName: __GLOBAL__sub_I_ggml.cpp, symObjAddr: 0x20, symBinAddr: 0x9B5C0, symSize: 0x7C }
  - { offset: 0x1F6474, size: 0x8, addend: 0x0, symName: __MergedGlobals, symObjAddr: 0x16B7D0, symBinAddr: 0x1FDA00, symSize: 0x0 }
  - { offset: 0x2121E7, size: 0x8, addend: 0x0, symName: __ZNSt3__134__uninitialized_allocator_relocateB8ne200100INS_9allocatorI7gguf_kvEEPS2_EEvRT_T0_S7_S7_, symObjAddr: 0xAC34, symBinAddr: 0xA5EF8, symSize: 0x11C }
  - { offset: 0x212246, size: 0x8, addend: 0x0, symName: __ZNSt3__134__uninitialized_allocator_relocateB8ne200100INS_9allocatorI7gguf_kvEEPS2_EEvRT_T0_S7_S7_, symObjAddr: 0xAC34, symBinAddr: 0xA5EF8, symSize: 0x11C }
  - { offset: 0x214CC7, size: 0x8, addend: 0x0, symName: __MergedGlobals, symObjAddr: 0x16B7D0, symBinAddr: 0x1FDA00, symSize: 0x0 }
  - { offset: 0x2165E4, size: 0x8, addend: 0x0, symName: __ZNSt3__13mapI9gguf_typemNS_4lessIS1_EENS_9allocatorINS_4pairIKS1_mEEEEED1B8ne200100Ev, symObjAddr: 0x0, symBinAddr: 0x9B63C, symSize: 0x28 }
  - { offset: 0x2166A2, size: 0x8, addend: 0x0, symName: __ZNSt3__16__treeINS_12__value_typeI9gguf_typemEENS_19__map_value_compareIS2_S3_NS_4lessIS2_EELb1EEENS_9allocatorIS3_EEE7destroyEPNS_11__tree_nodeIS3_PvEE, symObjAddr: 0xA434, symBinAddr: 0xA57A8, symSize: 0x44 }
  - { offset: 0x216840, size: 0x8, addend: 0x0, symName: __ZNSt3__13mapI9gguf_typePKcNS_4lessIS1_EENS_9allocatorINS_4pairIKS1_S3_EEEEED1B8ne200100Ev, symObjAddr: 0x28, symBinAddr: 0x9B664, symSize: 0x28 }
  - { offset: 0x2168FE, size: 0x8, addend: 0x0, symName: __ZNSt3__16__treeINS_12__value_typeI9gguf_typePKcEENS_19__map_value_compareIS2_S5_NS_4lessIS2_EELb1EEENS_9allocatorIS5_EEE7destroyEPNS_11__tree_nodeIS5_PvEE, symObjAddr: 0xA714, symBinAddr: 0xA5A88, symSize: 0x44 }
  - { offset: 0x216B5B, size: 0x8, addend: 0x0, symName: __Z14gguf_type_size9gguf_type, symObjAddr: 0x50, symBinAddr: 0x9B68C, symSize: 0x54 }
  - { offset: 0x216B87, size: 0x8, addend: 0x0, symName: __Z14gguf_type_size9gguf_type, symObjAddr: 0x50, symBinAddr: 0x9B68C, symSize: 0x54 }
  - { offset: 0x216B9C, size: 0x8, addend: 0x0, symName: __Z14gguf_type_size9gguf_type, symObjAddr: 0x50, symBinAddr: 0x9B68C, symSize: 0x54 }
  - { offset: 0x216BBC, size: 0x8, addend: 0x0, symName: __Z14gguf_type_size9gguf_type, symObjAddr: 0x50, symBinAddr: 0x9B68C, symSize: 0x54 }
  - { offset: 0x216D70, size: 0x8, addend: 0x0, symName: _gguf_init_empty, symObjAddr: 0xA4, symBinAddr: 0x9B6E0, symSize: 0x3C }
  - { offset: 0x217D88, size: 0x8, addend: 0x0, symName: __Z24gguf_init_from_file_implP7__sFILE16gguf_init_params, symObjAddr: 0xE0, symBinAddr: 0x9B71C, symSize: 0x146C }
  - { offset: 0x21A379, size: 0x8, addend: 0x0, symName: __ZNSt3__16vectorI7gguf_kvNS_9allocatorIS1_EEE5clearB8ne200100Ev, symObjAddr: 0x9514, symBinAddr: 0xA4AD0, symSize: 0xB8 }
  - { offset: 0x21A978, size: 0x8, addend: 0x0, symName: __Z24gguf_read_emplace_helperItEbRK11gguf_readerRNSt3__16vectorI7gguf_kvNS3_9allocatorIS5_EEEERKNS3_12basic_stringIcNS3_11char_traitsIcEENS6_IcEEEEbm, symObjAddr: 0x1A50, symBinAddr: 0x9D07C, symSize: 0x294 }
  - { offset: 0x21B485, size: 0x8, addend: 0x0, symName: __Z24gguf_read_emplace_helperINSt3__112basic_stringIcNS0_11char_traitsIcEENS0_9allocatorIcEEEEEbRK11gguf_readerRNS0_6vectorI7gguf_kvNS4_ISB_EEEERKS6_bm, symObjAddr: 0x2A0C, symBinAddr: 0x9E038, symSize: 0x324 }
  - { offset: 0x21C051, size: 0x8, addend: 0x0, symName: __Z24gguf_read_emplace_helperIiEbRK11gguf_readerRNSt3__16vectorI7gguf_kvNS3_9allocatorIS5_EEEERKNS3_12basic_stringIcNS3_11char_traitsIcEENS6_IcEEEEbm, symObjAddr: 0x2210, symBinAddr: 0x9D83C, symSize: 0x298 }
  - { offset: 0x21CB66, size: 0x8, addend: 0x0, symName: __Z24gguf_read_emplace_helperIdEbRK11gguf_readerRNSt3__16vectorI7gguf_kvNS3_9allocatorIS5_EEEERKNS3_12basic_stringIcNS3_11char_traitsIcEENS6_IcEEEEbm, symObjAddr: 0x3260, symBinAddr: 0x9E88C, symSize: 0x298 }
  - { offset: 0x21D67C, size: 0x8, addend: 0x0, symName: __Z24gguf_read_emplace_helperIhEbRK11gguf_readerRNSt3__16vectorI7gguf_kvNS3_9allocatorIS5_EEEERKNS3_12basic_stringIcNS3_11char_traitsIcEENS6_IcEEEEbm, symObjAddr: 0x15B0, symBinAddr: 0x9CBDC, symSize: 0x250 }
  - { offset: 0x21DEB0, size: 0x8, addend: 0x0, symName: __Z24gguf_read_emplace_helperIfEbRK11gguf_readerRNSt3__16vectorI7gguf_kvNS3_9allocatorIS5_EEEERKNS3_12basic_stringIcNS3_11char_traitsIcEENS6_IcEEEEbm, symObjAddr: 0x24A8, symBinAddr: 0x9DAD4, symSize: 0x298 }
  - { offset: 0x21E9C6, size: 0x8, addend: 0x0, symName: __Z24gguf_read_emplace_helperIsEbRK11gguf_readerRNSt3__16vectorI7gguf_kvNS3_9allocatorIS5_EEEERKNS3_12basic_stringIcNS3_11char_traitsIcEENS6_IcEEEEbm, symObjAddr: 0x1CE4, symBinAddr: 0x9D310, symSize: 0x294 }
  - { offset: 0x21F4D3, size: 0x8, addend: 0x0, symName: __Z24gguf_read_emplace_helperIyEbRK11gguf_readerRNSt3__16vectorI7gguf_kvNS3_9allocatorIS5_EEEERKNS3_12basic_stringIcNS3_11char_traitsIcEENS6_IcEEEEbm, symObjAddr: 0x2D30, symBinAddr: 0x9E35C, symSize: 0x298 }
  - { offset: 0x21FFE8, size: 0x8, addend: 0x0, symName: __Z24gguf_read_emplace_helperIaEbRK11gguf_readerRNSt3__16vectorI7gguf_kvNS3_9allocatorIS5_EEEERKNS3_12basic_stringIcNS3_11char_traitsIcEENS6_IcEEEEbm, symObjAddr: 0x1800, symBinAddr: 0x9CE2C, symSize: 0x250 }
  - { offset: 0x22081C, size: 0x8, addend: 0x0, symName: __Z24gguf_read_emplace_helperIbEbRK11gguf_readerRNSt3__16vectorI7gguf_kvNS3_9allocatorIS5_EEEERKNS3_12basic_stringIcNS3_11char_traitsIcEENS6_IcEEEEbm, symObjAddr: 0x2740, symBinAddr: 0x9DD6C, symSize: 0x2CC }
  - { offset: 0x22111F, size: 0x8, addend: 0x0, symName: __Z24gguf_read_emplace_helperIjEbRK11gguf_readerRNSt3__16vectorI7gguf_kvNS3_9allocatorIS5_EEEERKNS3_12basic_stringIcNS3_11char_traitsIcEENS6_IcEEEEbm, symObjAddr: 0x1F78, symBinAddr: 0x9D5A4, symSize: 0x298 }
  - { offset: 0x221C34, size: 0x8, addend: 0x0, symName: __Z24gguf_read_emplace_helperIxEbRK11gguf_readerRNSt3__16vectorI7gguf_kvNS3_9allocatorIS5_EEEERKNS3_12basic_stringIcNS3_11char_traitsIcEENS6_IcEEEEbm, symObjAddr: 0x2FC8, symBinAddr: 0x9E5F4, symSize: 0x298 }
  - { offset: 0x222760, size: 0x8, addend: 0x0, symName: _gguf_get_val_u32, symObjAddr: 0x357C, symBinAddr: 0x9EBA8, symSize: 0x1AC }
  - { offset: 0x2229FE, size: 0x8, addend: 0x0, symName: __ZNSt3__16vectorI16gguf_tensor_infoNS_9allocatorIS1_EEE9push_backB8ne200100ERKS1_, symObjAddr: 0x3728, symBinAddr: 0x9ED54, symSize: 0x144 }
  - { offset: 0x222A50, size: 0x8, addend: 0x0, symName: __ZNSt3__16vectorI16gguf_tensor_infoNS_9allocatorIS1_EEE9push_backB8ne200100ERKS1_, symObjAddr: 0x3728, symBinAddr: 0x9ED54, symSize: 0x144 }
  - { offset: 0x222E74, size: 0x8, addend: 0x0, symName: _gguf_init_from_file, symObjAddr: 0x386C, symBinAddr: 0x9EE98, symSize: 0x98 }
  - { offset: 0x222EAD, size: 0x8, addend: 0x0, symName: _gguf_free, symObjAddr: 0x154C, symBinAddr: 0x9CB88, symSize: 0x54 }
  - { offset: 0x2236B4, size: 0x8, addend: 0x0, symName: __ZNK11gguf_reader4readIhEEbRNSt3__16vectorIT_NS1_9allocatorIS3_EEEEm, symObjAddr: 0xA758, symBinAddr: 0xA5ACC, symSize: 0x158 }
  - { offset: 0x223C92, size: 0x8, addend: 0x0, symName: __ZN7gguf_kvC2IhEERKNSt3__112basic_stringIcNS1_11char_traitsIcEENS1_9allocatorIcEEEERKNS1_6vectorIT_NS5_ISB_EEEE, symObjAddr: 0xA9FC, symBinAddr: 0xA5D5C, symSize: 0x158 }
  - { offset: 0x2242D0, size: 0x8, addend: 0x0, symName: __ZN7gguf_kvC2IhEERKNSt3__112basic_stringIcNS1_11char_traitsIcEENS1_9allocatorIcEEEET_, symObjAddr: 0xAF44, symBinAddr: 0xA6208, symSize: 0xF8 }
  - { offset: 0x22479B, size: 0x8, addend: 0x0, symName: __ZNSt3__16vectorI7gguf_kvNS_9allocatorIS1_EEE24__emplace_back_slow_pathIJRKNS_12basic_stringIcNS_11char_traitsIcEENS2_IcEEEERhEEEPS1_DpOT_, symObjAddr: 0xAE0C, symBinAddr: 0xA60D0, symSize: 0x138 }
  - { offset: 0x224BD3, size: 0x8, addend: 0x0, symName: __ZNSt3__16vectorI7gguf_kvNS_9allocatorIS1_EEE24__emplace_back_slow_pathIJRKNS_12basic_stringIcNS_11char_traitsIcEENS2_IcEEEERNS0_IhNS2_IhEEEEEEEPS1_DpOT_, symObjAddr: 0xA8C4, symBinAddr: 0xA5C24, symSize: 0x138 }
  - { offset: 0x225469, size: 0x8, addend: 0x0, symName: __ZNK11gguf_reader4readIaEEbRNSt3__16vectorIT_NS1_9allocatorIS3_EEEEm, symObjAddr: 0xB03C, symBinAddr: 0xA6300, symSize: 0x158 }
  - { offset: 0x225A33, size: 0x8, addend: 0x0, symName: __ZNSt3__16vectorI7gguf_kvNS_9allocatorIS1_EEE24__emplace_back_slow_pathIJRKNS_12basic_stringIcNS_11char_traitsIcEENS2_IcEEEERNS0_IaNS2_IaEEEEEEEPS1_DpOT_, symObjAddr: 0xB194, symBinAddr: 0xA6458, symSize: 0x138 }
  - { offset: 0x225A47, size: 0x8, addend: 0x0, symName: __ZN7gguf_kvC2IaEERKNSt3__112basic_stringIcNS1_11char_traitsIcEENS1_9allocatorIcEEEERKNS1_6vectorIT_NS5_ISB_EEEE, symObjAddr: 0xB2CC, symBinAddr: 0xA6590, symSize: 0x158 }
  - { offset: 0x226026, size: 0x8, addend: 0x0, symName: __ZN7gguf_kvC2IaEERKNSt3__112basic_stringIcNS1_11char_traitsIcEENS1_9allocatorIcEEEET_, symObjAddr: 0xB55C, symBinAddr: 0xA6820, symSize: 0xFC }
  - { offset: 0x2264C0, size: 0x8, addend: 0x0, symName: __ZNSt3__16vectorI7gguf_kvNS_9allocatorIS1_EEE24__emplace_back_slow_pathIJRKNS_12basic_stringIcNS_11char_traitsIcEENS2_IcEEEERaEEEPS1_DpOT_, symObjAddr: 0xB424, symBinAddr: 0xA66E8, symSize: 0x138 }
  - { offset: 0x2268F8, size: 0x8, addend: 0x0, symName: __ZNSt3__16vectorI7gguf_kvNS_9allocatorIS1_EEE24__emplace_back_slow_pathIJRKNS_12basic_stringIcNS_11char_traitsIcEENS2_IcEEEERNS0_IaNS2_IaEEEEEEEPS1_DpOT_, symObjAddr: 0xB194, symBinAddr: 0xA6458, symSize: 0x138 }
  - { offset: 0x2273FD, size: 0x8, addend: 0x0, symName: __ZN7gguf_kvC2ItEERKNSt3__112basic_stringIcNS1_11char_traitsIcEENS1_9allocatorIcEEEERKNS1_6vectorIT_NS5_ISB_EEEE, symObjAddr: 0xB7A4, symBinAddr: 0xA6A68, symSize: 0x158 }
  - { offset: 0x2279E0, size: 0x8, addend: 0x0, symName: __ZN7gguf_kvC2ItEERKNSt3__112basic_stringIcNS1_11char_traitsIcEENS1_9allocatorIcEEEET_, symObjAddr: 0xBA34, symBinAddr: 0xA6CF8, symSize: 0xFC }
  - { offset: 0x227E7A, size: 0x8, addend: 0x0, symName: __ZNSt3__16vectorI7gguf_kvNS_9allocatorIS1_EEE24__emplace_back_slow_pathIJRKNS_12basic_stringIcNS_11char_traitsIcEENS2_IcEEEERNS0_ItNS2_ItEEEEEEEPS1_DpOT_, symObjAddr: 0xB66C, symBinAddr: 0xA6930, symSize: 0x138 }
  - { offset: 0x2282BA, size: 0x8, addend: 0x0, symName: __ZNSt3__16vectorI7gguf_kvNS_9allocatorIS1_EEE24__emplace_back_slow_pathIJRKNS_12basic_stringIcNS_11char_traitsIcEENS2_IcEEEERtEEEPS1_DpOT_, symObjAddr: 0xB8FC, symBinAddr: 0xA6BC0, symSize: 0x138 }
  - { offset: 0x2286F2, size: 0x8, addend: 0x0, symName: __ZNSt3__16vectorItNS_9allocatorItEEE20__throw_length_errorB8ne200100Ev, symObjAddr: 0xB658, symBinAddr: 0xA691C, symSize: 0x14 }
  - { offset: 0x22870A, size: 0x8, addend: 0x0, symName: __ZNSt3__16vectorI7gguf_kvNS_9allocatorIS1_EEE24__emplace_back_slow_pathIJRKNS_12basic_stringIcNS_11char_traitsIcEENS2_IcEEEERNS0_ItNS2_ItEEEEEEEPS1_DpOT_, symObjAddr: 0xB66C, symBinAddr: 0xA6930, symSize: 0x138 }
  - { offset: 0x228DDA, size: 0x8, addend: 0x0, symName: __ZN7gguf_kvC2IsEERKNSt3__112basic_stringIcNS1_11char_traitsIcEENS1_9allocatorIcEEEERKNS1_6vectorIT_NS5_ISB_EEEE, symObjAddr: 0xBC7C, symBinAddr: 0xA6F40, symSize: 0x158 }
  - { offset: 0x2293BD, size: 0x8, addend: 0x0, symName: __ZN7gguf_kvC2IsEERKNSt3__112basic_stringIcNS1_11char_traitsIcEENS1_9allocatorIcEEEET_, symObjAddr: 0xBF0C, symBinAddr: 0xA71D0, symSize: 0xFC }
  - { offset: 0x229857, size: 0x8, addend: 0x0, symName: __ZNSt3__16vectorI7gguf_kvNS_9allocatorIS1_EEE24__emplace_back_slow_pathIJRKNS_12basic_stringIcNS_11char_traitsIcEENS2_IcEEEERNS0_IsNS2_IsEEEEEEEPS1_DpOT_, symObjAddr: 0xBB44, symBinAddr: 0xA6E08, symSize: 0x138 }
  - { offset: 0x229C97, size: 0x8, addend: 0x0, symName: __ZNSt3__16vectorI7gguf_kvNS_9allocatorIS1_EEE24__emplace_back_slow_pathIJRKNS_12basic_stringIcNS_11char_traitsIcEENS2_IcEEEERsEEEPS1_DpOT_, symObjAddr: 0xBDD4, symBinAddr: 0xA7098, symSize: 0x138 }
  - { offset: 0x22A0CF, size: 0x8, addend: 0x0, symName: __ZNSt3__16vectorIsNS_9allocatorIsEEE20__throw_length_errorB8ne200100Ev, symObjAddr: 0xBB30, symBinAddr: 0xA6DF4, symSize: 0x14 }
  - { offset: 0x22A0E7, size: 0x8, addend: 0x0, symName: __ZNSt3__16vectorI7gguf_kvNS_9allocatorIS1_EEE24__emplace_back_slow_pathIJRKNS_12basic_stringIcNS_11char_traitsIcEENS2_IcEEEERNS0_IsNS2_IsEEEEEEEPS1_DpOT_, symObjAddr: 0xBB44, symBinAddr: 0xA6E08, symSize: 0x138 }
  - { offset: 0x22A77C, size: 0x8, addend: 0x0, symName: __ZN7gguf_kvC2IjEERKNSt3__112basic_stringIcNS1_11char_traitsIcEENS1_9allocatorIcEEEERKNS1_6vectorIT_NS5_ISB_EEEE, symObjAddr: 0xC154, symBinAddr: 0xA7404, symSize: 0x158 }
  - { offset: 0x22AD5F, size: 0x8, addend: 0x0, symName: __ZN7gguf_kvC2IjEERKNSt3__112basic_stringIcNS1_11char_traitsIcEENS1_9allocatorIcEEEET_, symObjAddr: 0xC3E4, symBinAddr: 0xA7694, symSize: 0xFC }
  - { offset: 0x22B1F9, size: 0x8, addend: 0x0, symName: __ZNSt3__16vectorI7gguf_kvNS_9allocatorIS1_EEE24__emplace_back_slow_pathIJRKNS_12basic_stringIcNS_11char_traitsIcEENS2_IcEEEERNS0_IjNS2_IjEEEEEEEPS1_DpOT_, symObjAddr: 0xC01C, symBinAddr: 0xA72CC, symSize: 0x138 }
  - { offset: 0x22B639, size: 0x8, addend: 0x0, symName: __ZNSt3__16vectorI7gguf_kvNS_9allocatorIS1_EEE24__emplace_back_slow_pathIJRKNS_12basic_stringIcNS_11char_traitsIcEENS2_IcEEEERjEEEPS1_DpOT_, symObjAddr: 0xC2AC, symBinAddr: 0xA755C, symSize: 0x138 }
  - { offset: 0x22BA83, size: 0x8, addend: 0x0, symName: __ZNSt3__16vectorI7gguf_kvNS_9allocatorIS1_EEE24__emplace_back_slow_pathIJRKNS_12basic_stringIcNS_11char_traitsIcEENS2_IcEEEERNS0_IjNS2_IjEEEEEEEPS1_DpOT_, symObjAddr: 0xC01C, symBinAddr: 0xA72CC, symSize: 0x138 }
  - { offset: 0x22C118, size: 0x8, addend: 0x0, symName: __ZN7gguf_kvC2IiEERKNSt3__112basic_stringIcNS1_11char_traitsIcEENS1_9allocatorIcEEEERKNS1_6vectorIT_NS5_ISB_EEEE, symObjAddr: 0xC62C, symBinAddr: 0xA78C8, symSize: 0x158 }
  - { offset: 0x22C6FB, size: 0x8, addend: 0x0, symName: __ZN7gguf_kvC2IiEERKNSt3__112basic_stringIcNS1_11char_traitsIcEENS1_9allocatorIcEEEET_, symObjAddr: 0xC8BC, symBinAddr: 0xA7B58, symSize: 0xFC }
  - { offset: 0x22CB95, size: 0x8, addend: 0x0, symName: __ZNSt3__16vectorI7gguf_kvNS_9allocatorIS1_EEE24__emplace_back_slow_pathIJRKNS_12basic_stringIcNS_11char_traitsIcEENS2_IcEEEERNS0_IiNS2_IiEEEEEEEPS1_DpOT_, symObjAddr: 0xC4F4, symBinAddr: 0xA7790, symSize: 0x138 }
  - { offset: 0x22CFD5, size: 0x8, addend: 0x0, symName: __ZNSt3__16vectorI7gguf_kvNS_9allocatorIS1_EEE24__emplace_back_slow_pathIJRKNS_12basic_stringIcNS_11char_traitsIcEENS2_IcEEEERiEEEPS1_DpOT_, symObjAddr: 0xC784, symBinAddr: 0xA7A20, symSize: 0x138 }
  - { offset: 0x22D41F, size: 0x8, addend: 0x0, symName: __ZNSt3__16vectorI7gguf_kvNS_9allocatorIS1_EEE24__emplace_back_slow_pathIJRKNS_12basic_stringIcNS_11char_traitsIcEENS2_IcEEEERNS0_IiNS2_IiEEEEEEEPS1_DpOT_, symObjAddr: 0xC4F4, symBinAddr: 0xA7790, symSize: 0x138 }
  - { offset: 0x22DAEF, size: 0x8, addend: 0x0, symName: __ZN7gguf_kvC2IfEERKNSt3__112basic_stringIcNS1_11char_traitsIcEENS1_9allocatorIcEEEERKNS1_6vectorIT_NS5_ISB_EEEE, symObjAddr: 0xCB04, symBinAddr: 0xA7D8C, symSize: 0x158 }
  - { offset: 0x22E0D2, size: 0x8, addend: 0x0, symName: __ZN7gguf_kvC2IfEERKNSt3__112basic_stringIcNS1_11char_traitsIcEENS1_9allocatorIcEEEET_, symObjAddr: 0xCD94, symBinAddr: 0xA801C, symSize: 0x104 }
  - { offset: 0x22E56C, size: 0x8, addend: 0x0, symName: __ZNSt3__16vectorI7gguf_kvNS_9allocatorIS1_EEE24__emplace_back_slow_pathIJRKNS_12basic_stringIcNS_11char_traitsIcEENS2_IcEEEERNS0_IfNS2_IfEEEEEEEPS1_DpOT_, symObjAddr: 0xC9CC, symBinAddr: 0xA7C54, symSize: 0x138 }
  - { offset: 0x22E9AC, size: 0x8, addend: 0x0, symName: __ZNSt3__16vectorI7gguf_kvNS_9allocatorIS1_EEE24__emplace_back_slow_pathIJRKNS_12basic_stringIcNS_11char_traitsIcEENS2_IcEEEERfEEEPS1_DpOT_, symObjAddr: 0xCC5C, symBinAddr: 0xA7EE4, symSize: 0x138 }
  - { offset: 0x22EDF7, size: 0x8, addend: 0x0, symName: __ZNSt3__16vectorI7gguf_kvNS_9allocatorIS1_EEE24__emplace_back_slow_pathIJRKNS_12basic_stringIcNS_11char_traitsIcEENS2_IcEEEERNS0_IfNS2_IfEEEEEEEPS1_DpOT_, symObjAddr: 0xC9CC, symBinAddr: 0xA7C54, symSize: 0x138 }
  - { offset: 0x22F2E3, size: 0x8, addend: 0x0, symName: __ZNSt3__16vectorIbNS_9allocatorIbEEE6resizeEmb, symObjAddr: 0xCE98, symBinAddr: 0xA8120, symSize: 0x264 }
  - { offset: 0x22FB42, size: 0x8, addend: 0x0, symName: __ZN7gguf_kvC2IbEERKNSt3__112basic_stringIcNS1_11char_traitsIcEENS1_9allocatorIcEEEERKNS1_6vectorIT_NS5_ISB_EEEE, symObjAddr: 0xD350, symBinAddr: 0xA85D8, symSize: 0x15C }
  - { offset: 0x230187, size: 0x8, addend: 0x0, symName: __ZN7gguf_kvC2IbEERKNSt3__112basic_stringIcNS1_11char_traitsIcEENS1_9allocatorIcEEEET_, symObjAddr: 0xD5E4, symBinAddr: 0xA886C, symSize: 0xFC }
  - { offset: 0x230621, size: 0x8, addend: 0x0, symName: __ZNSt3__16vectorI7gguf_kvNS_9allocatorIS1_EEE24__emplace_back_slow_pathIJRKNS_12basic_stringIcNS_11char_traitsIcEENS2_IcEEEERNS0_IbNS2_IbEEEEEEEPS1_DpOT_, symObjAddr: 0xD218, symBinAddr: 0xA84A0, symSize: 0x138 }
  - { offset: 0x230A61, size: 0x8, addend: 0x0, symName: __ZNSt3__16vectorI7gguf_kvNS_9allocatorIS1_EEE24__emplace_back_slow_pathIJRKNS_12basic_stringIcNS_11char_traitsIcEENS2_IcEEEERbEEEPS1_DpOT_, symObjAddr: 0xD4AC, symBinAddr: 0xA8734, symSize: 0x138 }
  - { offset: 0x23131F, size: 0x8, addend: 0x0, symName: __ZNK11gguf_reader4readINSt3__112basic_stringIcNS1_11char_traitsIcEENS1_9allocatorIcEEEEEEbRNS1_6vectorIT_NS5_IS9_EEEEm, symObjAddr: 0xD6E0, symBinAddr: 0xA8968, symSize: 0x180 }
  - { offset: 0x2316CD, size: 0x8, addend: 0x0, symName: __ZN7gguf_kvC2ERKNSt3__112basic_stringIcNS0_11char_traitsIcEENS0_9allocatorIcEEEERKNS0_6vectorIS6_NS4_IS6_EEEE, symObjAddr: 0xDB90, symBinAddr: 0xA8DA0, symSize: 0x120 }
  - { offset: 0x231A8C, size: 0x8, addend: 0x0, symName: __ZN7gguf_kvC2ERKNSt3__112basic_stringIcNS0_11char_traitsIcEENS0_9allocatorIcEEEES8_, symObjAddr: 0xE130, symBinAddr: 0xA92E4, symSize: 0xF8 }
  - { offset: 0x231DE2, size: 0x8, addend: 0x0, symName: __ZNSt3__16vectorI7gguf_kvNS_9allocatorIS1_EEE24__emplace_back_slow_pathIJRKNS_12basic_stringIcNS_11char_traitsIcEENS2_IcEEEERNS0_ISA_NS2_ISA_EEEEEEEPS1_DpOT_, symObjAddr: 0xDA58, symBinAddr: 0xA8C68, symSize: 0x138 }
  - { offset: 0x232222, size: 0x8, addend: 0x0, symName: __ZNSt3__16vectorI7gguf_kvNS_9allocatorIS1_EEE24__emplace_back_slow_pathIJRKNS_12basic_stringIcNS_11char_traitsIcEENS2_IcEEEERSA_EEEPS1_DpOT_, symObjAddr: 0xDFF8, symBinAddr: 0xA91AC, symSize: 0x138 }
  - { offset: 0x232E75, size: 0x8, addend: 0x0, symName: __ZN7gguf_kvC2IyEERKNSt3__112basic_stringIcNS1_11char_traitsIcEENS1_9allocatorIcEEEERKNS1_6vectorIT_NS5_ISB_EEEE, symObjAddr: 0xE4C4, symBinAddr: 0xA9528, symSize: 0x158 }
  - { offset: 0x233458, size: 0x8, addend: 0x0, symName: __ZN7gguf_kvC2IyEERKNSt3__112basic_stringIcNS1_11char_traitsIcEENS1_9allocatorIcEEEET_, symObjAddr: 0xE754, symBinAddr: 0xA97B8, symSize: 0xFC }
  - { offset: 0x2338F2, size: 0x8, addend: 0x0, symName: __ZNSt3__16vectorI7gguf_kvNS_9allocatorIS1_EEE24__emplace_back_slow_pathIJRKNS_12basic_stringIcNS_11char_traitsIcEENS2_IcEEEERNS0_IyNS2_IyEEEEEEEPS1_DpOT_, symObjAddr: 0xE38C, symBinAddr: 0xA93F0, symSize: 0x138 }
  - { offset: 0x233D32, size: 0x8, addend: 0x0, symName: __ZNSt3__16vectorI7gguf_kvNS_9allocatorIS1_EEE24__emplace_back_slow_pathIJRKNS_12basic_stringIcNS_11char_traitsIcEENS2_IcEEEERyEEEPS1_DpOT_, symObjAddr: 0xE61C, symBinAddr: 0xA9680, symSize: 0x138 }
  - { offset: 0x234172, size: 0x8, addend: 0x0, symName: __ZNSt3__16vectorIyNS_9allocatorIyEEE20__throw_length_errorB8ne200100Ev, symObjAddr: 0xE378, symBinAddr: 0xA93DC, symSize: 0x14 }
  - { offset: 0x23418A, size: 0x8, addend: 0x0, symName: __ZNSt3__16vectorI7gguf_kvNS_9allocatorIS1_EEE24__emplace_back_slow_pathIJRKNS_12basic_stringIcNS_11char_traitsIcEENS2_IcEEEERNS0_IyNS2_IyEEEEEEEPS1_DpOT_, symObjAddr: 0xE38C, symBinAddr: 0xA93F0, symSize: 0x138 }
  - { offset: 0x234830, size: 0x8, addend: 0x0, symName: __ZN7gguf_kvC2IxEERKNSt3__112basic_stringIcNS1_11char_traitsIcEENS1_9allocatorIcEEEERKNS1_6vectorIT_NS5_ISB_EEEE, symObjAddr: 0xE99C, symBinAddr: 0xA99EC, symSize: 0x158 }
  - { offset: 0x234E13, size: 0x8, addend: 0x0, symName: __ZN7gguf_kvC2IxEERKNSt3__112basic_stringIcNS1_11char_traitsIcEENS1_9allocatorIcEEEET_, symObjAddr: 0xEC2C, symBinAddr: 0xA9C7C, symSize: 0xFC }
  - { offset: 0x2352AD, size: 0x8, addend: 0x0, symName: __ZNSt3__16vectorI7gguf_kvNS_9allocatorIS1_EEE24__emplace_back_slow_pathIJRKNS_12basic_stringIcNS_11char_traitsIcEENS2_IcEEEERNS0_IxNS2_IxEEEEEEEPS1_DpOT_, symObjAddr: 0xE864, symBinAddr: 0xA98B4, symSize: 0x138 }
  - { offset: 0x2356ED, size: 0x8, addend: 0x0, symName: __ZNSt3__16vectorI7gguf_kvNS_9allocatorIS1_EEE24__emplace_back_slow_pathIJRKNS_12basic_stringIcNS_11char_traitsIcEENS2_IcEEEERxEEEPS1_DpOT_, symObjAddr: 0xEAF4, symBinAddr: 0xA9B44, symSize: 0x138 }
  - { offset: 0x235B37, size: 0x8, addend: 0x0, symName: __ZNSt3__16vectorI7gguf_kvNS_9allocatorIS1_EEE24__emplace_back_slow_pathIJRKNS_12basic_stringIcNS_11char_traitsIcEENS2_IcEEEERNS0_IxNS2_IxEEEEEEEPS1_DpOT_, symObjAddr: 0xE864, symBinAddr: 0xA98B4, symSize: 0x138 }
  - { offset: 0x236207, size: 0x8, addend: 0x0, symName: __ZN7gguf_kvC2IdEERKNSt3__112basic_stringIcNS1_11char_traitsIcEENS1_9allocatorIcEEEERKNS1_6vectorIT_NS5_ISB_EEEE, symObjAddr: 0xEE74, symBinAddr: 0xA9EB0, symSize: 0x158 }
  - { offset: 0x2367EA, size: 0x8, addend: 0x0, symName: __ZN7gguf_kvC2IdEERKNSt3__112basic_stringIcNS1_11char_traitsIcEENS1_9allocatorIcEEEET_, symObjAddr: 0xF104, symBinAddr: 0xAA140, symSize: 0x104 }
  - { offset: 0x236C84, size: 0x8, addend: 0x0, symName: __ZNSt3__16vectorI7gguf_kvNS_9allocatorIS1_EEE24__emplace_back_slow_pathIJRKNS_12basic_stringIcNS_11char_traitsIcEENS2_IcEEEERNS0_IdNS2_IdEEEEEEEPS1_DpOT_, symObjAddr: 0xED3C, symBinAddr: 0xA9D78, symSize: 0x138 }
  - { offset: 0x2370C4, size: 0x8, addend: 0x0, symName: __ZNSt3__16vectorI7gguf_kvNS_9allocatorIS1_EEE24__emplace_back_slow_pathIJRKNS_12basic_stringIcNS_11char_traitsIcEENS2_IcEEEERdEEEPS1_DpOT_, symObjAddr: 0xEFCC, symBinAddr: 0xAA008, symSize: 0x138 }
  - { offset: 0x23750F, size: 0x8, addend: 0x0, symName: __ZNSt3__16vectorI7gguf_kvNS_9allocatorIS1_EEE24__emplace_back_slow_pathIJRKNS_12basic_stringIcNS_11char_traitsIcEENS2_IcEEEERNS0_IdNS2_IdEEEEEEEPS1_DpOT_, symObjAddr: 0xED3C, symBinAddr: 0xA9D78, symSize: 0x138 }
  - { offset: 0x23751A, size: 0x8, addend: 0x0, symName: _gguf_find_key, symObjAddr: 0x34F8, symBinAddr: 0x9EB24, symSize: 0x84 }
  - { offset: 0x23772C, size: 0x8, addend: 0x0, symName: __ZNK7gguf_kv6get_neEv, symObjAddr: 0x3E50, symBinAddr: 0x9F47C, symSize: 0x140 }
  - { offset: 0x237917, size: 0x8, addend: 0x0, symName: __ZNK7gguf_kv7get_valIhEERKT_m, symObjAddr: 0x3F90, symBinAddr: 0x9F5BC, symSize: 0x114 }
  - { offset: 0x237BF4, size: 0x8, addend: 0x0, symName: __ZNSt3__16vectorI16gguf_tensor_infoNS_9allocatorIS1_EEE20__throw_length_errorB8ne200100Ev, symObjAddr: 0xF208, symBinAddr: 0xAA244, symSize: 0x14 }
  - { offset: 0x237C0C, size: 0x8, addend: 0x0, symName: __ZNKSt3__111__move_implINS_17_ClassicAlgPolicyEEclB8ne200100IP7gguf_kvS5_S5_EENS_4pairIT_T1_EES7_T0_S8_, symObjAddr: 0xF21C, symBinAddr: 0xAA258, symSize: 0x12C }
  - { offset: 0x237C17, size: 0x8, addend: 0x0, symName: _gguf_init_from_file, symObjAddr: 0x386C, symBinAddr: 0x9EE98, symSize: 0x98 }
  - { offset: 0x237E00, size: 0x8, addend: 0x0, symName: _gguf_type_name, symObjAddr: 0x3904, symBinAddr: 0x9EF30, symSize: 0x54 }
  - { offset: 0x237E41, size: 0x8, addend: 0x0, symName: _gguf_type_name, symObjAddr: 0x3904, symBinAddr: 0x9EF30, symSize: 0x54 }
  - { offset: 0x237E57, size: 0x8, addend: 0x0, symName: _gguf_type_name, symObjAddr: 0x3904, symBinAddr: 0x9EF30, symSize: 0x54 }
  - { offset: 0x237E77, size: 0x8, addend: 0x0, symName: _gguf_type_name, symObjAddr: 0x3904, symBinAddr: 0x9EF30, symSize: 0x54 }
  - { offset: 0x237F39, size: 0x8, addend: 0x0, symName: _gguf_get_version, symObjAddr: 0x3958, symBinAddr: 0x9EF84, symSize: 0x8 }
  - { offset: 0x237F66, size: 0x8, addend: 0x0, symName: _gguf_get_alignment, symObjAddr: 0x3960, symBinAddr: 0x9EF8C, symSize: 0x8 }
  - { offset: 0x237F93, size: 0x8, addend: 0x0, symName: _gguf_get_data_offset, symObjAddr: 0x3968, symBinAddr: 0x9EF94, symSize: 0x8 }
  - { offset: 0x237FC0, size: 0x8, addend: 0x0, symName: _gguf_get_n_kv, symObjAddr: 0x3970, symBinAddr: 0x9EF9C, symSize: 0x1C }
  - { offset: 0x237FE2, size: 0x8, addend: 0x0, symName: _gguf_get_n_kv, symObjAddr: 0x3970, symBinAddr: 0x9EF9C, symSize: 0x1C }
  - { offset: 0x238000, size: 0x8, addend: 0x0, symName: _gguf_get_key, symObjAddr: 0x398C, symBinAddr: 0x9EFB8, symSize: 0x70 }
  - { offset: 0x238114, size: 0x8, addend: 0x0, symName: _gguf_get_kv_type, symObjAddr: 0x39FC, symBinAddr: 0x9F028, symSize: 0x74 }
  - { offset: 0x238128, size: 0x8, addend: 0x0, symName: _gguf_get_kv_type, symObjAddr: 0x39FC, symBinAddr: 0x9F028, symSize: 0x74 }
  - { offset: 0x2381C8, size: 0x8, addend: 0x0, symName: _gguf_get_arr_type, symObjAddr: 0x3A70, symBinAddr: 0x9F09C, symSize: 0x98 }
  - { offset: 0x2381DC, size: 0x8, addend: 0x0, symName: _gguf_get_arr_type, symObjAddr: 0x3A70, symBinAddr: 0x9F09C, symSize: 0x98 }
  - { offset: 0x238293, size: 0x8, addend: 0x0, symName: _gguf_get_arr_data, symObjAddr: 0x3B08, symBinAddr: 0x9F134, symSize: 0x9C }
  - { offset: 0x2382BD, size: 0x8, addend: 0x0, symName: _gguf_get_arr_data, symObjAddr: 0x3B08, symBinAddr: 0x9F134, symSize: 0x9C }
  - { offset: 0x238395, size: 0x8, addend: 0x0, symName: _gguf_get_arr_str, symObjAddr: 0x3BA4, symBinAddr: 0x9F1D0, symSize: 0xBC }
  - { offset: 0x2383CB, size: 0x8, addend: 0x0, symName: _gguf_get_arr_str, symObjAddr: 0x3BA4, symBinAddr: 0x9F1D0, symSize: 0xBC }
  - { offset: 0x238545, size: 0x8, addend: 0x0, symName: _gguf_get_arr_n, symObjAddr: 0x3C60, symBinAddr: 0x9F28C, symSize: 0x130 }
  - { offset: 0x238559, size: 0x8, addend: 0x0, symName: _gguf_get_arr_n, symObjAddr: 0x3C60, symBinAddr: 0x9F28C, symSize: 0x130 }
  - { offset: 0x238778, size: 0x8, addend: 0x0, symName: _gguf_get_val_u8, symObjAddr: 0x3D90, symBinAddr: 0x9F3BC, symSize: 0xC0 }
  - { offset: 0x23878C, size: 0x8, addend: 0x0, symName: _gguf_get_val_u8, symObjAddr: 0x3D90, symBinAddr: 0x9F3BC, symSize: 0xC0 }
  - { offset: 0x238899, size: 0x8, addend: 0x0, symName: __ZNK7gguf_kv6get_neEv, symObjAddr: 0x3E50, symBinAddr: 0x9F47C, symSize: 0x140 }
  - { offset: 0x2388AD, size: 0x8, addend: 0x0, symName: __ZNK7gguf_kv7get_valIhEERKT_m, symObjAddr: 0x3F90, symBinAddr: 0x9F5BC, symSize: 0x114 }
  - { offset: 0x238A17, size: 0x8, addend: 0x0, symName: _gguf_get_val_i8, symObjAddr: 0x40A4, symBinAddr: 0x9F6D0, symSize: 0x1AC }
  - { offset: 0x238A6A, size: 0x8, addend: 0x0, symName: _gguf_get_val_i8, symObjAddr: 0x40A4, symBinAddr: 0x9F6D0, symSize: 0x1AC }
  - { offset: 0x238D08, size: 0x8, addend: 0x0, symName: _gguf_get_val_u16, symObjAddr: 0x4250, symBinAddr: 0x9F87C, symSize: 0x1AC }
  - { offset: 0x238D52, size: 0x8, addend: 0x0, symName: _gguf_get_val_u16, symObjAddr: 0x4250, symBinAddr: 0x9F87C, symSize: 0x1AC }
  - { offset: 0x238FF0, size: 0x8, addend: 0x0, symName: _gguf_get_val_i16, symObjAddr: 0x43FC, symBinAddr: 0x9FA28, symSize: 0x1AC }
  - { offset: 0x23903A, size: 0x8, addend: 0x0, symName: _gguf_get_val_i16, symObjAddr: 0x43FC, symBinAddr: 0x9FA28, symSize: 0x1AC }
  - { offset: 0x2392D8, size: 0x8, addend: 0x0, symName: _gguf_get_val_i32, symObjAddr: 0x45A8, symBinAddr: 0x9FBD4, symSize: 0x1AC }
  - { offset: 0x239322, size: 0x8, addend: 0x0, symName: _gguf_get_val_i32, symObjAddr: 0x45A8, symBinAddr: 0x9FBD4, symSize: 0x1AC }
  - { offset: 0x2395C0, size: 0x8, addend: 0x0, symName: _gguf_get_val_f32, symObjAddr: 0x4754, symBinAddr: 0x9FD80, symSize: 0x1AC }
  - { offset: 0x23960A, size: 0x8, addend: 0x0, symName: _gguf_get_val_f32, symObjAddr: 0x4754, symBinAddr: 0x9FD80, symSize: 0x1AC }
  - { offset: 0x2398A8, size: 0x8, addend: 0x0, symName: _gguf_get_val_u64, symObjAddr: 0x4900, symBinAddr: 0x9FF2C, symSize: 0x1AC }
  - { offset: 0x2398F2, size: 0x8, addend: 0x0, symName: _gguf_get_val_u64, symObjAddr: 0x4900, symBinAddr: 0x9FF2C, symSize: 0x1AC }
  - { offset: 0x239B90, size: 0x8, addend: 0x0, symName: _gguf_get_val_i64, symObjAddr: 0x4AAC, symBinAddr: 0xA00D8, symSize: 0x1AC }
  - { offset: 0x239BDA, size: 0x8, addend: 0x0, symName: _gguf_get_val_i64, symObjAddr: 0x4AAC, symBinAddr: 0xA00D8, symSize: 0x1AC }
  - { offset: 0x239E78, size: 0x8, addend: 0x0, symName: _gguf_get_val_f64, symObjAddr: 0x4C58, symBinAddr: 0xA0284, symSize: 0x1AC }
  - { offset: 0x239EC2, size: 0x8, addend: 0x0, symName: _gguf_get_val_f64, symObjAddr: 0x4C58, symBinAddr: 0xA0284, symSize: 0x1AC }
  - { offset: 0x23A160, size: 0x8, addend: 0x0, symName: _gguf_get_val_bool, symObjAddr: 0x4E04, symBinAddr: 0xA0430, symSize: 0x1AC }
  - { offset: 0x23A1AA, size: 0x8, addend: 0x0, symName: _gguf_get_val_bool, symObjAddr: 0x4E04, symBinAddr: 0xA0430, symSize: 0x1AC }
  - { offset: 0x23A448, size: 0x8, addend: 0x0, symName: __ZNK7gguf_kv7get_valIbEERKT_m, symObjAddr: 0x4FB0, symBinAddr: 0xA05DC, symSize: 0x114 }
  - { offset: 0x23A45C, size: 0x8, addend: 0x0, symName: __ZNK7gguf_kv7get_valIbEERKT_m, symObjAddr: 0x4FB0, symBinAddr: 0xA05DC, symSize: 0x114 }
  - { offset: 0x23A5F8, size: 0x8, addend: 0x0, symName: _gguf_get_val_str, symObjAddr: 0x50C4, symBinAddr: 0xA06F0, symSize: 0x130 }
  - { offset: 0x23A636, size: 0x8, addend: 0x0, symName: _gguf_get_val_str, symObjAddr: 0x50C4, symBinAddr: 0xA06F0, symSize: 0x130 }
  - { offset: 0x23A828, size: 0x8, addend: 0x0, symName: _gguf_get_val_data, symObjAddr: 0x51F4, symBinAddr: 0xA0820, symSize: 0xE8 }
  - { offset: 0x23A83C, size: 0x8, addend: 0x0, symName: _gguf_get_val_data, symObjAddr: 0x51F4, symBinAddr: 0xA0820, symSize: 0xE8 }
  - { offset: 0x23A96C, size: 0x8, addend: 0x0, symName: _gguf_get_n_tensors, symObjAddr: 0x52DC, symBinAddr: 0xA0908, symSize: 0x24 }
  - { offset: 0x23A980, size: 0x8, addend: 0x0, symName: _gguf_get_n_tensors, symObjAddr: 0x52DC, symBinAddr: 0xA0908, symSize: 0x24 }
  - { offset: 0x23A9A2, size: 0x8, addend: 0x0, symName: _gguf_get_n_tensors, symObjAddr: 0x52DC, symBinAddr: 0xA0908, symSize: 0x24 }
  - { offset: 0x23A9DB, size: 0x8, addend: 0x0, symName: _gguf_find_tensor, symObjAddr: 0x5300, symBinAddr: 0xA092C, symSize: 0x84 }
  - { offset: 0x23AA76, size: 0x8, addend: 0x0, symName: _gguf_get_tensor_name, symObjAddr: 0x5384, symBinAddr: 0xA09B0, symSize: 0x6C }
  - { offset: 0x23AAF7, size: 0x8, addend: 0x0, symName: _gguf_get_tensor_offset, symObjAddr: 0x53F0, symBinAddr: 0xA0A1C, symSize: 0x6C }
  - { offset: 0x23AB0B, size: 0x8, addend: 0x0, symName: _gguf_get_tensor_offset, symObjAddr: 0x53F0, symBinAddr: 0xA0A1C, symSize: 0x6C }
  - { offset: 0x23AB8C, size: 0x8, addend: 0x0, symName: _gguf_get_tensor_type, symObjAddr: 0x545C, symBinAddr: 0xA0A88, symSize: 0x6C }
  - { offset: 0x23ABC2, size: 0x8, addend: 0x0, symName: _gguf_get_tensor_type, symObjAddr: 0x545C, symBinAddr: 0xA0A88, symSize: 0x6C }
  - { offset: 0x23AC62, size: 0x8, addend: 0x0, symName: _gguf_get_tensor_size, symObjAddr: 0x54C8, symBinAddr: 0xA0AF4, symSize: 0x68 }
  - { offset: 0x23AC76, size: 0x8, addend: 0x0, symName: _gguf_get_tensor_size, symObjAddr: 0x54C8, symBinAddr: 0xA0AF4, symSize: 0x68 }
  - { offset: 0x23AD24, size: 0x8, addend: 0x0, symName: _gguf_remove_key, symObjAddr: 0x5530, symBinAddr: 0xA0B5C, symSize: 0x140 }
  - { offset: 0x23AE79, size: 0x8, addend: 0x0, symName: _gguf_remove_key, symObjAddr: 0x5530, symBinAddr: 0xA0B5C, symSize: 0x140 }
  - { offset: 0x23B71D, size: 0x8, addend: 0x0, symName: __ZNKSt3__111__move_implINS_17_ClassicAlgPolicyEEclB8ne200100IP7gguf_kvS5_S5_EENS_4pairIT_T1_EES7_T0_S8_, symObjAddr: 0xF21C, symBinAddr: 0xAA258, symSize: 0x12C }
  - { offset: 0x23BFFB, size: 0x8, addend: 0x0, symName: _gguf_set_val_u8, symObjAddr: 0x5670, symBinAddr: 0xA0C9C, symSize: 0x1F0 }
  - { offset: 0x23C6FC, size: 0x8, addend: 0x0, symName: __ZNSt3__19allocatorI7gguf_kvE9constructB8ne200100IS1_JRPKcRhEEEvPT_DpOT0_, symObjAddr: 0xF480, symBinAddr: 0xAA4BC, symSize: 0x100 }
  - { offset: 0x23CC7A, size: 0x8, addend: 0x0, symName: __ZNSt3__16vectorI7gguf_kvNS_9allocatorIS1_EEE24__emplace_back_slow_pathIJRPKcRhEEEPS1_DpOT_, symObjAddr: 0xF348, symBinAddr: 0xAA384, symSize: 0x138 }
  - { offset: 0x23D075, size: 0x8, addend: 0x0, symName: __ZNSt3__114__split_bufferI7gguf_kvRNS_9allocatorIS1_EEED1Ev, symObjAddr: 0xABF0, symBinAddr: 0xA5EB4, symSize: 0x30 }
  - { offset: 0x23D19D, size: 0x8, addend: 0x0, symName: _gguf_set_val_i8, symObjAddr: 0x5860, symBinAddr: 0xA0E8C, symSize: 0x1F0 }
  - { offset: 0x23D88C, size: 0x8, addend: 0x0, symName: __ZNSt3__19allocatorI7gguf_kvE9constructB8ne200100IS1_JRPKcRaEEEvPT_DpOT0_, symObjAddr: 0xF6B8, symBinAddr: 0xAA6F4, symSize: 0x100 }
  - { offset: 0x23DE0A, size: 0x8, addend: 0x0, symName: __ZNSt3__16vectorI7gguf_kvNS_9allocatorIS1_EEE24__emplace_back_slow_pathIJRPKcRaEEEPS1_DpOT_, symObjAddr: 0xF580, symBinAddr: 0xAA5BC, symSize: 0x138 }
  - { offset: 0x23E318, size: 0x8, addend: 0x0, symName: _gguf_set_val_u16, symObjAddr: 0x5A50, symBinAddr: 0xA107C, symSize: 0x1F0 }
  - { offset: 0x23EA07, size: 0x8, addend: 0x0, symName: __ZNSt3__19allocatorI7gguf_kvE9constructB8ne200100IS1_JRPKcRtEEEvPT_DpOT0_, symObjAddr: 0xF8F0, symBinAddr: 0xAA92C, symSize: 0x100 }
  - { offset: 0x23EF85, size: 0x8, addend: 0x0, symName: __ZNSt3__16vectorI7gguf_kvNS_9allocatorIS1_EEE24__emplace_back_slow_pathIJRPKcRtEEEPS1_DpOT_, symObjAddr: 0xF7B8, symBinAddr: 0xAA7F4, symSize: 0x138 }
  - { offset: 0x23F493, size: 0x8, addend: 0x0, symName: _gguf_set_val_i16, symObjAddr: 0x5C40, symBinAddr: 0xA126C, symSize: 0x1F0 }
  - { offset: 0x23FB82, size: 0x8, addend: 0x0, symName: __ZNSt3__19allocatorI7gguf_kvE9constructB8ne200100IS1_JRPKcRsEEEvPT_DpOT0_, symObjAddr: 0xFB28, symBinAddr: 0xAAB64, symSize: 0x100 }
  - { offset: 0x240100, size: 0x8, addend: 0x0, symName: __ZNSt3__16vectorI7gguf_kvNS_9allocatorIS1_EEE24__emplace_back_slow_pathIJRPKcRsEEEPS1_DpOT_, symObjAddr: 0xF9F0, symBinAddr: 0xAAA2C, symSize: 0x138 }
  - { offset: 0x24060E, size: 0x8, addend: 0x0, symName: _gguf_set_val_u32, symObjAddr: 0x5E30, symBinAddr: 0xA145C, symSize: 0x1F8 }
  - { offset: 0x240D04, size: 0x8, addend: 0x0, symName: __ZNSt3__19allocatorI7gguf_kvE9constructB8ne200100IS1_JRPKcRjEEEvPT_DpOT0_, symObjAddr: 0xFD60, symBinAddr: 0xAAD9C, symSize: 0x100 }
  - { offset: 0x24128A, size: 0x8, addend: 0x0, symName: __ZNSt3__16vectorI7gguf_kvNS_9allocatorIS1_EEE24__emplace_back_slow_pathIJRPKcRjEEEPS1_DpOT_, symObjAddr: 0xFC28, symBinAddr: 0xAAC64, symSize: 0x138 }
  - { offset: 0x241798, size: 0x8, addend: 0x0, symName: _gguf_set_val_i32, symObjAddr: 0x6028, symBinAddr: 0xA1654, symSize: 0x1F0 }
  - { offset: 0x241E87, size: 0x8, addend: 0x0, symName: __ZNSt3__19allocatorI7gguf_kvE9constructB8ne200100IS1_JRPKcRiEEEvPT_DpOT0_, symObjAddr: 0xFF98, symBinAddr: 0xAAFD4, symSize: 0x100 }
  - { offset: 0x24240D, size: 0x8, addend: 0x0, symName: __ZNSt3__16vectorI7gguf_kvNS_9allocatorIS1_EEE24__emplace_back_slow_pathIJRPKcRiEEEPS1_DpOT_, symObjAddr: 0xFE60, symBinAddr: 0xAAE9C, symSize: 0x138 }
  - { offset: 0x24291B, size: 0x8, addend: 0x0, symName: _gguf_set_val_f32, symObjAddr: 0x6218, symBinAddr: 0xA1844, symSize: 0x1F0 }
  - { offset: 0x24300A, size: 0x8, addend: 0x0, symName: __ZNSt3__19allocatorI7gguf_kvE9constructB8ne200100IS1_JRPKcRfEEEvPT_DpOT0_, symObjAddr: 0x101D0, symBinAddr: 0xAB20C, symSize: 0x100 }
  - { offset: 0x243591, size: 0x8, addend: 0x0, symName: __ZNSt3__16vectorI7gguf_kvNS_9allocatorIS1_EEE24__emplace_back_slow_pathIJRPKcRfEEEPS1_DpOT_, symObjAddr: 0x10098, symBinAddr: 0xAB0D4, symSize: 0x138 }
  - { offset: 0x243A9F, size: 0x8, addend: 0x0, symName: _gguf_set_val_u64, symObjAddr: 0x6408, symBinAddr: 0xA1A34, symSize: 0x1EC }
  - { offset: 0x24418E, size: 0x8, addend: 0x0, symName: __ZNSt3__19allocatorI7gguf_kvE9constructB8ne200100IS1_JRPKcRyEEEvPT_DpOT0_, symObjAddr: 0x10408, symBinAddr: 0xAB444, symSize: 0x100 }
  - { offset: 0x244714, size: 0x8, addend: 0x0, symName: __ZNSt3__16vectorI7gguf_kvNS_9allocatorIS1_EEE24__emplace_back_slow_pathIJRPKcRyEEEPS1_DpOT_, symObjAddr: 0x102D0, symBinAddr: 0xAB30C, symSize: 0x138 }
  - { offset: 0x244C22, size: 0x8, addend: 0x0, symName: _gguf_set_val_i64, symObjAddr: 0x65F4, symBinAddr: 0xA1C20, symSize: 0x1EC }
  - { offset: 0x245311, size: 0x8, addend: 0x0, symName: __ZNSt3__19allocatorI7gguf_kvE9constructB8ne200100IS1_JRPKcRxEEEvPT_DpOT0_, symObjAddr: 0x10640, symBinAddr: 0xAB67C, symSize: 0x100 }
  - { offset: 0x245897, size: 0x8, addend: 0x0, symName: __ZNSt3__16vectorI7gguf_kvNS_9allocatorIS1_EEE24__emplace_back_slow_pathIJRPKcRxEEEPS1_DpOT_, symObjAddr: 0x10508, symBinAddr: 0xAB544, symSize: 0x138 }
  - { offset: 0x245DA5, size: 0x8, addend: 0x0, symName: _gguf_set_val_f64, symObjAddr: 0x67E0, symBinAddr: 0xA1E0C, symSize: 0x1F0 }
  - { offset: 0x246494, size: 0x8, addend: 0x0, symName: __ZNSt3__19allocatorI7gguf_kvE9constructB8ne200100IS1_JRPKcRdEEEvPT_DpOT0_, symObjAddr: 0x10878, symBinAddr: 0xAB8B4, symSize: 0x100 }
  - { offset: 0x246A1B, size: 0x8, addend: 0x0, symName: __ZNSt3__16vectorI7gguf_kvNS_9allocatorIS1_EEE24__emplace_back_slow_pathIJRPKcRdEEEPS1_DpOT_, symObjAddr: 0x10740, symBinAddr: 0xAB77C, symSize: 0x138 }
  - { offset: 0x246F29, size: 0x8, addend: 0x0, symName: _gguf_set_val_bool, symObjAddr: 0x69D0, symBinAddr: 0xA1FFC, symSize: 0x1F0 }
  - { offset: 0x247618, size: 0x8, addend: 0x0, symName: __ZNSt3__19allocatorI7gguf_kvE9constructB8ne200100IS1_JRPKcRbEEEvPT_DpOT0_, symObjAddr: 0x10AB0, symBinAddr: 0xABAEC, symSize: 0x100 }
  - { offset: 0x247B96, size: 0x8, addend: 0x0, symName: __ZNSt3__16vectorI7gguf_kvNS_9allocatorIS1_EEE24__emplace_back_slow_pathIJRPKcRbEEEPS1_DpOT_, symObjAddr: 0x10978, symBinAddr: 0xAB9B4, symSize: 0x138 }
  - { offset: 0x2480AA, size: 0x8, addend: 0x0, symName: _gguf_set_val_str, symObjAddr: 0x6BC0, symBinAddr: 0xA21EC, symSize: 0x280 }
  - { offset: 0x248B89, size: 0x8, addend: 0x0, symName: __ZNSt3__19allocatorI7gguf_kvE9constructB8ne200100IS1_JRPKcNS_12basic_stringIcNS_11char_traitsIcEENS0_IcEEEEEEEvPT_DpOT0_, symObjAddr: 0x10CE8, symBinAddr: 0xABD24, symSize: 0x100 }
  - { offset: 0x249116, size: 0x8, addend: 0x0, symName: __ZNSt3__16vectorI7gguf_kvNS_9allocatorIS1_EEE24__emplace_back_slow_pathIJRPKcNS_12basic_stringIcNS_11char_traitsIcEENS2_IcEEEEEEEPS1_DpOT_, symObjAddr: 0x10BB0, symBinAddr: 0xABBEC, symSize: 0x138 }
  - { offset: 0x249806, size: 0x8, addend: 0x0, symName: _gguf_set_arr_data, symObjAddr: 0x6E40, symBinAddr: 0xA246C, symSize: 0x388 }
  - { offset: 0x24A54E, size: 0x8, addend: 0x0, symName: __ZNSt3__16vectorI7gguf_kvNS_9allocatorIS1_EEE24__emplace_back_slow_pathIJRPKcRNS0_IaNS2_IaEEEEEEEPS1_DpOT_, symObjAddr: 0x10DE8, symBinAddr: 0xABE24, symSize: 0x138 }
  - { offset: 0x24A93F, size: 0x8, addend: 0x0, symName: __ZNSt3__19allocatorI7gguf_kvE9constructB8ne200100IS1_JRPKcRNS_6vectorIaNS0_IaEEEEEEEvPT_DpOT0_, symObjAddr: 0x10F20, symBinAddr: 0xABF5C, symSize: 0x100 }
  - { offset: 0x24AECC, size: 0x8, addend: 0x0, symName: __ZNSt3__16vectorIaNS_9allocatorIaEEE20__throw_length_errorB8ne200100Ev, symObjAddr: 0x97C4, symBinAddr: 0xA4D80, symSize: 0x14 }
  - { offset: 0x24B255, size: 0x8, addend: 0x0, symName: _gguf_set_arr_str, symObjAddr: 0x71C8, symBinAddr: 0xA27F4, symSize: 0x324 }
  - { offset: 0x24BF01, size: 0x8, addend: 0x0, symName: __ZNSt3__19allocatorI7gguf_kvE9constructB8ne200100IS1_JRPKcRNS_6vectorINS_12basic_stringIcNS_11char_traitsIcEENS0_IcEEEENS0_ISC_EEEEEEEvPT_DpOT0_, symObjAddr: 0x111D8, symBinAddr: 0xAC194, symSize: 0x100 }
  - { offset: 0x24C48E, size: 0x8, addend: 0x0, symName: __ZNSt3__16vectorI7gguf_kvNS_9allocatorIS1_EEE24__emplace_back_slow_pathIJRPKcRNS0_INS_12basic_stringIcNS_11char_traitsIcEENS2_IcEEEENS2_ISD_EEEEEEEPS1_DpOT_, symObjAddr: 0x110A0, symBinAddr: 0xAC05C, symSize: 0x138 }
  - { offset: 0x24C889, size: 0x8, addend: 0x0, symName: __ZNSt3__16vectorI7gguf_kvNS_9allocatorIS1_EEE24__emplace_back_slow_pathIJRKNS_12basic_stringIcNS_11char_traitsIcEENS2_IcEEEERNS0_ISA_NS2_ISA_EEEEEEEPS1_DpOT_, symObjAddr: 0xDA58, symBinAddr: 0xA8C68, symSize: 0x138 }
  - { offset: 0x24CC4E, size: 0x8, addend: 0x0, symName: _gguf_set_kv, symObjAddr: 0x755C, symBinAddr: 0xA2B18, symSize: 0x970 }
  - { offset: 0x24E858, size: 0x8, addend: 0x0, symName: __ZNSt3__16vectorIPKcNS_9allocatorIS2_EEE20__throw_length_errorB8ne200100Ev, symObjAddr: 0x112D8, symBinAddr: 0xAC294, symSize: 0x14 }
  - { offset: 0x24E870, size: 0x8, addend: 0x0, symName: __ZN7gguf_kvC2IhEERKNSt3__112basic_stringIcNS1_11char_traitsIcEENS1_9allocatorIcEEEERKNS1_6vectorIT_NS5_ISB_EEEE.cold.1, symObjAddr: 0x112EC, symBinAddr: 0x13788C, symSize: 0x10 }
  - { offset: 0x24E8E2, size: 0x8, addend: 0x0, symName: _gguf_add_tensor, symObjAddr: 0x7ECC, symBinAddr: 0xA3488, symSize: 0x164 }
  - { offset: 0x24EA6E, size: 0x8, addend: 0x0, symName: _gguf_set_tensor_type, symObjAddr: 0x8030, symBinAddr: 0xA35EC, symSize: 0x190 }
  - { offset: 0x24EC96, size: 0x8, addend: 0x0, symName: _gguf_set_tensor_data, symObjAddr: 0x81C0, symBinAddr: 0xA377C, symSize: 0xA0 }
  - { offset: 0x24ECAA, size: 0x8, addend: 0x0, symName: _gguf_set_tensor_data, symObjAddr: 0x81C0, symBinAddr: 0xA377C, symSize: 0xA0 }
  - { offset: 0x24F38F, size: 0x8, addend: 0x0, symName: __Z17gguf_write_to_bufPK12gguf_contextRNSt3__16vectorIaNS2_9allocatorIaEEEEb, symObjAddr: 0x8260, symBinAddr: 0xA381C, symSize: 0x604 }
  - { offset: 0x2514A2, size: 0x8, addend: 0x0, symName: __ZNK11gguf_writer5writeIjEEvRKT_, symObjAddr: 0x8864, symBinAddr: 0xA3E20, symSize: 0x2AC }
  - { offset: 0x2514AD, size: 0x8, addend: 0x0, symName: __ZNK11gguf_writer5writeIjEEvRKT_, symObjAddr: 0x8864, symBinAddr: 0xA3E20, symSize: 0x2AC }
  - { offset: 0x2518DB, size: 0x8, addend: 0x0, symName: __ZNK11gguf_writer5writeERK7gguf_kv, symObjAddr: 0x8B10, symBinAddr: 0xA40CC, symSize: 0x330 }
  - { offset: 0x2518EF, size: 0x8, addend: 0x0, symName: __ZNK11gguf_writer5writeERK7gguf_kv, symObjAddr: 0x8B10, symBinAddr: 0xA40CC, symSize: 0x330 }
  - { offset: 0x25252F, size: 0x8, addend: 0x0, symName: __ZNK11gguf_writer17write_tensor_metaERK16gguf_tensor_info, symObjAddr: 0x8E40, symBinAddr: 0xA43FC, symSize: 0x220 }
  - { offset: 0x252543, size: 0x8, addend: 0x0, symName: __ZNK11gguf_writer17write_tensor_metaERK16gguf_tensor_info, symObjAddr: 0x8E40, symBinAddr: 0xA43FC, symSize: 0x220 }
  - { offset: 0x252F33, size: 0x8, addend: 0x0, symName: __ZNK11gguf_writer17write_tensor_dataERK16gguf_tensor_infomm, symObjAddr: 0x9060, symBinAddr: 0xA461C, symSize: 0x2D8 }
  - { offset: 0x252F3E, size: 0x8, addend: 0x0, symName: __ZNK11gguf_writer17write_tensor_dataERK16gguf_tensor_infomm, symObjAddr: 0x9060, symBinAddr: 0xA461C, symSize: 0x2D8 }
  - { offset: 0x253A25, size: 0x8, addend: 0x0, symName: _gguf_write_to_file, symObjAddr: 0x9338, symBinAddr: 0xA48F4, symSize: 0xFC }
  - { offset: 0x253B62, size: 0x8, addend: 0x0, symName: __ZNK11gguf_writer5writeERKNSt3__112basic_stringIcNS0_11char_traitsIcEENS0_9allocatorIcEEEE, symObjAddr: 0x95CC, symBinAddr: 0xA4B88, symSize: 0x1F8 }
  - { offset: 0x254609, size: 0x8, addend: 0x0, symName: __ZNSt3__16vectorIaNS_9allocatorIaEEE20__throw_length_errorB8ne200100Ev, symObjAddr: 0x97C4, symBinAddr: 0xA4D80, symSize: 0x14 }
  - { offset: 0x254614, size: 0x8, addend: 0x0, symName: __ZNK11gguf_writer5writeIiEEvRKT_, symObjAddr: 0x9874, symBinAddr: 0xA4D94, symSize: 0x2AC }
  - { offset: 0x254A42, size: 0x8, addend: 0x0, symName: __ZNSt3__16vectorIaNS_9allocatorIaEEE18__insert_with_sizeB8ne200100INS_11__wrap_iterIPKaEES8_EENS5_IPaEES8_T_T0_l, symObjAddr: 0x9B20, symBinAddr: 0xA5040, symSize: 0x3D4 }
  - { offset: 0x254A56, size: 0x8, addend: 0x0, symName: __ZNSt3__16vectorIaNS_9allocatorIaEEE18__insert_with_sizeB8ne200100INS_11__wrap_iterIPKaEES8_EENS5_IPaEES8_T_T0_l, symObjAddr: 0x9B20, symBinAddr: 0xA5040, symSize: 0x3D4 }
  - { offset: 0x255677, size: 0x8, addend: 0x0, symName: __ZNK11gguf_writer5writeEPKc, symObjAddr: 0x9EF4, symBinAddr: 0xA5414, symSize: 0xF8 }
  - { offset: 0x2556B6, size: 0x8, addend: 0x0, symName: __ZNK11gguf_writer5writeEPKc, symObjAddr: 0x9EF4, symBinAddr: 0xA5414, symSize: 0xF8 }
  - { offset: 0x255DCD, size: 0x8, addend: 0x0, symName: _gguf_write_to_file, symObjAddr: 0x9338, symBinAddr: 0xA48F4, symSize: 0xFC }
  - { offset: 0x256203, size: 0x8, addend: 0x0, symName: _gguf_get_meta_size, symObjAddr: 0x9434, symBinAddr: 0xA49F0, symSize: 0x68 }
  - { offset: 0x25652A, size: 0x8, addend: 0x0, symName: _gguf_get_meta_data, symObjAddr: 0x949C, symBinAddr: 0xA4A58, symSize: 0x78 }
  - { offset: 0x256EF6, size: 0x8, addend: 0x0, symName: __ZNSt3__13mapI9gguf_typemNS_4lessIS1_EENS_9allocatorINS_4pairIKS1_mEEEEEC2B8ne200100ESt16initializer_listIS7_ERKS3_, symObjAddr: 0x9FEC, symBinAddr: 0xA550C, symSize: 0xEC }
  - { offset: 0x2572BC, size: 0x8, addend: 0x0, symName: __ZNSt3__16__treeINS_12__value_typeI9gguf_typemEENS_19__map_value_compareIS2_S3_NS_4lessIS2_EELb1EEENS_9allocatorIS3_EEE12__find_equalIS2_EERPNS_16__tree_node_baseIPvEENS_21__tree_const_iteratorIS3_PNS_11__tree_nodeIS3_SD_EElEERPNS_15__tree_end_nodeISF_EESG_RKT_, symObjAddr: 0xA0D8, symBinAddr: 0xA55F8, symSize: 0x1B0 }
  - { offset: 0x257324, size: 0x8, addend: 0x0, symName: __ZNSt3__16__treeINS_12__value_typeI9gguf_typemEENS_19__map_value_compareIS2_S3_NS_4lessIS2_EELb1EEENS_9allocatorIS3_EEE12__find_equalIS2_EERPNS_16__tree_node_baseIPvEENS_21__tree_const_iteratorIS3_PNS_11__tree_nodeIS3_SD_EElEERPNS_15__tree_end_nodeISF_EESG_RKT_, symObjAddr: 0xA0D8, symBinAddr: 0xA55F8, symSize: 0x1B0 }
  - { offset: 0x257342, size: 0x8, addend: 0x0, symName: __ZNSt3__16__treeINS_12__value_typeI9gguf_typemEENS_19__map_value_compareIS2_S3_NS_4lessIS2_EELb1EEENS_9allocatorIS3_EEE12__find_equalIS2_EERPNS_16__tree_node_baseIPvEENS_21__tree_const_iteratorIS3_PNS_11__tree_nodeIS3_SD_EElEERPNS_15__tree_end_nodeISF_EESG_RKT_, symObjAddr: 0xA0D8, symBinAddr: 0xA55F8, symSize: 0x1B0 }
  - { offset: 0x257AFC, size: 0x8, addend: 0x0, symName: __ZNSt3__13mapI9gguf_typePKcNS_4lessIS1_EENS_9allocatorINS_4pairIKS1_S3_EEEEEC2B8ne200100ESt16initializer_listIS9_ERKS5_, symObjAddr: 0xA478, symBinAddr: 0xA57EC, symSize: 0xEC }
  - { offset: 0x257EC2, size: 0x8, addend: 0x0, symName: __ZNSt3__16__treeINS_12__value_typeI9gguf_typePKcEENS_19__map_value_compareIS2_S5_NS_4lessIS2_EELb1EEENS_9allocatorIS5_EEE12__find_equalIS2_EERPNS_16__tree_node_baseIPvEENS_21__tree_const_iteratorIS5_PNS_11__tree_nodeIS5_SF_EElEERPNS_15__tree_end_nodeISH_EESI_RKT_, symObjAddr: 0xA564, symBinAddr: 0xA58D8, symSize: 0x1B0 }
  - { offset: 0x257F2A, size: 0x8, addend: 0x0, symName: __ZNSt3__16__treeINS_12__value_typeI9gguf_typePKcEENS_19__map_value_compareIS2_S5_NS_4lessIS2_EELb1EEENS_9allocatorIS5_EEE12__find_equalIS2_EERPNS_16__tree_node_baseIPvEENS_21__tree_const_iteratorIS5_PNS_11__tree_nodeIS5_SF_EElEERPNS_15__tree_end_nodeISH_EESI_RKT_, symObjAddr: 0xA564, symBinAddr: 0xA58D8, symSize: 0x1B0 }
  - { offset: 0x257F48, size: 0x8, addend: 0x0, symName: __ZNSt3__16__treeINS_12__value_typeI9gguf_typePKcEENS_19__map_value_compareIS2_S5_NS_4lessIS2_EELb1EEENS_9allocatorIS5_EEE12__find_equalIS2_EERPNS_16__tree_node_baseIPvEENS_21__tree_const_iteratorIS5_PNS_11__tree_nodeIS5_SF_EElEERPNS_15__tree_end_nodeISH_EESI_RKT_, symObjAddr: 0xA564, symBinAddr: 0xA58D8, symSize: 0x1B0 }
  - { offset: 0x258834, size: 0x8, addend: 0x0, symName: __ZNSt3__16vectorI7gguf_kvNS_9allocatorIS1_EEE24__emplace_back_slow_pathIJRKNS_12basic_stringIcNS_11char_traitsIcEENS2_IcEEEERNS0_IhNS2_IhEEEEEEEPS1_DpOT_, symObjAddr: 0xA8C4, symBinAddr: 0xA5C24, symSize: 0x138 }
  - { offset: 0x2589B2, size: 0x8, addend: 0x0, symName: __ZNSt3__16vectorI7gguf_kvNS_9allocatorIS1_EEE20__throw_length_errorB8ne200100Ev, symObjAddr: 0xAC20, symBinAddr: 0xA5EE4, symSize: 0x14 }
  - { offset: 0x2589CA, size: 0x8, addend: 0x0, symName: __ZNSt3__134__uninitialized_allocator_relocateB8ne200100INS_9allocatorI7gguf_kvEEPS2_EEvRT_T0_S7_S7_, symObjAddr: 0xAC34, symBinAddr: 0xA5EF8, symSize: 0x11C }
  - { offset: 0x2589D5, size: 0x8, addend: 0x0, symName: __ZNSt3__114__split_bufferI7gguf_kvRNS_9allocatorIS1_EEED1Ev, symObjAddr: 0xABF0, symBinAddr: 0xA5EB4, symSize: 0x30 }
  - { offset: 0x258C42, size: 0x8, addend: 0x0, symName: __ZN7gguf_kvC2IhEERKNSt3__112basic_stringIcNS1_11char_traitsIcEENS1_9allocatorIcEEEERKNS1_6vectorIT_NS5_ISB_EEEE.cold.1, symObjAddr: 0x112EC, symBinAddr: 0x13788C, symSize: 0x10 }
  - { offset: 0x258C5E, size: 0x8, addend: 0x0, symName: __ZN7gguf_kvC2IhEERKNSt3__112basic_stringIcNS1_11char_traitsIcEENS1_9allocatorIcEEEERKNS1_6vectorIT_NS5_ISB_EEEE.cold.1, symObjAddr: 0x112EC, symBinAddr: 0x13788C, symSize: 0x10 }
  - { offset: 0x258C73, size: 0x8, addend: 0x0, symName: __ZN7gguf_kvC2IhEERKNSt3__112basic_stringIcNS1_11char_traitsIcEENS1_9allocatorIcEEEERKNS1_6vectorIT_NS5_ISB_EEEE.cold.1, symObjAddr: 0x112EC, symBinAddr: 0x13788C, symSize: 0x10 }
  - { offset: 0x258C89, size: 0x8, addend: 0x0, symName: __ZN7gguf_kvC2IhEERKNSt3__112basic_stringIcNS1_11char_traitsIcEENS1_9allocatorIcEEEERKNS1_6vectorIT_NS5_ISB_EEEE.cold.1, symObjAddr: 0x112EC, symBinAddr: 0x13788C, symSize: 0x10 }
  - { offset: 0x258C9E, size: 0x8, addend: 0x0, symName: __ZNSt3__114__split_bufferI7gguf_kvRNS_9allocatorIS1_EEE5clearB8ne200100Ev, symObjAddr: 0xAD50, symBinAddr: 0xA6014, symSize: 0xBC }
  - { offset: 0x25945B, size: 0x8, addend: 0x0, symName: __ZN7gguf_kvC2IhEERKNSt3__112basic_stringIcNS1_11char_traitsIcEENS1_9allocatorIcEEEET_.cold.1, symObjAddr: 0x112FC, symBinAddr: 0x13789C, symSize: 0x10 }
  - { offset: 0x259477, size: 0x8, addend: 0x0, symName: __ZN7gguf_kvC2IhEERKNSt3__112basic_stringIcNS1_11char_traitsIcEENS1_9allocatorIcEEEET_.cold.1, symObjAddr: 0x112FC, symBinAddr: 0x13789C, symSize: 0x10 }
  - { offset: 0x25948C, size: 0x8, addend: 0x0, symName: __ZN7gguf_kvC2IhEERKNSt3__112basic_stringIcNS1_11char_traitsIcEENS1_9allocatorIcEEEET_.cold.1, symObjAddr: 0x112FC, symBinAddr: 0x13789C, symSize: 0x10 }
  - { offset: 0x2594A2, size: 0x8, addend: 0x0, symName: __ZN7gguf_kvC2IhEERKNSt3__112basic_stringIcNS1_11char_traitsIcEENS1_9allocatorIcEEEET_.cold.1, symObjAddr: 0x112FC, symBinAddr: 0x13789C, symSize: 0x10 }
  - { offset: 0x2594D9, size: 0x8, addend: 0x0, symName: __ZN7gguf_kvC2IaEERKNSt3__112basic_stringIcNS1_11char_traitsIcEENS1_9allocatorIcEEEERKNS1_6vectorIT_NS5_ISB_EEEE.cold.1, symObjAddr: 0x1130C, symBinAddr: 0x1378AC, symSize: 0x10 }
  - { offset: 0x2594F5, size: 0x8, addend: 0x0, symName: __ZN7gguf_kvC2IaEERKNSt3__112basic_stringIcNS1_11char_traitsIcEENS1_9allocatorIcEEEERKNS1_6vectorIT_NS5_ISB_EEEE.cold.1, symObjAddr: 0x1130C, symBinAddr: 0x1378AC, symSize: 0x10 }
  - { offset: 0x25950A, size: 0x8, addend: 0x0, symName: __ZN7gguf_kvC2IaEERKNSt3__112basic_stringIcNS1_11char_traitsIcEENS1_9allocatorIcEEEERKNS1_6vectorIT_NS5_ISB_EEEE.cold.1, symObjAddr: 0x1130C, symBinAddr: 0x1378AC, symSize: 0x10 }
  - { offset: 0x259520, size: 0x8, addend: 0x0, symName: __ZN7gguf_kvC2IaEERKNSt3__112basic_stringIcNS1_11char_traitsIcEENS1_9allocatorIcEEEERKNS1_6vectorIT_NS5_ISB_EEEE.cold.1, symObjAddr: 0x1130C, symBinAddr: 0x1378AC, symSize: 0x10 }
  - { offset: 0x259535, size: 0x8, addend: 0x0, symName: __ZN7gguf_kvC2IaEERKNSt3__112basic_stringIcNS1_11char_traitsIcEENS1_9allocatorIcEEEET_.cold.1, symObjAddr: 0x1131C, symBinAddr: 0x1378BC, symSize: 0x10 }
  - { offset: 0x259551, size: 0x8, addend: 0x0, symName: __ZN7gguf_kvC2IaEERKNSt3__112basic_stringIcNS1_11char_traitsIcEENS1_9allocatorIcEEEET_.cold.1, symObjAddr: 0x1131C, symBinAddr: 0x1378BC, symSize: 0x10 }
  - { offset: 0x259566, size: 0x8, addend: 0x0, symName: __ZN7gguf_kvC2IaEERKNSt3__112basic_stringIcNS1_11char_traitsIcEENS1_9allocatorIcEEEET_.cold.1, symObjAddr: 0x1131C, symBinAddr: 0x1378BC, symSize: 0x10 }
  - { offset: 0x25957C, size: 0x8, addend: 0x0, symName: __ZN7gguf_kvC2IaEERKNSt3__112basic_stringIcNS1_11char_traitsIcEENS1_9allocatorIcEEEET_.cold.1, symObjAddr: 0x1131C, symBinAddr: 0x1378BC, symSize: 0x10 }
  - { offset: 0x2595A7, size: 0x8, addend: 0x0, symName: __ZN7gguf_kvC2ItEERKNSt3__112basic_stringIcNS1_11char_traitsIcEENS1_9allocatorIcEEEERKNS1_6vectorIT_NS5_ISB_EEEE.cold.1, symObjAddr: 0x1132C, symBinAddr: 0x1378CC, symSize: 0x10 }
  - { offset: 0x2595C3, size: 0x8, addend: 0x0, symName: __ZN7gguf_kvC2ItEERKNSt3__112basic_stringIcNS1_11char_traitsIcEENS1_9allocatorIcEEEERKNS1_6vectorIT_NS5_ISB_EEEE.cold.1, symObjAddr: 0x1132C, symBinAddr: 0x1378CC, symSize: 0x10 }
  - { offset: 0x2595D8, size: 0x8, addend: 0x0, symName: __ZN7gguf_kvC2ItEERKNSt3__112basic_stringIcNS1_11char_traitsIcEENS1_9allocatorIcEEEERKNS1_6vectorIT_NS5_ISB_EEEE.cold.1, symObjAddr: 0x1132C, symBinAddr: 0x1378CC, symSize: 0x10 }
  - { offset: 0x2595EE, size: 0x8, addend: 0x0, symName: __ZN7gguf_kvC2ItEERKNSt3__112basic_stringIcNS1_11char_traitsIcEENS1_9allocatorIcEEEERKNS1_6vectorIT_NS5_ISB_EEEE.cold.1, symObjAddr: 0x1132C, symBinAddr: 0x1378CC, symSize: 0x10 }
  - { offset: 0x259603, size: 0x8, addend: 0x0, symName: __ZN7gguf_kvC2ItEERKNSt3__112basic_stringIcNS1_11char_traitsIcEENS1_9allocatorIcEEEET_.cold.1, symObjAddr: 0x1133C, symBinAddr: 0x1378DC, symSize: 0x10 }
  - { offset: 0x25961F, size: 0x8, addend: 0x0, symName: __ZN7gguf_kvC2ItEERKNSt3__112basic_stringIcNS1_11char_traitsIcEENS1_9allocatorIcEEEET_.cold.1, symObjAddr: 0x1133C, symBinAddr: 0x1378DC, symSize: 0x10 }
  - { offset: 0x259634, size: 0x8, addend: 0x0, symName: __ZN7gguf_kvC2ItEERKNSt3__112basic_stringIcNS1_11char_traitsIcEENS1_9allocatorIcEEEET_.cold.1, symObjAddr: 0x1133C, symBinAddr: 0x1378DC, symSize: 0x10 }
  - { offset: 0x25964A, size: 0x8, addend: 0x0, symName: __ZN7gguf_kvC2ItEERKNSt3__112basic_stringIcNS1_11char_traitsIcEENS1_9allocatorIcEEEET_.cold.1, symObjAddr: 0x1133C, symBinAddr: 0x1378DC, symSize: 0x10 }
  - { offset: 0x259675, size: 0x8, addend: 0x0, symName: __ZN7gguf_kvC2IsEERKNSt3__112basic_stringIcNS1_11char_traitsIcEENS1_9allocatorIcEEEERKNS1_6vectorIT_NS5_ISB_EEEE.cold.1, symObjAddr: 0x1134C, symBinAddr: 0x1378EC, symSize: 0x10 }
  - { offset: 0x259691, size: 0x8, addend: 0x0, symName: __ZN7gguf_kvC2IsEERKNSt3__112basic_stringIcNS1_11char_traitsIcEENS1_9allocatorIcEEEERKNS1_6vectorIT_NS5_ISB_EEEE.cold.1, symObjAddr: 0x1134C, symBinAddr: 0x1378EC, symSize: 0x10 }
  - { offset: 0x2596A6, size: 0x8, addend: 0x0, symName: __ZN7gguf_kvC2IsEERKNSt3__112basic_stringIcNS1_11char_traitsIcEENS1_9allocatorIcEEEERKNS1_6vectorIT_NS5_ISB_EEEE.cold.1, symObjAddr: 0x1134C, symBinAddr: 0x1378EC, symSize: 0x10 }
  - { offset: 0x2596BC, size: 0x8, addend: 0x0, symName: __ZN7gguf_kvC2IsEERKNSt3__112basic_stringIcNS1_11char_traitsIcEENS1_9allocatorIcEEEERKNS1_6vectorIT_NS5_ISB_EEEE.cold.1, symObjAddr: 0x1134C, symBinAddr: 0x1378EC, symSize: 0x10 }
  - { offset: 0x2596D1, size: 0x8, addend: 0x0, symName: __ZN7gguf_kvC2IsEERKNSt3__112basic_stringIcNS1_11char_traitsIcEENS1_9allocatorIcEEEET_.cold.1, symObjAddr: 0x1135C, symBinAddr: 0x1378FC, symSize: 0x10 }
  - { offset: 0x2596ED, size: 0x8, addend: 0x0, symName: __ZN7gguf_kvC2IsEERKNSt3__112basic_stringIcNS1_11char_traitsIcEENS1_9allocatorIcEEEET_.cold.1, symObjAddr: 0x1135C, symBinAddr: 0x1378FC, symSize: 0x10 }
  - { offset: 0x259702, size: 0x8, addend: 0x0, symName: __ZN7gguf_kvC2IsEERKNSt3__112basic_stringIcNS1_11char_traitsIcEENS1_9allocatorIcEEEET_.cold.1, symObjAddr: 0x1135C, symBinAddr: 0x1378FC, symSize: 0x10 }
  - { offset: 0x259718, size: 0x8, addend: 0x0, symName: __ZN7gguf_kvC2IsEERKNSt3__112basic_stringIcNS1_11char_traitsIcEENS1_9allocatorIcEEEET_.cold.1, symObjAddr: 0x1135C, symBinAddr: 0x1378FC, symSize: 0x10 }
  - { offset: 0x259743, size: 0x8, addend: 0x0, symName: __ZN7gguf_kvC2IjEERKNSt3__112basic_stringIcNS1_11char_traitsIcEENS1_9allocatorIcEEEERKNS1_6vectorIT_NS5_ISB_EEEE.cold.1, symObjAddr: 0x1136C, symBinAddr: 0x13790C, symSize: 0x10 }
  - { offset: 0x25975F, size: 0x8, addend: 0x0, symName: __ZN7gguf_kvC2IjEERKNSt3__112basic_stringIcNS1_11char_traitsIcEENS1_9allocatorIcEEEERKNS1_6vectorIT_NS5_ISB_EEEE.cold.1, symObjAddr: 0x1136C, symBinAddr: 0x13790C, symSize: 0x10 }
  - { offset: 0x259774, size: 0x8, addend: 0x0, symName: __ZN7gguf_kvC2IjEERKNSt3__112basic_stringIcNS1_11char_traitsIcEENS1_9allocatorIcEEEERKNS1_6vectorIT_NS5_ISB_EEEE.cold.1, symObjAddr: 0x1136C, symBinAddr: 0x13790C, symSize: 0x10 }
  - { offset: 0x25978A, size: 0x8, addend: 0x0, symName: __ZN7gguf_kvC2IjEERKNSt3__112basic_stringIcNS1_11char_traitsIcEENS1_9allocatorIcEEEERKNS1_6vectorIT_NS5_ISB_EEEE.cold.1, symObjAddr: 0x1136C, symBinAddr: 0x13790C, symSize: 0x10 }
  - { offset: 0x25979F, size: 0x8, addend: 0x0, symName: __ZN7gguf_kvC2IjEERKNSt3__112basic_stringIcNS1_11char_traitsIcEENS1_9allocatorIcEEEET_.cold.1, symObjAddr: 0x1137C, symBinAddr: 0x13791C, symSize: 0x10 }
  - { offset: 0x2597BB, size: 0x8, addend: 0x0, symName: __ZN7gguf_kvC2IjEERKNSt3__112basic_stringIcNS1_11char_traitsIcEENS1_9allocatorIcEEEET_.cold.1, symObjAddr: 0x1137C, symBinAddr: 0x13791C, symSize: 0x10 }
  - { offset: 0x2597D0, size: 0x8, addend: 0x0, symName: __ZN7gguf_kvC2IjEERKNSt3__112basic_stringIcNS1_11char_traitsIcEENS1_9allocatorIcEEEET_.cold.1, symObjAddr: 0x1137C, symBinAddr: 0x13791C, symSize: 0x10 }
  - { offset: 0x2597E6, size: 0x8, addend: 0x0, symName: __ZN7gguf_kvC2IjEERKNSt3__112basic_stringIcNS1_11char_traitsIcEENS1_9allocatorIcEEEET_.cold.1, symObjAddr: 0x1137C, symBinAddr: 0x13791C, symSize: 0x10 }
  - { offset: 0x259811, size: 0x8, addend: 0x0, symName: __ZN7gguf_kvC2IiEERKNSt3__112basic_stringIcNS1_11char_traitsIcEENS1_9allocatorIcEEEERKNS1_6vectorIT_NS5_ISB_EEEE.cold.1, symObjAddr: 0x1138C, symBinAddr: 0x13792C, symSize: 0x10 }
  - { offset: 0x25982D, size: 0x8, addend: 0x0, symName: __ZN7gguf_kvC2IiEERKNSt3__112basic_stringIcNS1_11char_traitsIcEENS1_9allocatorIcEEEERKNS1_6vectorIT_NS5_ISB_EEEE.cold.1, symObjAddr: 0x1138C, symBinAddr: 0x13792C, symSize: 0x10 }
  - { offset: 0x259842, size: 0x8, addend: 0x0, symName: __ZN7gguf_kvC2IiEERKNSt3__112basic_stringIcNS1_11char_traitsIcEENS1_9allocatorIcEEEERKNS1_6vectorIT_NS5_ISB_EEEE.cold.1, symObjAddr: 0x1138C, symBinAddr: 0x13792C, symSize: 0x10 }
  - { offset: 0x259858, size: 0x8, addend: 0x0, symName: __ZN7gguf_kvC2IiEERKNSt3__112basic_stringIcNS1_11char_traitsIcEENS1_9allocatorIcEEEERKNS1_6vectorIT_NS5_ISB_EEEE.cold.1, symObjAddr: 0x1138C, symBinAddr: 0x13792C, symSize: 0x10 }
  - { offset: 0x25986D, size: 0x8, addend: 0x0, symName: __ZN7gguf_kvC2IiEERKNSt3__112basic_stringIcNS1_11char_traitsIcEENS1_9allocatorIcEEEET_.cold.1, symObjAddr: 0x1139C, symBinAddr: 0x13793C, symSize: 0x10 }
  - { offset: 0x259889, size: 0x8, addend: 0x0, symName: __ZN7gguf_kvC2IiEERKNSt3__112basic_stringIcNS1_11char_traitsIcEENS1_9allocatorIcEEEET_.cold.1, symObjAddr: 0x1139C, symBinAddr: 0x13793C, symSize: 0x10 }
  - { offset: 0x25989E, size: 0x8, addend: 0x0, symName: __ZN7gguf_kvC2IiEERKNSt3__112basic_stringIcNS1_11char_traitsIcEENS1_9allocatorIcEEEET_.cold.1, symObjAddr: 0x1139C, symBinAddr: 0x13793C, symSize: 0x10 }
  - { offset: 0x2598B4, size: 0x8, addend: 0x0, symName: __ZN7gguf_kvC2IiEERKNSt3__112basic_stringIcNS1_11char_traitsIcEENS1_9allocatorIcEEEET_.cold.1, symObjAddr: 0x1139C, symBinAddr: 0x13793C, symSize: 0x10 }
  - { offset: 0x2598DF, size: 0x8, addend: 0x0, symName: __ZN7gguf_kvC2IfEERKNSt3__112basic_stringIcNS1_11char_traitsIcEENS1_9allocatorIcEEEERKNS1_6vectorIT_NS5_ISB_EEEE.cold.1, symObjAddr: 0x113AC, symBinAddr: 0x13794C, symSize: 0x10 }
  - { offset: 0x2598FB, size: 0x8, addend: 0x0, symName: __ZN7gguf_kvC2IfEERKNSt3__112basic_stringIcNS1_11char_traitsIcEENS1_9allocatorIcEEEERKNS1_6vectorIT_NS5_ISB_EEEE.cold.1, symObjAddr: 0x113AC, symBinAddr: 0x13794C, symSize: 0x10 }
  - { offset: 0x259910, size: 0x8, addend: 0x0, symName: __ZN7gguf_kvC2IfEERKNSt3__112basic_stringIcNS1_11char_traitsIcEENS1_9allocatorIcEEEERKNS1_6vectorIT_NS5_ISB_EEEE.cold.1, symObjAddr: 0x113AC, symBinAddr: 0x13794C, symSize: 0x10 }
  - { offset: 0x259926, size: 0x8, addend: 0x0, symName: __ZN7gguf_kvC2IfEERKNSt3__112basic_stringIcNS1_11char_traitsIcEENS1_9allocatorIcEEEERKNS1_6vectorIT_NS5_ISB_EEEE.cold.1, symObjAddr: 0x113AC, symBinAddr: 0x13794C, symSize: 0x10 }
  - { offset: 0x25993B, size: 0x8, addend: 0x0, symName: __ZN7gguf_kvC2IfEERKNSt3__112basic_stringIcNS1_11char_traitsIcEENS1_9allocatorIcEEEET_.cold.1, symObjAddr: 0x113BC, symBinAddr: 0x13795C, symSize: 0x10 }
  - { offset: 0x259957, size: 0x8, addend: 0x0, symName: __ZN7gguf_kvC2IfEERKNSt3__112basic_stringIcNS1_11char_traitsIcEENS1_9allocatorIcEEEET_.cold.1, symObjAddr: 0x113BC, symBinAddr: 0x13795C, symSize: 0x10 }
  - { offset: 0x25996C, size: 0x8, addend: 0x0, symName: __ZN7gguf_kvC2IfEERKNSt3__112basic_stringIcNS1_11char_traitsIcEENS1_9allocatorIcEEEET_.cold.1, symObjAddr: 0x113BC, symBinAddr: 0x13795C, symSize: 0x10 }
  - { offset: 0x259982, size: 0x8, addend: 0x0, symName: __ZN7gguf_kvC2IfEERKNSt3__112basic_stringIcNS1_11char_traitsIcEENS1_9allocatorIcEEEET_.cold.1, symObjAddr: 0x113BC, symBinAddr: 0x13795C, symSize: 0x10 }
  - { offset: 0x259B41, size: 0x8, addend: 0x0, symName: __ZNSt3__16vectorIbNS_9allocatorIbEEE7reserveEm, symObjAddr: 0xD0FC, symBinAddr: 0xA8384, symSize: 0x108 }
  - { offset: 0x259F7F, size: 0x8, addend: 0x0, symName: __ZNSt3__16vectorIbNS_9allocatorIbEEE20__throw_length_errorB8ne200100Ev, symObjAddr: 0xD204, symBinAddr: 0xA848C, symSize: 0x14 }
  - { offset: 0x259F8A, size: 0x8, addend: 0x0, symName: __ZNSt3__16vectorIbNS_9allocatorIbEEE20__throw_length_errorB8ne200100Ev, symObjAddr: 0xD204, symBinAddr: 0xA848C, symSize: 0x14 }
  - { offset: 0x259FA2, size: 0x8, addend: 0x0, symName: __ZNSt3__16vectorI7gguf_kvNS_9allocatorIS1_EEE24__emplace_back_slow_pathIJRKNS_12basic_stringIcNS_11char_traitsIcEENS2_IcEEEERNS0_IbNS2_IbEEEEEEEPS1_DpOT_, symObjAddr: 0xD218, symBinAddr: 0xA84A0, symSize: 0x138 }
  - { offset: 0x25A1B3, size: 0x8, addend: 0x0, symName: __ZN7gguf_kvC2IbEERKNSt3__112basic_stringIcNS1_11char_traitsIcEENS1_9allocatorIcEEEERKNS1_6vectorIT_NS5_ISB_EEEE.cold.1, symObjAddr: 0x113CC, symBinAddr: 0x13796C, symSize: 0x10 }
  - { offset: 0x25A1CF, size: 0x8, addend: 0x0, symName: __ZN7gguf_kvC2IbEERKNSt3__112basic_stringIcNS1_11char_traitsIcEENS1_9allocatorIcEEEERKNS1_6vectorIT_NS5_ISB_EEEE.cold.1, symObjAddr: 0x113CC, symBinAddr: 0x13796C, symSize: 0x10 }
  - { offset: 0x25A1E4, size: 0x8, addend: 0x0, symName: __ZN7gguf_kvC2IbEERKNSt3__112basic_stringIcNS1_11char_traitsIcEENS1_9allocatorIcEEEERKNS1_6vectorIT_NS5_ISB_EEEE.cold.1, symObjAddr: 0x113CC, symBinAddr: 0x13796C, symSize: 0x10 }
  - { offset: 0x25A1FA, size: 0x8, addend: 0x0, symName: __ZN7gguf_kvC2IbEERKNSt3__112basic_stringIcNS1_11char_traitsIcEENS1_9allocatorIcEEEERKNS1_6vectorIT_NS5_ISB_EEEE.cold.1, symObjAddr: 0x113CC, symBinAddr: 0x13796C, symSize: 0x10 }
  - { offset: 0x25A20F, size: 0x8, addend: 0x0, symName: __ZN7gguf_kvC2IbEERKNSt3__112basic_stringIcNS1_11char_traitsIcEENS1_9allocatorIcEEEET_.cold.1, symObjAddr: 0x113DC, symBinAddr: 0x13797C, symSize: 0x10 }
  - { offset: 0x25A22B, size: 0x8, addend: 0x0, symName: __ZN7gguf_kvC2IbEERKNSt3__112basic_stringIcNS1_11char_traitsIcEENS1_9allocatorIcEEEET_.cold.1, symObjAddr: 0x113DC, symBinAddr: 0x13797C, symSize: 0x10 }
  - { offset: 0x25A240, size: 0x8, addend: 0x0, symName: __ZN7gguf_kvC2IbEERKNSt3__112basic_stringIcNS1_11char_traitsIcEENS1_9allocatorIcEEEET_.cold.1, symObjAddr: 0x113DC, symBinAddr: 0x13797C, symSize: 0x10 }
  - { offset: 0x25A256, size: 0x8, addend: 0x0, symName: __ZN7gguf_kvC2IbEERKNSt3__112basic_stringIcNS1_11char_traitsIcEENS1_9allocatorIcEEEET_.cold.1, symObjAddr: 0x113DC, symBinAddr: 0x13797C, symSize: 0x10 }
  - { offset: 0x25A2CB, size: 0x8, addend: 0x0, symName: __ZNSt3__16vectorINS_12basic_stringIcNS_11char_traitsIcEENS_9allocatorIcEEEENS4_IS6_EEE8__appendEm, symObjAddr: 0xD860, symBinAddr: 0xA8AE8, symSize: 0x180 }
  - { offset: 0x25AAEC, size: 0x8, addend: 0x0, symName: __ZNSt3__16vectorINS_12basic_stringIcNS_11char_traitsIcEENS_9allocatorIcEEEENS4_IS6_EEE18__assign_with_sizeB8ne200100IPS6_SA_EEvT_T0_l, symObjAddr: 0xDCB0, symBinAddr: 0xA8EC0, symSize: 0x2EC }
  - { offset: 0x25B85A, size: 0x8, addend: 0x0, symName: __ZN7gguf_kvC2ERKNSt3__112basic_stringIcNS0_11char_traitsIcEENS0_9allocatorIcEEEERKNS0_6vectorIS6_NS4_IS6_EEEE.cold.1, symObjAddr: 0x113EC, symBinAddr: 0x13798C, symSize: 0x10 }
  - { offset: 0x25B876, size: 0x8, addend: 0x0, symName: __ZN7gguf_kvC2ERKNSt3__112basic_stringIcNS0_11char_traitsIcEENS0_9allocatorIcEEEERKNS0_6vectorIS6_NS4_IS6_EEEE.cold.1, symObjAddr: 0x113EC, symBinAddr: 0x13798C, symSize: 0x10 }
  - { offset: 0x25B88B, size: 0x8, addend: 0x0, symName: __ZN7gguf_kvC2ERKNSt3__112basic_stringIcNS0_11char_traitsIcEENS0_9allocatorIcEEEERKNS0_6vectorIS6_NS4_IS6_EEEE.cold.1, symObjAddr: 0x113EC, symBinAddr: 0x13798C, symSize: 0x10 }
  - { offset: 0x25B8A1, size: 0x8, addend: 0x0, symName: __ZN7gguf_kvC2ERKNSt3__112basic_stringIcNS0_11char_traitsIcEENS0_9allocatorIcEEEERKNS0_6vectorIS6_NS4_IS6_EEEE.cold.1, symObjAddr: 0x113EC, symBinAddr: 0x13798C, symSize: 0x10 }
  - { offset: 0x25BF6C, size: 0x8, addend: 0x0, symName: __ZN7gguf_kvC2ERKNSt3__112basic_stringIcNS0_11char_traitsIcEENS0_9allocatorIcEEEES8_.cold.1, symObjAddr: 0x113FC, symBinAddr: 0x13799C, symSize: 0x10 }
  - { offset: 0x25BF88, size: 0x8, addend: 0x0, symName: __ZN7gguf_kvC2ERKNSt3__112basic_stringIcNS0_11char_traitsIcEENS0_9allocatorIcEEEES8_.cold.1, symObjAddr: 0x113FC, symBinAddr: 0x13799C, symSize: 0x10 }
  - { offset: 0x25BF9D, size: 0x8, addend: 0x0, symName: __ZN7gguf_kvC2ERKNSt3__112basic_stringIcNS0_11char_traitsIcEENS0_9allocatorIcEEEES8_.cold.1, symObjAddr: 0x113FC, symBinAddr: 0x13799C, symSize: 0x10 }
  - { offset: 0x25BFB3, size: 0x8, addend: 0x0, symName: __ZN7gguf_kvC2ERKNSt3__112basic_stringIcNS0_11char_traitsIcEENS0_9allocatorIcEEEES8_.cold.1, symObjAddr: 0x113FC, symBinAddr: 0x13799C, symSize: 0x10 }
  - { offset: 0x25C064, size: 0x8, addend: 0x0, symName: __ZN7gguf_kvC2IyEERKNSt3__112basic_stringIcNS1_11char_traitsIcEENS1_9allocatorIcEEEERKNS1_6vectorIT_NS5_ISB_EEEE.cold.1, symObjAddr: 0x1140C, symBinAddr: 0x1379AC, symSize: 0x10 }
  - { offset: 0x25C080, size: 0x8, addend: 0x0, symName: __ZN7gguf_kvC2IyEERKNSt3__112basic_stringIcNS1_11char_traitsIcEENS1_9allocatorIcEEEERKNS1_6vectorIT_NS5_ISB_EEEE.cold.1, symObjAddr: 0x1140C, symBinAddr: 0x1379AC, symSize: 0x10 }
  - { offset: 0x25C095, size: 0x8, addend: 0x0, symName: __ZN7gguf_kvC2IyEERKNSt3__112basic_stringIcNS1_11char_traitsIcEENS1_9allocatorIcEEEERKNS1_6vectorIT_NS5_ISB_EEEE.cold.1, symObjAddr: 0x1140C, symBinAddr: 0x1379AC, symSize: 0x10 }
  - { offset: 0x25C0AB, size: 0x8, addend: 0x0, symName: __ZN7gguf_kvC2IyEERKNSt3__112basic_stringIcNS1_11char_traitsIcEENS1_9allocatorIcEEEERKNS1_6vectorIT_NS5_ISB_EEEE.cold.1, symObjAddr: 0x1140C, symBinAddr: 0x1379AC, symSize: 0x10 }
  - { offset: 0x25C0C0, size: 0x8, addend: 0x0, symName: __ZN7gguf_kvC2IyEERKNSt3__112basic_stringIcNS1_11char_traitsIcEENS1_9allocatorIcEEEET_.cold.1, symObjAddr: 0x1141C, symBinAddr: 0x1379BC, symSize: 0x10 }
  - { offset: 0x25C0DC, size: 0x8, addend: 0x0, symName: __ZN7gguf_kvC2IyEERKNSt3__112basic_stringIcNS1_11char_traitsIcEENS1_9allocatorIcEEEET_.cold.1, symObjAddr: 0x1141C, symBinAddr: 0x1379BC, symSize: 0x10 }
  - { offset: 0x25C0F1, size: 0x8, addend: 0x0, symName: __ZN7gguf_kvC2IyEERKNSt3__112basic_stringIcNS1_11char_traitsIcEENS1_9allocatorIcEEEET_.cold.1, symObjAddr: 0x1141C, symBinAddr: 0x1379BC, symSize: 0x10 }
  - { offset: 0x25C107, size: 0x8, addend: 0x0, symName: __ZN7gguf_kvC2IyEERKNSt3__112basic_stringIcNS1_11char_traitsIcEENS1_9allocatorIcEEEET_.cold.1, symObjAddr: 0x1141C, symBinAddr: 0x1379BC, symSize: 0x10 }
  - { offset: 0x25C132, size: 0x8, addend: 0x0, symName: __ZN7gguf_kvC2IxEERKNSt3__112basic_stringIcNS1_11char_traitsIcEENS1_9allocatorIcEEEERKNS1_6vectorIT_NS5_ISB_EEEE.cold.1, symObjAddr: 0x1142C, symBinAddr: 0x1379CC, symSize: 0x10 }
  - { offset: 0x25C14E, size: 0x8, addend: 0x0, symName: __ZN7gguf_kvC2IxEERKNSt3__112basic_stringIcNS1_11char_traitsIcEENS1_9allocatorIcEEEERKNS1_6vectorIT_NS5_ISB_EEEE.cold.1, symObjAddr: 0x1142C, symBinAddr: 0x1379CC, symSize: 0x10 }
  - { offset: 0x25C163, size: 0x8, addend: 0x0, symName: __ZN7gguf_kvC2IxEERKNSt3__112basic_stringIcNS1_11char_traitsIcEENS1_9allocatorIcEEEERKNS1_6vectorIT_NS5_ISB_EEEE.cold.1, symObjAddr: 0x1142C, symBinAddr: 0x1379CC, symSize: 0x10 }
  - { offset: 0x25C179, size: 0x8, addend: 0x0, symName: __ZN7gguf_kvC2IxEERKNSt3__112basic_stringIcNS1_11char_traitsIcEENS1_9allocatorIcEEEERKNS1_6vectorIT_NS5_ISB_EEEE.cold.1, symObjAddr: 0x1142C, symBinAddr: 0x1379CC, symSize: 0x10 }
  - { offset: 0x25C18E, size: 0x8, addend: 0x0, symName: __ZN7gguf_kvC2IxEERKNSt3__112basic_stringIcNS1_11char_traitsIcEENS1_9allocatorIcEEEET_.cold.1, symObjAddr: 0x1143C, symBinAddr: 0x1379DC, symSize: 0x10 }
  - { offset: 0x25C1AA, size: 0x8, addend: 0x0, symName: __ZN7gguf_kvC2IxEERKNSt3__112basic_stringIcNS1_11char_traitsIcEENS1_9allocatorIcEEEET_.cold.1, symObjAddr: 0x1143C, symBinAddr: 0x1379DC, symSize: 0x10 }
  - { offset: 0x25C1BF, size: 0x8, addend: 0x0, symName: __ZN7gguf_kvC2IxEERKNSt3__112basic_stringIcNS1_11char_traitsIcEENS1_9allocatorIcEEEET_.cold.1, symObjAddr: 0x1143C, symBinAddr: 0x1379DC, symSize: 0x10 }
  - { offset: 0x25C1D5, size: 0x8, addend: 0x0, symName: __ZN7gguf_kvC2IxEERKNSt3__112basic_stringIcNS1_11char_traitsIcEENS1_9allocatorIcEEEET_.cold.1, symObjAddr: 0x1143C, symBinAddr: 0x1379DC, symSize: 0x10 }
  - { offset: 0x25C200, size: 0x8, addend: 0x0, symName: __ZN7gguf_kvC2IdEERKNSt3__112basic_stringIcNS1_11char_traitsIcEENS1_9allocatorIcEEEERKNS1_6vectorIT_NS5_ISB_EEEE.cold.1, symObjAddr: 0x1144C, symBinAddr: 0x1379EC, symSize: 0x10 }
  - { offset: 0x25C21C, size: 0x8, addend: 0x0, symName: __ZN7gguf_kvC2IdEERKNSt3__112basic_stringIcNS1_11char_traitsIcEENS1_9allocatorIcEEEERKNS1_6vectorIT_NS5_ISB_EEEE.cold.1, symObjAddr: 0x1144C, symBinAddr: 0x1379EC, symSize: 0x10 }
  - { offset: 0x25C231, size: 0x8, addend: 0x0, symName: __ZN7gguf_kvC2IdEERKNSt3__112basic_stringIcNS1_11char_traitsIcEENS1_9allocatorIcEEEERKNS1_6vectorIT_NS5_ISB_EEEE.cold.1, symObjAddr: 0x1144C, symBinAddr: 0x1379EC, symSize: 0x10 }
  - { offset: 0x25C247, size: 0x8, addend: 0x0, symName: __ZN7gguf_kvC2IdEERKNSt3__112basic_stringIcNS1_11char_traitsIcEENS1_9allocatorIcEEEERKNS1_6vectorIT_NS5_ISB_EEEE.cold.1, symObjAddr: 0x1144C, symBinAddr: 0x1379EC, symSize: 0x10 }
  - { offset: 0x25C25C, size: 0x8, addend: 0x0, symName: __ZN7gguf_kvC2IdEERKNSt3__112basic_stringIcNS1_11char_traitsIcEENS1_9allocatorIcEEEET_.cold.1, symObjAddr: 0x1145C, symBinAddr: 0x1379FC, symSize: 0x10 }
  - { offset: 0x25C278, size: 0x8, addend: 0x0, symName: __ZN7gguf_kvC2IdEERKNSt3__112basic_stringIcNS1_11char_traitsIcEENS1_9allocatorIcEEEET_.cold.1, symObjAddr: 0x1145C, symBinAddr: 0x1379FC, symSize: 0x10 }
  - { offset: 0x25C28D, size: 0x8, addend: 0x0, symName: __ZN7gguf_kvC2IdEERKNSt3__112basic_stringIcNS1_11char_traitsIcEENS1_9allocatorIcEEEET_.cold.1, symObjAddr: 0x1145C, symBinAddr: 0x1379FC, symSize: 0x10 }
  - { offset: 0x25C2A3, size: 0x8, addend: 0x0, symName: __ZN7gguf_kvC2IdEERKNSt3__112basic_stringIcNS1_11char_traitsIcEENS1_9allocatorIcEEEET_.cold.1, symObjAddr: 0x1145C, symBinAddr: 0x1379FC, symSize: 0x10 }
  - { offset: 0x25C480, size: 0x8, addend: 0x0, symName: __GLOBAL__sub_I_gguf.cpp, symObjAddr: 0x12374, symBinAddr: 0xAC2B0, symSize: 0x138 }
  - { offset: 0x25C555, size: 0x8, addend: 0x0, symName: _OUTLINED_FUNCTION_0, symObjAddr: 0x1146C, symBinAddr: 0xAC2A8, symSize: 0x8 }
  - { offset: 0x25E2C6, size: 0x8, addend: 0x0, symName: _quantize_row_q8_0, symObjAddr: 0x0, symBinAddr: 0xAC3E8, symSize: 0x1BC }
  - { offset: 0x25E2D4, size: 0x8, addend: 0x0, symName: _ggml_vec_dot_q4_K_q8_K, symObjAddr: 0x1EC8, symBinAddr: 0xAE2B0, symSize: 0x1D8 }
  - { offset: 0x25E7F7, size: 0x8, addend: 0x0, symName: _ggml_vec_dot_q5_K_q8_K, symObjAddr: 0x20A0, symBinAddr: 0xAE488, symSize: 0x1F8 }
  - { offset: 0x25EDA8, size: 0x8, addend: 0x0, symName: _ggml_vec_dot_iq2_s_q8_K, symObjAddr: 0x28F0, symBinAddr: 0xAECD8, symSize: 0x25C }
  - { offset: 0x25EDCC, size: 0x8, addend: 0x0, symName: _ggml_vec_dot_iq2_s_q8_K.k_mask1, symObjAddr: 0x6958, symBinAddr: 0x14BF68, symSize: 0x0 }
  - { offset: 0x25F23C, size: 0x8, addend: 0x0, symName: _ggml_vec_dot_iq3_s_q8_K, symObjAddr: 0x2D74, symBinAddr: 0xAF15C, symSize: 0x31C }
  - { offset: 0x25F260, size: 0x8, addend: 0x0, symName: _ggml_vec_dot_iq3_s_q8_K.k_mask1, symObjAddr: 0x8D78, symBinAddr: 0x14E388, symSize: 0x0 }
  - { offset: 0x25F6C5, size: 0x8, addend: 0x0, symName: _kvalues_mxfp4, symObjAddr: 0x3D48, symBinAddr: 0x149358, symSize: 0x0 }
  - { offset: 0x25F702, size: 0x8, addend: 0x0, symName: _table_b2b_1, symObjAddr: 0x3D58, symBinAddr: 0x149368, symSize: 0x0 }
  - { offset: 0x25F740, size: 0x8, addend: 0x0, symName: _table_b2b_0, symObjAddr: 0x4558, symBinAddr: 0x149B68, symSize: 0x0 }
  - { offset: 0x25F757, size: 0x8, addend: 0x0, symName: _keven_signs_q2xs, symObjAddr: 0x4D58, symBinAddr: 0x14A368, symSize: 0x0 }
  - { offset: 0x25F77D, size: 0x8, addend: 0x0, symName: _iq2xxs_grid, symObjAddr: 0x5158, symBinAddr: 0x14A768, symSize: 0x0 }
  - { offset: 0x25F794, size: 0x8, addend: 0x0, symName: _iq2xs_grid, symObjAddr: 0x5958, symBinAddr: 0x14AF68, symSize: 0x0 }
  - { offset: 0x25F7BA, size: 0x8, addend: 0x0, symName: _iq2s_grid, symObjAddr: 0x6978, symBinAddr: 0x14BF88, symSize: 0x0 }
  - { offset: 0x25F7E0, size: 0x8, addend: 0x0, symName: _iq3xxs_grid, symObjAddr: 0x8978, symBinAddr: 0x14DF88, symSize: 0x0 }
  - { offset: 0x25F806, size: 0x8, addend: 0x0, symName: _iq3s_grid, symObjAddr: 0x8D98, symBinAddr: 0x14E3A8, symSize: 0x0 }
  - { offset: 0x25F82C, size: 0x8, addend: 0x0, symName: _iq1s_grid, symObjAddr: 0x9598, symBinAddr: 0x14EBA8, symSize: 0x0 }
  - { offset: 0x25F852, size: 0x8, addend: 0x0, symName: _kvalues_iq4nl, symObjAddr: 0xD598, symBinAddr: 0x152BA8, symSize: 0x0 }
  - { offset: 0x25FB2B, size: 0x8, addend: 0x0, symName: _quantize_row_q8_0, symObjAddr: 0x0, symBinAddr: 0xAC3E8, symSize: 0x1BC }
  - { offset: 0x25FDE0, size: 0x8, addend: 0x0, symName: _quantize_row_q8_1, symObjAddr: 0x1BC, symBinAddr: 0xAC5A4, symSize: 0x240 }
  - { offset: 0x2601C2, size: 0x8, addend: 0x0, symName: _quantize_row_q8_K, symObjAddr: 0x3FC, symBinAddr: 0xAC7E4, symSize: 0x4 }
  - { offset: 0x260206, size: 0x8, addend: 0x0, symName: _quantize_row_q8_K, symObjAddr: 0x3FC, symBinAddr: 0xAC7E4, symSize: 0x4 }
  - { offset: 0x260350, size: 0x8, addend: 0x0, symName: _ggml_vec_dot_q4_0_q8_0, symObjAddr: 0x400, symBinAddr: 0xAC7E8, symSize: 0x254 }
  - { offset: 0x2608D6, size: 0x8, addend: 0x0, symName: _ggml_vec_dot_q4_1_q8_1, symObjAddr: 0x654, symBinAddr: 0xACA3C, symSize: 0x270 }
  - { offset: 0x260F65, size: 0x8, addend: 0x0, symName: _ggml_vec_dot_mxfp4_q8_0, symObjAddr: 0x8C4, symBinAddr: 0xACCAC, symSize: 0x404 }
  - { offset: 0x2613A3, size: 0x8, addend: 0x0, symName: _ggml_vec_dot_q5_0_q8_0, symObjAddr: 0xCC8, symBinAddr: 0xAD0B0, symSize: 0x3B4 }
  - { offset: 0x2619E4, size: 0x8, addend: 0x0, symName: _ggml_vec_dot_q5_1_q8_1, symObjAddr: 0x107C, symBinAddr: 0xAD464, symSize: 0x38C }
  - { offset: 0x262107, size: 0x8, addend: 0x0, symName: _ggml_vec_dot_q8_0_q8_0, symObjAddr: 0x1408, symBinAddr: 0xAD7F0, symSize: 0x188 }
  - { offset: 0x2625B6, size: 0x8, addend: 0x0, symName: _ggml_vec_dot_tq1_0_q8_K, symObjAddr: 0x1590, symBinAddr: 0xAD978, symSize: 0x250 }
  - { offset: 0x2631D8, size: 0x8, addend: 0x0, symName: _ggml_vec_dot_tq2_0_q8_K, symObjAddr: 0x17E0, symBinAddr: 0xADBC8, symSize: 0x130 }
  - { offset: 0x2636C4, size: 0x8, addend: 0x0, symName: _ggml_vec_dot_q2_K_q8_K, symObjAddr: 0x1910, symBinAddr: 0xADCF8, symSize: 0x24C }
  - { offset: 0x263D18, size: 0x8, addend: 0x0, symName: _ggml_vec_dot_q3_K_q8_K, symObjAddr: 0x1B5C, symBinAddr: 0xADF44, symSize: 0x36C }
  - { offset: 0x26444F, size: 0x8, addend: 0x0, symName: _ggml_vec_dot_q6_K_q8_K, symObjAddr: 0x2298, symBinAddr: 0xAE680, symSize: 0x26C }
  - { offset: 0x264AB3, size: 0x8, addend: 0x0, symName: _ggml_vec_dot_iq2_xxs_q8_K, symObjAddr: 0x2504, symBinAddr: 0xAE8EC, symSize: 0x1D0 }
  - { offset: 0x264F52, size: 0x8, addend: 0x0, symName: _ggml_vec_dot_iq2_xs_q8_K, symObjAddr: 0x26D4, symBinAddr: 0xAEABC, symSize: 0x21C }
  - { offset: 0x2654FB, size: 0x8, addend: 0x0, symName: _ggml_vec_dot_iq3_xxs_q8_K, symObjAddr: 0x2B4C, symBinAddr: 0xAEF34, symSize: 0x228 }
  - { offset: 0x26592E, size: 0x8, addend: 0x0, symName: _ggml_vec_dot_iq1_s_q8_K, symObjAddr: 0x3090, symBinAddr: 0xAF478, symSize: 0x21C }
  - { offset: 0x265D1E, size: 0x8, addend: 0x0, symName: _ggml_vec_dot_iq1_m_q8_K, symObjAddr: 0x32AC, symBinAddr: 0xAF694, symSize: 0x2B4 }
  - { offset: 0x266287, size: 0x8, addend: 0x0, symName: _ggml_vec_dot_iq4_nl_q8_0, symObjAddr: 0x3560, symBinAddr: 0xAF948, symSize: 0x3C0 }
  - { offset: 0x2666C6, size: 0x8, addend: 0x0, symName: _ggml_vec_dot_iq4_xs_q8_K, symObjAddr: 0x3920, symBinAddr: 0xAFD08, symSize: 0x13C }
  - { offset: 0x267628, size: 0x8, addend: 0x0, symName: _ggml_quantize_mat_q8_0_4x4, symObjAddr: 0x0, symBinAddr: 0xAFE44, symSize: 0x680 }
  - { offset: 0x26786D, size: 0x8, addend: 0x0, symName: _ggml_quantize_mat_q8_0_4x4, symObjAddr: 0x0, symBinAddr: 0xAFE44, symSize: 0x680 }
  - { offset: 0x267B29, size: 0x8, addend: 0x0, symName: _ggml_quantize_mat_q8_0_4x8, symObjAddr: 0x680, symBinAddr: 0xB04C4, symSize: 0x670 }
  - { offset: 0x267DD5, size: 0x8, addend: 0x0, symName: _ggml_gemv_q4_0_4x4_q8_0, symObjAddr: 0xCF0, symBinAddr: 0xB0B34, symSize: 0x4 }
  - { offset: 0x267E8B, size: 0x8, addend: 0x0, symName: _ggml_gemv_q4_0_4x4_q8_0, symObjAddr: 0xCF0, symBinAddr: 0xB0B34, symSize: 0x4 }
  - { offset: 0x267F1B, size: 0x8, addend: 0x0, symName: _ggml_gemv_q4_0_4x8_q8_0, symObjAddr: 0xCF4, symBinAddr: 0xB0B38, symSize: 0x4 }
  - { offset: 0x267FD1, size: 0x8, addend: 0x0, symName: _ggml_gemv_q4_0_4x8_q8_0, symObjAddr: 0xCF4, symBinAddr: 0xB0B38, symSize: 0x4 }
  - { offset: 0x268040, size: 0x8, addend: 0x0, symName: _ggml_gemv_q4_0_8x8_q8_0, symObjAddr: 0xCF8, symBinAddr: 0xB0B3C, symSize: 0x4 }
  - { offset: 0x268102, size: 0x8, addend: 0x0, symName: _ggml_gemv_q4_0_8x8_q8_0, symObjAddr: 0xCF8, symBinAddr: 0xB0B3C, symSize: 0x4 }
  - { offset: 0x268171, size: 0x8, addend: 0x0, symName: _ggml_gemv_iq4_nl_4x4_q8_0, symObjAddr: 0xCFC, symBinAddr: 0xB0B40, symSize: 0x4 }
  - { offset: 0x268233, size: 0x8, addend: 0x0, symName: _ggml_gemv_iq4_nl_4x4_q8_0, symObjAddr: 0xCFC, symBinAddr: 0xB0B40, symSize: 0x4 }
  - { offset: 0x2682A2, size: 0x8, addend: 0x0, symName: _ggml_gemm_q4_0_4x4_q8_0, symObjAddr: 0xD00, symBinAddr: 0xB0B44, symSize: 0x4 }
  - { offset: 0x268364, size: 0x8, addend: 0x0, symName: _ggml_gemm_q4_0_4x4_q8_0, symObjAddr: 0xD00, symBinAddr: 0xB0B44, symSize: 0x4 }
  - { offset: 0x2683D3, size: 0x8, addend: 0x0, symName: _ggml_gemm_q4_0_4x8_q8_0, symObjAddr: 0xD04, symBinAddr: 0xB0B48, symSize: 0x4 }
  - { offset: 0x268495, size: 0x8, addend: 0x0, symName: _ggml_gemm_q4_0_4x8_q8_0, symObjAddr: 0xD04, symBinAddr: 0xB0B48, symSize: 0x4 }
  - { offset: 0x268504, size: 0x8, addend: 0x0, symName: _ggml_gemm_q4_0_8x8_q8_0, symObjAddr: 0xD08, symBinAddr: 0xB0B4C, symSize: 0x4 }
  - { offset: 0x2685C6, size: 0x8, addend: 0x0, symName: _ggml_gemm_q4_0_8x8_q8_0, symObjAddr: 0xD08, symBinAddr: 0xB0B4C, symSize: 0x4 }
  - { offset: 0x268635, size: 0x8, addend: 0x0, symName: _ggml_gemm_iq4_nl_4x4_q8_0, symObjAddr: 0xD0C, symBinAddr: 0xB0B50, symSize: 0x4 }
  - { offset: 0x2686F7, size: 0x8, addend: 0x0, symName: _ggml_gemm_iq4_nl_4x4_q8_0, symObjAddr: 0xD0C, symBinAddr: 0xB0B50, symSize: 0x4 }
  - { offset: 0x26B3C9, size: 0x8, addend: 0x0, symName: _ggml_compute_forward_add_non_quantized, symObjAddr: 0x0, symBinAddr: 0xB0B54, symSize: 0x3378 }
  - { offset: 0x26E074, size: 0x8, addend: 0x0, symName: _ggml_compute_forward_add_non_quantized, symObjAddr: 0x0, symBinAddr: 0xB0B54, symSize: 0x3378 }
  - { offset: 0x27000C, size: 0x8, addend: 0x0, symName: _ggml_compute_forward_sub, symObjAddr: 0x3378, symBinAddr: 0xB3ECC, symSize: 0x3378 }
  - { offset: 0x271A50, size: 0x8, addend: 0x0, symName: _ggml_compute_forward_sub, symObjAddr: 0x3378, symBinAddr: 0xB3ECC, symSize: 0x3378 }
  - { offset: 0x2739E8, size: 0x8, addend: 0x0, symName: _ggml_compute_forward_mul, symObjAddr: 0x66F0, symBinAddr: 0xB7244, symSize: 0x3378 }
  - { offset: 0x2753BC, size: 0x8, addend: 0x0, symName: _ggml_compute_forward_mul, symObjAddr: 0x66F0, symBinAddr: 0xB7244, symSize: 0x3378 }
  - { offset: 0x277354, size: 0x8, addend: 0x0, symName: _ggml_compute_forward_div, symObjAddr: 0x9A68, symBinAddr: 0xBA5BC, symSize: 0x3398 }
  - { offset: 0x278D28, size: 0x8, addend: 0x0, symName: _ggml_compute_forward_div, symObjAddr: 0x9A68, symBinAddr: 0xBA5BC, symSize: 0x3398 }
  - { offset: 0x27CBC5, size: 0x8, addend: 0x0, symName: _ggml_get_type_traits_cpu, symObjAddr: 0x0, symBinAddr: 0xBD954, symSize: 0x14 }
  - { offset: 0x27CBDF, size: 0x8, addend: 0x0, symName: _ggml_arm_arch_features, symObjAddr: 0x20D5C, symBinAddr: 0x1FDD68, symSize: 0x0 }
  - { offset: 0x27CC15, size: 0x8, addend: 0x0, symName: _ggml_cpu_init, symObjAddr: 0x364C, symBinAddr: 0xC0FA0, symSize: 0x250 }
  - { offset: 0x27CC39, size: 0x8, addend: 0x0, symName: _ggml_cpu_init.is_first_call, symObjAddr: 0x20D60, symBinAddr: 0x1FDA30, symSize: 0x0 }
  - { offset: 0x27D0D4, size: 0x8, addend: 0x0, symName: _ggml_table_f32_f16, symBinAddr: 0x23DD6C, symSize: 0x0 }
  - { offset: 0x27D102, size: 0x8, addend: 0x0, symName: _type_traits_cpu, symObjAddr: 0x57A8, symBinAddr: 0x1728B0, symSize: 0x0 }
  - { offset: 0x27E727, size: 0x8, addend: 0x0, symName: _ggml_get_type_traits_cpu, symObjAddr: 0x0, symBinAddr: 0xBD954, symSize: 0x14 }
  - { offset: 0x27E75E, size: 0x8, addend: 0x0, symName: _ggml_barrier, symObjAddr: 0x14, symBinAddr: 0xBD968, symSize: 0x64 }
  - { offset: 0x27E7AF, size: 0x8, addend: 0x0, symName: _ggml_threadpool_chunk_set, symObjAddr: 0x78, symBinAddr: 0xBD9CC, symSize: 0x8 }
  - { offset: 0x27E7E5, size: 0x8, addend: 0x0, symName: _ggml_threadpool_chunk_add, symObjAddr: 0x80, symBinAddr: 0xBD9D4, symSize: 0x18 }
  - { offset: 0x27E821, size: 0x8, addend: 0x0, symName: _ggml_numa_init, symObjAddr: 0x98, symBinAddr: 0xBD9EC, symSize: 0x4 }
  - { offset: 0x27E848, size: 0x8, addend: 0x0, symName: _ggml_is_numa, symObjAddr: 0x9C, symBinAddr: 0xBD9F0, symSize: 0x8 }
  - { offset: 0x27E863, size: 0x8, addend: 0x0, symName: _ggml_new_i32, symObjAddr: 0xA4, symBinAddr: 0xBD9F8, symSize: 0x68 }
  - { offset: 0x27E8FC, size: 0x8, addend: 0x0, symName: _ggml_set_i32, symObjAddr: 0x10C, symBinAddr: 0xBDA60, symSize: 0x65C }
  - { offset: 0x27E94F, size: 0x8, addend: 0x0, symName: _ggml_set_i32, symObjAddr: 0x10C, symBinAddr: 0xBDA60, symSize: 0x65C }
  - { offset: 0x27EBEB, size: 0x8, addend: 0x0, symName: _ggml_new_f32, symObjAddr: 0x768, symBinAddr: 0xBE0BC, symSize: 0x70 }
  - { offset: 0x27EDBC, size: 0x8, addend: 0x0, symName: _ggml_new_f32, symObjAddr: 0x768, symBinAddr: 0xBE0BC, symSize: 0x70 }
  - { offset: 0x27EE55, size: 0x8, addend: 0x0, symName: _ggml_set_f32, symObjAddr: 0x7D8, symBinAddr: 0xBE12C, symSize: 0x674 }
  - { offset: 0x27EE69, size: 0x8, addend: 0x0, symName: _ggml_set_f32, symObjAddr: 0x7D8, symBinAddr: 0xBE12C, symSize: 0x674 }
  - { offset: 0x27F103, size: 0x8, addend: 0x0, symName: _ggml_get_i32_1d, symObjAddr: 0xE4C, symBinAddr: 0xBE7A0, symSize: 0x300 }
  - { offset: 0x27F1C0, size: 0x8, addend: 0x0, symName: _ggml_get_i32_1d, symObjAddr: 0xE4C, symBinAddr: 0xBE7A0, symSize: 0x300 }
  - { offset: 0x27F333, size: 0x8, addend: 0x0, symName: _ggml_get_i32_nd, symObjAddr: 0x114C, symBinAddr: 0xBEAA0, symSize: 0xCC }
  - { offset: 0x27F38F, size: 0x8, addend: 0x0, symName: _ggml_get_i32_nd, symObjAddr: 0x114C, symBinAddr: 0xBEAA0, symSize: 0xCC }
  - { offset: 0x27F400, size: 0x8, addend: 0x0, symName: _ggml_set_i32_1d, symObjAddr: 0x1218, symBinAddr: 0xBEB6C, symSize: 0x320 }
  - { offset: 0x27F5B6, size: 0x8, addend: 0x0, symName: _ggml_set_i32_1d, symObjAddr: 0x1218, symBinAddr: 0xBEB6C, symSize: 0x320 }
  - { offset: 0x27F840, size: 0x8, addend: 0x0, symName: _ggml_set_i32_nd, symObjAddr: 0x1538, symBinAddr: 0xBEE8C, symSize: 0x170 }
  - { offset: 0x27F854, size: 0x8, addend: 0x0, symName: _ggml_set_i32_nd, symObjAddr: 0x1538, symBinAddr: 0xBEE8C, symSize: 0x170 }
  - { offset: 0x27FA16, size: 0x8, addend: 0x0, symName: _ggml_get_f32_1d, symObjAddr: 0x16A8, symBinAddr: 0xBEFFC, symSize: 0x1E8 }
  - { offset: 0x27FAB4, size: 0x8, addend: 0x0, symName: _ggml_get_f32_1d, symObjAddr: 0x16A8, symBinAddr: 0xBEFFC, symSize: 0x1E8 }
  - { offset: 0x27FBDD, size: 0x8, addend: 0x0, symName: _ggml_get_f32_nd, symObjAddr: 0x1890, symBinAddr: 0xBF1E4, symSize: 0xD8 }
  - { offset: 0x27FBF1, size: 0x8, addend: 0x0, symName: _ggml_get_f32_nd, symObjAddr: 0x1890, symBinAddr: 0xBF1E4, symSize: 0xD8 }
  - { offset: 0x27FC82, size: 0x8, addend: 0x0, symName: _ggml_set_f32_1d, symObjAddr: 0x1968, symBinAddr: 0xBF2BC, symSize: 0x268 }
  - { offset: 0x27FC96, size: 0x8, addend: 0x0, symName: _ggml_set_f32_1d, symObjAddr: 0x1968, symBinAddr: 0xBF2BC, symSize: 0x268 }
  - { offset: 0x27FE99, size: 0x8, addend: 0x0, symName: _ggml_set_f32_nd, symObjAddr: 0x1BD0, symBinAddr: 0xBF524, symSize: 0x170 }
  - { offset: 0x27FEAD, size: 0x8, addend: 0x0, symName: _ggml_set_f32_nd, symObjAddr: 0x1BD0, symBinAddr: 0xBF524, symSize: 0x170 }
  - { offset: 0x28006F, size: 0x8, addend: 0x0, symName: _ggml_compute_forward_mul_mat, symObjAddr: 0x1D40, symBinAddr: 0xBF694, symSize: 0xA84 }
  - { offset: 0x28047B, size: 0x8, addend: 0x0, symName: _ggml_compute_forward_mul_mat, symObjAddr: 0x1D40, symBinAddr: 0xBF694, symSize: 0xA84 }
  - { offset: 0x280CF6, size: 0x8, addend: 0x0, symName: _ggml_threadpool_free, symObjAddr: 0x27C4, symBinAddr: 0xC0118, symSize: 0xF4 }
  - { offset: 0x280D4C, size: 0x8, addend: 0x0, symName: _ggml_threadpool_free, symObjAddr: 0x27C4, symBinAddr: 0xC0118, symSize: 0xF4 }
  - { offset: 0x280E7D, size: 0x8, addend: 0x0, symName: _ggml_threadpool_pause, symObjAddr: 0x28B8, symBinAddr: 0xC020C, symSize: 0x40 }
  - { offset: 0x280F53, size: 0x8, addend: 0x0, symName: _ggml_threadpool_pause, symObjAddr: 0x28B8, symBinAddr: 0xC020C, symSize: 0x40 }
  - { offset: 0x280FEF, size: 0x8, addend: 0x0, symName: _ggml_threadpool_resume, symObjAddr: 0x28F8, symBinAddr: 0xC024C, symSize: 0x3C }
  - { offset: 0x281289, size: 0x8, addend: 0x0, symName: _ggml_graph_plan, symObjAddr: 0x2934, symBinAddr: 0xC0288, symSize: 0x684 }
  - { offset: 0x2817AC, size: 0x8, addend: 0x0, symName: _ggml_threadpool_new, symObjAddr: 0x2FB8, symBinAddr: 0xC090C, symSize: 0xC }
  - { offset: 0x281A82, size: 0x8, addend: 0x0, symName: _ggml_threadpool_new, symObjAddr: 0x2FB8, symBinAddr: 0xC090C, symSize: 0xC }
  - { offset: 0x281AD0, size: 0x8, addend: 0x0, symName: _ggml_threadpool_new_impl, symObjAddr: 0x2FC4, symBinAddr: 0xC0918, symSize: 0x408 }
  - { offset: 0x281DE0, size: 0x8, addend: 0x0, symName: _ggml_graph_compute, symObjAddr: 0x33CC, symBinAddr: 0xC0D20, symSize: 0x280 }
  - { offset: 0x2820D2, size: 0x8, addend: 0x0, symName: _ggml_graph_compute, symObjAddr: 0x33CC, symBinAddr: 0xC0D20, symSize: 0x280 }
  - { offset: 0x282361, size: 0x8, addend: 0x0, symName: _ggml_cpu_init, symObjAddr: 0x364C, symBinAddr: 0xC0FA0, symSize: 0x250 }
  - { offset: 0x282404, size: 0x8, addend: 0x0, symName: _ggml_graph_compute_thread, symObjAddr: 0x389C, symBinAddr: 0xC11F0, symSize: 0x7D4 }
  - { offset: 0x283512, size: 0x8, addend: 0x0, symName: _ggml_compute_forward_mul_mat_id, symObjAddr: 0x4A58, symBinAddr: 0xC23AC, symSize: 0xBD4 }
  - { offset: 0x284376, size: 0x8, addend: 0x0, symName: _ggml_graph_compute_with_ctx, symObjAddr: 0x41E8, symBinAddr: 0xC1B3C, symSize: 0x58 }
  - { offset: 0x28444E, size: 0x8, addend: 0x0, symName: _ggml_cpu_fp32_to_fp32, symObjAddr: 0x4240, symBinAddr: 0xC1B94, symSize: 0x14 }
  - { offset: 0x284499, size: 0x8, addend: 0x0, symName: _ggml_cpu_fp32_to_fp16, symObjAddr: 0x4254, symBinAddr: 0xC1BA8, symSize: 0x1A4 }
  - { offset: 0x2845F9, size: 0x8, addend: 0x0, symName: _ggml_cpu_fp16_to_fp32, symObjAddr: 0x43F8, symBinAddr: 0xC1D4C, symSize: 0xC4 }
  - { offset: 0x284668, size: 0x8, addend: 0x0, symName: _ggml_cpu_fp32_to_bf16, symObjAddr: 0x44BC, symBinAddr: 0xC1E10, symSize: 0xE4 }
  - { offset: 0x2846D7, size: 0x8, addend: 0x0, symName: _ggml_cpu_fp32_to_i32, symObjAddr: 0x45A0, symBinAddr: 0xC1EF4, symSize: 0x78 }
  - { offset: 0x28472D, size: 0x8, addend: 0x0, symName: _ggml_cpu_bf16_to_fp32, symObjAddr: 0x4618, symBinAddr: 0xC1F6C, symSize: 0xDC }
  - { offset: 0x28479C, size: 0x8, addend: 0x0, symName: _ggml_cpu_has_avx, symObjAddr: 0x46F4, symBinAddr: 0xC2048, symSize: 0x8 }
  - { offset: 0x2847B7, size: 0x8, addend: 0x0, symName: _ggml_cpu_has_avx_vnni, symObjAddr: 0x46FC, symBinAddr: 0xC2050, symSize: 0x8 }
  - { offset: 0x2847D2, size: 0x8, addend: 0x0, symName: _ggml_cpu_has_avx2, symObjAddr: 0x4704, symBinAddr: 0xC2058, symSize: 0x8 }
  - { offset: 0x2847ED, size: 0x8, addend: 0x0, symName: _ggml_cpu_has_avx512, symObjAddr: 0x470C, symBinAddr: 0xC2060, symSize: 0x8 }
  - { offset: 0x284808, size: 0x8, addend: 0x0, symName: _ggml_cpu_has_avx512_vbmi, symObjAddr: 0x4714, symBinAddr: 0xC2068, symSize: 0x8 }
  - { offset: 0x284823, size: 0x8, addend: 0x0, symName: _ggml_cpu_has_avx512_vnni, symObjAddr: 0x471C, symBinAddr: 0xC2070, symSize: 0x8 }
  - { offset: 0x28483E, size: 0x8, addend: 0x0, symName: _ggml_cpu_has_avx512_bf16, symObjAddr: 0x4724, symBinAddr: 0xC2078, symSize: 0x8 }
  - { offset: 0x284859, size: 0x8, addend: 0x0, symName: _ggml_cpu_has_amx_int8, symObjAddr: 0x472C, symBinAddr: 0xC2080, symSize: 0x8 }
  - { offset: 0x284874, size: 0x8, addend: 0x0, symName: _ggml_cpu_has_bmi2, symObjAddr: 0x4734, symBinAddr: 0xC2088, symSize: 0x8 }
  - { offset: 0x28488F, size: 0x8, addend: 0x0, symName: _ggml_cpu_has_fma, symObjAddr: 0x473C, symBinAddr: 0xC2090, symSize: 0x8 }
  - { offset: 0x2848AA, size: 0x8, addend: 0x0, symName: _ggml_cpu_has_arm_fma, symObjAddr: 0x4744, symBinAddr: 0xC2098, symSize: 0x8 }
  - { offset: 0x2848C5, size: 0x8, addend: 0x0, symName: _ggml_cpu_has_riscv_v, symObjAddr: 0x474C, symBinAddr: 0xC20A0, symSize: 0x8 }
  - { offset: 0x2848E0, size: 0x8, addend: 0x0, symName: _ggml_cpu_has_f16c, symObjAddr: 0x4754, symBinAddr: 0xC20A8, symSize: 0x8 }
  - { offset: 0x2848FB, size: 0x8, addend: 0x0, symName: _ggml_cpu_has_fp16_va, symObjAddr: 0x475C, symBinAddr: 0xC20B0, symSize: 0x8 }
  - { offset: 0x284916, size: 0x8, addend: 0x0, symName: _ggml_cpu_has_wasm_simd, symObjAddr: 0x4764, symBinAddr: 0xC20B8, symSize: 0x8 }
  - { offset: 0x284931, size: 0x8, addend: 0x0, symName: _ggml_cpu_has_llamafile, symObjAddr: 0x476C, symBinAddr: 0xC20C0, symSize: 0x8 }
  - { offset: 0x28494C, size: 0x8, addend: 0x0, symName: _ggml_cpu_has_sse3, symObjAddr: 0x4774, symBinAddr: 0xC20C8, symSize: 0x8 }
  - { offset: 0x284967, size: 0x8, addend: 0x0, symName: _ggml_cpu_has_ssse3, symObjAddr: 0x477C, symBinAddr: 0xC20D0, symSize: 0x8 }
  - { offset: 0x284982, size: 0x8, addend: 0x0, symName: _ggml_cpu_has_vsx, symObjAddr: 0x4784, symBinAddr: 0xC20D8, symSize: 0x8 }
  - { offset: 0x28499D, size: 0x8, addend: 0x0, symName: _ggml_cpu_has_vxe, symObjAddr: 0x478C, symBinAddr: 0xC20E0, symSize: 0x8 }
  - { offset: 0x2849B8, size: 0x8, addend: 0x0, symName: _ggml_cpu_has_neon, symObjAddr: 0x4794, symBinAddr: 0xC20E8, symSize: 0x8 }
  - { offset: 0x2849D3, size: 0x8, addend: 0x0, symName: _ggml_cpu_has_dotprod, symObjAddr: 0x479C, symBinAddr: 0xC20F0, symSize: 0x8 }
  - { offset: 0x2849EE, size: 0x8, addend: 0x0, symName: _ggml_cpu_has_sve, symObjAddr: 0x47A4, symBinAddr: 0xC20F8, symSize: 0x8 }
  - { offset: 0x284A09, size: 0x8, addend: 0x0, symName: _ggml_cpu_has_matmul_int8, symObjAddr: 0x47AC, symBinAddr: 0xC2100, symSize: 0x8 }
  - { offset: 0x284A24, size: 0x8, addend: 0x0, symName: _ggml_cpu_get_sve_cnt, symObjAddr: 0x47B4, symBinAddr: 0xC2108, symSize: 0x8 }
  - { offset: 0x284A3F, size: 0x8, addend: 0x0, symName: _ggml_cpu_has_sme, symObjAddr: 0x47BC, symBinAddr: 0xC2110, symSize: 0x8 }
  - { offset: 0x284B66, size: 0x8, addend: 0x0, symName: _ggml_graph_compute_secondary_thread, symObjAddr: 0x47C4, symBinAddr: 0xC2118, symSize: 0x294 }
  - { offset: 0x285280, size: 0x8, addend: 0x0, symName: __Z39ggml_backend_cpu_get_extra_buffer_typesv, symObjAddr: 0x0, symBinAddr: 0xC2F80, symSize: 0x94 }
  - { offset: 0x28528E, size: 0x8, addend: 0x0, symName: __Z39ggml_backend_cpu_get_extra_buffer_typesv, symObjAddr: 0x0, symBinAddr: 0xC2F80, symSize: 0x94 }
  - { offset: 0x2852AE, size: 0x8, addend: 0x0, symName: __MergedGlobals.49, symObjAddr: 0x410C8, symBinAddr: 0x1FDA38, symSize: 0x0 }
  - { offset: 0x28AEA5, size: 0x8, addend: 0x0, symName: _ggml_backend_cpu_reg, symObjAddr: 0x2C0, symBinAddr: 0xC3240, symSize: 0x1C }
  - { offset: 0x28AEC6, size: 0x8, addend: 0x0, symName: __MergedGlobals, symObjAddr: 0x3758, symBinAddr: 0x174968, symSize: 0x0 }
  - { offset: 0x28AEEC, size: 0x8, addend: 0x0, symName: __ZL18ggml_backend_cpu_i, symObjAddr: 0x33F0, symBinAddr: 0x172DB0, symSize: 0x0 }
  - { offset: 0x28AEFF, size: 0x8, addend: 0x0, symName: __ZL31ggml_backend_cpu_reg_get_deviceP16ggml_backend_regm, symObjAddr: 0x46C, symBinAddr: 0xC33EC, symSize: 0xF0 }
  - { offset: 0x28AF2B, size: 0x8, addend: 0x0, symName: __MergedGlobals.49, symObjAddr: 0x410C8, symBinAddr: 0x1FDA38, symSize: 0x0 }
  - { offset: 0x28AF44, size: 0x8, addend: 0x0, symName: __MergedGlobals.49, symObjAddr: 0x410C8, symBinAddr: 0x1FDA38, symSize: 0x0 }
  - { offset: 0x28B0B1, size: 0x8, addend: 0x0, symName: __ZL25ggml_backend_cpu_device_i, symObjAddr: 0x3460, symBinAddr: 0x172E20, symSize: 0x0 }
  - { offset: 0x28B0C4, size: 0x8, addend: 0x0, symName: __ZL46ggml_backend_cpu_device_get_extra_buffers_typeP19ggml_backend_device, symObjAddr: 0x10AC, symBinAddr: 0xC3F90, symSize: 0x94 }
  - { offset: 0x28B0EE, size: 0x8, addend: 0x0, symName: __MergedGlobals.49, symObjAddr: 0x410C8, symBinAddr: 0x1FDA38, symSize: 0x0 }
  - { offset: 0x28B13B, size: 0x8, addend: 0x0, symName: __ZL29ggml_backend_cpu_get_featuresP16ggml_backend_reg, symObjAddr: 0x1140, symBinAddr: 0xC4024, symSize: 0x94 }
  - { offset: 0x28B167, size: 0x8, addend: 0x0, symName: __MergedGlobals.49, symObjAddr: 0x410C8, symBinAddr: 0x1FDA38, symSize: 0x0 }
  - { offset: 0x28B2AA, size: 0x8, addend: 0x0, symName: '__ZZL29ggml_backend_cpu_get_featuresP16ggml_backend_regENK3$_0clEv', symObjAddr: 0x139C, symBinAddr: 0xC4280, symSize: 0x1B64 }
  - { offset: 0x28B2D3, size: 0x8, addend: 0x0, symName: __MergedGlobals.49, symObjAddr: 0x410C8, symBinAddr: 0x1FDA38, symSize: 0x0 }
  - { offset: 0x291879, size: 0x8, addend: 0x0, symName: '__ZZ39ggml_backend_cpu_get_extra_buffer_typesvENK3$_0clEv', symObjAddr: 0x94, symBinAddr: 0xC3014, symSize: 0x13C }
  - { offset: 0x2921C2, size: 0x8, addend: 0x0, symName: __ZNSt3__16vectorIP24ggml_backend_buffer_typeNS_9allocatorIS2_EEE20__throw_length_errorB8ne200100Ev, symObjAddr: 0x6D8, symBinAddr: 0xC3658, symSize: 0x14 }
  - { offset: 0x2921E5, size: 0x8, addend: 0x0, symName: __ZNSt3__16vectorIP24ggml_backend_buffer_typeNS_9allocatorIS2_EEED1B8ne200100Ev, symObjAddr: 0x1D0, symBinAddr: 0xC3150, symSize: 0x34 }
  - { offset: 0x29220B, size: 0x8, addend: 0x0, symName: __ZNSt3__16vectorIP24ggml_backend_buffer_typeNS_9allocatorIS2_EEED1B8ne200100Ev, symObjAddr: 0x1D0, symBinAddr: 0xC3150, symSize: 0x34 }
  - { offset: 0x29222B, size: 0x8, addend: 0x0, symName: __ZNSt3__16vectorIP24ggml_backend_buffer_typeNS_9allocatorIS2_EEED1B8ne200100Ev, symObjAddr: 0x1D0, symBinAddr: 0xC3150, symSize: 0x34 }
  - { offset: 0x29232F, size: 0x8, addend: 0x0, symName: _ggml_backend_cpu_init, symObjAddr: 0x204, symBinAddr: 0xC3184, symSize: 0xBC }
  - { offset: 0x2923BD, size: 0x8, addend: 0x0, symName: _ggml_backend_is_cpu, symObjAddr: 0x2DC, symBinAddr: 0xC325C, symSize: 0x18 }
  - { offset: 0x29241B, size: 0x8, addend: 0x0, symName: _ggml_backend_cpu_set_n_threads, symObjAddr: 0x2F4, symBinAddr: 0xC3274, symSize: 0x6C }
  - { offset: 0x292493, size: 0x8, addend: 0x0, symName: _ggml_backend_cpu_set_threadpool, symObjAddr: 0x360, symBinAddr: 0xC32E0, symSize: 0x80 }
  - { offset: 0x2924C1, size: 0x8, addend: 0x0, symName: _ggml_backend_cpu_set_threadpool, symObjAddr: 0x360, symBinAddr: 0xC32E0, symSize: 0x80 }
  - { offset: 0x292548, size: 0x8, addend: 0x0, symName: _ggml_backend_cpu_set_abort_callback, symObjAddr: 0x3E0, symBinAddr: 0xC3360, symSize: 0x78 }
  - { offset: 0x292569, size: 0x8, addend: 0x0, symName: _ggml_backend_cpu_set_abort_callback, symObjAddr: 0x3E0, symBinAddr: 0xC3360, symSize: 0x78 }
  - { offset: 0x2925F7, size: 0x8, addend: 0x0, symName: __ZL29ggml_backend_cpu_reg_get_nameP16ggml_backend_reg, symObjAddr: 0x458, symBinAddr: 0xC33D8, symSize: 0xC }
  - { offset: 0x29260B, size: 0x8, addend: 0x0, symName: __ZL29ggml_backend_cpu_reg_get_nameP16ggml_backend_reg, symObjAddr: 0x458, symBinAddr: 0xC33D8, symSize: 0xC }
  - { offset: 0x292637, size: 0x8, addend: 0x0, symName: __ZL37ggml_backend_cpu_reg_get_device_countP16ggml_backend_reg, symObjAddr: 0x464, symBinAddr: 0xC33E4, symSize: 0x8 }
  - { offset: 0x292663, size: 0x8, addend: 0x0, symName: __ZN31ggml_backend_cpu_device_contextC1Ev, symObjAddr: 0x91C, symBinAddr: 0xC3800, symSize: 0xB4 }
  - { offset: 0x292970, size: 0x8, addend: 0x0, symName: __ZL31ggml_backend_cpu_reg_get_deviceP16ggml_backend_regm.cold.1, symObjAddr: 0x2F48, symBinAddr: 0x137A0C, symSize: 0x5C }
  - { offset: 0x292988, size: 0x8, addend: 0x0, symName: __ZL33ggml_backend_cpu_get_proc_addressP16ggml_backend_regPKc, symObjAddr: 0x55C, symBinAddr: 0xC34DC, symSize: 0x17C }
  - { offset: 0x292B07, size: 0x8, addend: 0x0, symName: __ZL25ggml_backend_cpu_get_nameP12ggml_backend, symObjAddr: 0x788, symBinAddr: 0xC366C, symSize: 0xC }
  - { offset: 0x292B31, size: 0x8, addend: 0x0, symName: __ZL21ggml_backend_cpu_freeP12ggml_backend, symObjAddr: 0x794, symBinAddr: 0xC3678, symSize: 0x38 }
  - { offset: 0x292B6C, size: 0x8, addend: 0x0, symName: __ZL34ggml_backend_cpu_graph_plan_createP12ggml_backendPK11ggml_cgraph, symObjAddr: 0x7CC, symBinAddr: 0xC36B0, symSize: 0x98 }
  - { offset: 0x292C04, size: 0x8, addend: 0x0, symName: __ZL32ggml_backend_cpu_graph_plan_freeP12ggml_backendPv, symObjAddr: 0x864, symBinAddr: 0xC3748, symSize: 0x2C }
  - { offset: 0x292C4A, size: 0x8, addend: 0x0, symName: __ZL35ggml_backend_cpu_graph_plan_computeP12ggml_backendPv, symObjAddr: 0x890, symBinAddr: 0xC3774, symSize: 0x8 }
  - { offset: 0x292CC4, size: 0x8, addend: 0x0, symName: __ZL30ggml_backend_cpu_graph_computeP12ggml_backendP11ggml_cgraph, symObjAddr: 0x898, symBinAddr: 0xC377C, symSize: 0x84 }
  - { offset: 0x292FE8, size: 0x8, addend: 0x0, symName: __ZN31ggml_backend_cpu_device_contextD1Ev, symObjAddr: 0x9D0, symBinAddr: 0xC38B4, symSize: 0x38 }
  - { offset: 0x293061, size: 0x8, addend: 0x0, symName: __ZN31ggml_backend_cpu_device_contextD1Ev, symObjAddr: 0x9D0, symBinAddr: 0xC38B4, symSize: 0x38 }
  - { offset: 0x29313C, size: 0x8, addend: 0x0, symName: __ZL32ggml_backend_cpu_device_get_nameP19ggml_backend_device, symObjAddr: 0xA08, symBinAddr: 0xC38EC, symSize: 0xC }
  - { offset: 0x2931C0, size: 0x8, addend: 0x0, symName: __ZL39ggml_backend_cpu_device_get_descriptionP19ggml_backend_device, symObjAddr: 0xA14, symBinAddr: 0xC38F8, symSize: 0x18 }
  - { offset: 0x293272, size: 0x8, addend: 0x0, symName: __ZL34ggml_backend_cpu_device_get_memoryP19ggml_backend_devicePmS1_, symObjAddr: 0xA2C, symBinAddr: 0xC3910, symSize: 0x48 }
  - { offset: 0x2932F4, size: 0x8, addend: 0x0, symName: __ZL32ggml_backend_cpu_device_get_typeP19ggml_backend_device, symObjAddr: 0xA74, symBinAddr: 0xC3958, symSize: 0x8 }
  - { offset: 0x293399, size: 0x8, addend: 0x0, symName: __ZL33ggml_backend_cpu_device_get_propsP19ggml_backend_deviceP22ggml_backend_dev_props, symObjAddr: 0xA7C, symBinAddr: 0xC3960, symSize: 0x64 }
  - { offset: 0x29352C, size: 0x8, addend: 0x0, symName: __ZL36ggml_backend_cpu_device_init_backendP19ggml_backend_devicePKc, symObjAddr: 0xAE0, symBinAddr: 0xC39C4, symSize: 0xBC }
  - { offset: 0x2935C3, size: 0x8, addend: 0x0, symName: __ZL39ggml_backend_cpu_device_get_buffer_typeP19ggml_backend_device, symObjAddr: 0xB9C, symBinAddr: 0xC3A80, symSize: 0x4 }
  - { offset: 0x2935F2, size: 0x8, addend: 0x0, symName: __ZL39ggml_backend_cpu_device_get_buffer_typeP19ggml_backend_device, symObjAddr: 0xB9C, symBinAddr: 0xC3A80, symSize: 0x4 }
  - { offset: 0x29360A, size: 0x8, addend: 0x0, symName: __ZL44ggml_backend_cpu_device_buffer_from_host_ptrP19ggml_backend_devicePvmm, symObjAddr: 0xBA0, symBinAddr: 0xC3A84, symSize: 0xC }
  - { offset: 0x29372B, size: 0x8, addend: 0x0, symName: __ZL35ggml_backend_cpu_device_supports_opP19ggml_backend_devicePK11ggml_tensor, symObjAddr: 0xBAC, symBinAddr: 0xC3A90, symSize: 0x42C }
  - { offset: 0x2939B0, size: 0x8, addend: 0x0, symName: __ZL37ggml_backend_cpu_device_supports_buftP19ggml_backend_deviceP24ggml_backend_buffer_type, symObjAddr: 0xFD8, symBinAddr: 0xC3EBC, symSize: 0xD4 }
  - { offset: 0x293AC9, size: 0x8, addend: 0x0, symName: '__ZZL46ggml_backend_cpu_device_get_extra_buffers_typeP19ggml_backend_deviceENK3$_0clEv', symObjAddr: 0x11D4, symBinAddr: 0xC40B8, symSize: 0x1C8 }
  - { offset: 0x294891, size: 0x8, addend: 0x0, symName: __ZNSt3__16vectorI20ggml_backend_featureNS_9allocatorIS1_EEE20__throw_length_errorB8ne200100Ev, symObjAddr: 0x2F34, symBinAddr: 0xC5E18, symSize: 0x14 }
  - { offset: 0x2948A9, size: 0x8, addend: 0x0, symName: __ZL31ggml_backend_cpu_reg_get_deviceP16ggml_backend_regm.cold.1, symObjAddr: 0x2F48, symBinAddr: 0x137A0C, symSize: 0x5C }
  - { offset: 0x2948B4, size: 0x8, addend: 0x0, symName: __ZNSt3__16vectorI20ggml_backend_featureNS_9allocatorIS1_EEED1B8ne200100Ev, symObjAddr: 0x2F00, symBinAddr: 0xC5DE4, symSize: 0x34 }
  - { offset: 0x2948DA, size: 0x8, addend: 0x0, symName: __ZNSt3__16vectorI20ggml_backend_featureNS_9allocatorIS1_EEED1B8ne200100Ev, symObjAddr: 0x2F00, symBinAddr: 0xC5DE4, symSize: 0x34 }
  - { offset: 0x2948FA, size: 0x8, addend: 0x0, symName: __ZNSt3__16vectorI20ggml_backend_featureNS_9allocatorIS1_EEED1B8ne200100Ev, symObjAddr: 0x2F00, symBinAddr: 0xC5DE4, symSize: 0x34 }
  - { offset: 0x2968E9, size: 0x8, addend: 0x0, symName: _ggml_compute_forward_dup, symObjAddr: 0x0, symBinAddr: 0xC5E2C, symSize: 0x5B70 }
  - { offset: 0x296AC1, size: 0x8, addend: 0x0, symName: __ZNSt3__111__introsortINS_17_ClassicAlgPolicyER11argsort_cmpIL15ggml_sort_order0EEPiLb0EEEvT1_S7_T0_NS_15iterator_traitsIS7_E15difference_typeEb, symObjAddr: 0x2E204, symBinAddr: 0xF4030, symSize: 0x8DC }
  - { offset: 0x298648, size: 0x8, addend: 0x0, symName: __ZNSt3__127__insertion_sort_incompleteB8ne200100INS_17_ClassicAlgPolicyER11argsort_cmpIL15ggml_sort_order0EEPiEEbT1_S7_T0_, symObjAddr: 0x2ECAC, symBinAddr: 0xF4AD8, symSize: 0x388 }
  - { offset: 0x298F96, size: 0x8, addend: 0x0, symName: __ZNSt3__111__introsortINS_17_ClassicAlgPolicyER11argsort_cmpIL15ggml_sort_order1EEPiLb0EEEvT1_S7_T0_NS_15iterator_traitsIS7_E15difference_typeEb, symObjAddr: 0x2F3CC, symBinAddr: 0xF51F8, symSize: 0x8DC }
  - { offset: 0x29AB1D, size: 0x8, addend: 0x0, symName: __ZNSt3__127__insertion_sort_incompleteB8ne200100INS_17_ClassicAlgPolicyER11argsort_cmpIL15ggml_sort_order1EEPiEEbT1_S7_T0_, symObjAddr: 0x2FE74, symBinAddr: 0xF5CA0, symSize: 0x388 }
  - { offset: 0x29BDEC, size: 0x8, addend: 0x0, symName: __ZNSt3__17__sort5B8ne200100INS_17_ClassicAlgPolicyER11argsort_cmpIL15ggml_sort_order0EEPiLi0EEEvT1_S7_S7_S7_S7_T0_, symObjAddr: 0x2EAE0, symBinAddr: 0xF490C, symSize: 0x1CC }
  - { offset: 0x29BE5E, size: 0x8, addend: 0x0, symName: __ZNSt3__17__sort5B8ne200100INS_17_ClassicAlgPolicyER11argsort_cmpIL15ggml_sort_order0EEPiLi0EEEvT1_S7_S7_S7_S7_T0_, symObjAddr: 0x2EAE0, symBinAddr: 0xF490C, symSize: 0x1CC }
  - { offset: 0x29C53B, size: 0x8, addend: 0x0, symName: __ZNSt3__119__partial_sort_implB8ne200100INS_17_ClassicAlgPolicyER11argsort_cmpIL15ggml_sort_order0EEPiS6_EET1_S7_S7_T2_OT0_, symObjAddr: 0x2F034, symBinAddr: 0xF4E60, symSize: 0x398 }
  - { offset: 0x29D092, size: 0x8, addend: 0x0, symName: __ZNSt3__17__sort5B8ne200100INS_17_ClassicAlgPolicyER11argsort_cmpIL15ggml_sort_order1EEPiLi0EEEvT1_S7_S7_S7_S7_T0_, symObjAddr: 0x2FCA8, symBinAddr: 0xF5AD4, symSize: 0x1CC }
  - { offset: 0x29D104, size: 0x8, addend: 0x0, symName: __ZNSt3__17__sort5B8ne200100INS_17_ClassicAlgPolicyER11argsort_cmpIL15ggml_sort_order1EEPiLi0EEEvT1_S7_S7_S7_S7_T0_, symObjAddr: 0x2FCA8, symBinAddr: 0xF5AD4, symSize: 0x1CC }
  - { offset: 0x29D7E1, size: 0x8, addend: 0x0, symName: __ZNSt3__119__partial_sort_implB8ne200100INS_17_ClassicAlgPolicyER11argsort_cmpIL15ggml_sort_order1EEPiS6_EET1_S7_S7_T2_OT0_, symObjAddr: 0x301FC, symBinAddr: 0xF6028, symSize: 0x398 }
  - { offset: 0x2A1003, size: 0x8, addend: 0x0, symName: _ggml_compute_forward_dup, symObjAddr: 0x0, symBinAddr: 0xC5E2C, symSize: 0x5B70 }
  - { offset: 0x2A3B27, size: 0x8, addend: 0x0, symName: __ZL28ggml_compute_forward_dup_fltIftEvPK19ggml_compute_paramsP11ggml_tensor, symObjAddr: 0x5B70, symBinAddr: 0xCB99C, symSize: 0x1178 }
  - { offset: 0x2A3BCA, size: 0x8, addend: 0x0, symName: __ZL28ggml_compute_forward_dup_fltIftEvPK19ggml_compute_paramsP11ggml_tensor, symObjAddr: 0x5B70, symBinAddr: 0xCB99C, symSize: 0x1178 }
  - { offset: 0x2A4418, size: 0x8, addend: 0x0, symName: __ZL28ggml_compute_forward_dup_fltIf11ggml_bf16_tEvPK19ggml_compute_paramsP11ggml_tensor, symObjAddr: 0x6CE8, symBinAddr: 0xCCB14, symSize: 0x9C4 }
  - { offset: 0x2A443D, size: 0x8, addend: 0x0, symName: __ZL28ggml_compute_forward_dup_fltIf11ggml_bf16_tEvPK19ggml_compute_paramsP11ggml_tensor, symObjAddr: 0x6CE8, symBinAddr: 0xCCB14, symSize: 0x9C4 }
  - { offset: 0x2A49E8, size: 0x8, addend: 0x0, symName: __ZL28ggml_compute_forward_dup_fltIffEvPK19ggml_compute_paramsP11ggml_tensor, symObjAddr: 0x76AC, symBinAddr: 0xCD4D8, symSize: 0x618 }
  - { offset: 0x2A4AAE, size: 0x8, addend: 0x0, symName: __ZL29ggml_compute_forward_dup_to_qIfEvPK19ggml_compute_paramsP11ggml_tensor, symObjAddr: 0x8784, symBinAddr: 0xCE5B0, symSize: 0x51C }
  - { offset: 0x2A4E32, size: 0x8, addend: 0x0, symName: _ggml_compute_forward_add, symObjAddr: 0x8CA0, symBinAddr: 0xCEACC, symSize: 0x8EC }
  - { offset: 0x2A4E4F, size: 0x8, addend: 0x0, symName: __ZL28ggml_compute_forward_dup_fltIffEvPK19ggml_compute_paramsP11ggml_tensor, symObjAddr: 0x76AC, symBinAddr: 0xCD4D8, symSize: 0x618 }
  - { offset: 0x2A536C, size: 0x8, addend: 0x0, symName: __ZL28ggml_compute_forward_dup_fltIfiEvPK19ggml_compute_paramsP11ggml_tensor, symObjAddr: 0x7CC4, symBinAddr: 0xCDAF0, symSize: 0xAC0 }
  - { offset: 0x2A5391, size: 0x8, addend: 0x0, symName: __ZL28ggml_compute_forward_dup_fltIfiEvPK19ggml_compute_paramsP11ggml_tensor, symObjAddr: 0x7CC4, symBinAddr: 0xCDAF0, symSize: 0xAC0 }
  - { offset: 0x2A58E0, size: 0x8, addend: 0x0, symName: __ZL29ggml_compute_forward_dup_to_qIfEvPK19ggml_compute_paramsP11ggml_tensor, symObjAddr: 0x8784, symBinAddr: 0xCE5B0, symSize: 0x51C }
  - { offset: 0x2A5C31, size: 0x8, addend: 0x0, symName: _ggml_compute_forward_add, symObjAddr: 0x8CA0, symBinAddr: 0xCEACC, symSize: 0x8EC }
  - { offset: 0x2A606B, size: 0x8, addend: 0x0, symName: _ggml_compute_forward_add_id, symObjAddr: 0x958C, symBinAddr: 0xCF3B8, symSize: 0x558 }
  - { offset: 0x2A636D, size: 0x8, addend: 0x0, symName: _ggml_compute_forward_add_id, symObjAddr: 0x958C, symBinAddr: 0xCF3B8, symSize: 0x558 }
  - { offset: 0x2A65FB, size: 0x8, addend: 0x0, symName: _ggml_compute_forward_add1, symObjAddr: 0x9AE4, symBinAddr: 0xCF910, symSize: 0x908 }
  - { offset: 0x2A69ED, size: 0x8, addend: 0x0, symName: _ggml_compute_forward_add1, symObjAddr: 0x9AE4, symBinAddr: 0xCF910, symSize: 0x908 }
  - { offset: 0x2A702B, size: 0x8, addend: 0x0, symName: __ZL33ggml_compute_forward_add1_f16_f16PK19ggml_compute_paramsP11ggml_tensor, symObjAddr: 0xA3EC, symBinAddr: 0xD0218, symSize: 0x4A4 }
  - { offset: 0x2A7052, size: 0x8, addend: 0x0, symName: __ZL35ggml_compute_forward_add1_bf16_bf16PK19ggml_compute_paramsP11ggml_tensor, symObjAddr: 0xAD30, symBinAddr: 0xD0B5C, symSize: 0x3E0 }
  - { offset: 0x2A73C6, size: 0x8, addend: 0x0, symName: __ZL34ggml_compute_forward_add1_bf16_f32PK19ggml_compute_paramsP11ggml_tensor, symObjAddr: 0xB110, symBinAddr: 0xD0F3C, symSize: 0x3E0 }
  - { offset: 0x2A7406, size: 0x8, addend: 0x0, symName: __ZL33ggml_compute_forward_add1_f16_f16PK19ggml_compute_paramsP11ggml_tensor, symObjAddr: 0xA3EC, symBinAddr: 0xD0218, symSize: 0x4A4 }
  - { offset: 0x2A7840, size: 0x8, addend: 0x0, symName: __ZL33ggml_compute_forward_add1_f16_f32PK19ggml_compute_paramsP11ggml_tensor, symObjAddr: 0xA890, symBinAddr: 0xD06BC, symSize: 0x4A0 }
  - { offset: 0x2A7854, size: 0x8, addend: 0x0, symName: __ZL33ggml_compute_forward_add1_f16_f32PK19ggml_compute_paramsP11ggml_tensor, symObjAddr: 0xA890, symBinAddr: 0xD06BC, symSize: 0x4A0 }
  - { offset: 0x2A7C8E, size: 0x8, addend: 0x0, symName: __ZL35ggml_compute_forward_add1_bf16_bf16PK19ggml_compute_paramsP11ggml_tensor, symObjAddr: 0xAD30, symBinAddr: 0xD0B5C, symSize: 0x3E0 }
  - { offset: 0x2A7CA2, size: 0x8, addend: 0x0, symName: __ZL34ggml_compute_forward_add1_bf16_f32PK19ggml_compute_paramsP11ggml_tensor, symObjAddr: 0xB110, symBinAddr: 0xD0F3C, symSize: 0x3E0 }
  - { offset: 0x2A8016, size: 0x8, addend: 0x0, symName: _ggml_compute_forward_acc, symObjAddr: 0xB4F0, symBinAddr: 0xD131C, symSize: 0x374 }
  - { offset: 0x2A81EA, size: 0x8, addend: 0x0, symName: _ggml_compute_forward_acc, symObjAddr: 0xB4F0, symBinAddr: 0xD131C, symSize: 0x374 }
  - { offset: 0x2A84E5, size: 0x8, addend: 0x0, symName: _ggml_compute_forward_sum, symObjAddr: 0xB864, symBinAddr: 0xD1690, symSize: 0x7F4 }
  - { offset: 0x2A88D5, size: 0x8, addend: 0x0, symName: _ggml_compute_forward_sum, symObjAddr: 0xB864, symBinAddr: 0xD1690, symSize: 0x7F4 }
  - { offset: 0x2A8D29, size: 0x8, addend: 0x0, symName: _ggml_compute_forward_cumsum, symObjAddr: 0xC058, symBinAddr: 0xD1E84, symSize: 0x2F0 }
  - { offset: 0x2A8F67, size: 0x8, addend: 0x0, symName: _ggml_compute_forward_cumsum, symObjAddr: 0xC058, symBinAddr: 0xD1E84, symSize: 0x2F0 }
  - { offset: 0x2A91E1, size: 0x8, addend: 0x0, symName: _ggml_compute_forward_sum_rows, symObjAddr: 0xC348, symBinAddr: 0xD2174, symSize: 0x28C }
  - { offset: 0x2A9386, size: 0x8, addend: 0x0, symName: _ggml_compute_forward_sum_rows, symObjAddr: 0xC348, symBinAddr: 0xD2174, symSize: 0x28C }
  - { offset: 0x2A95A3, size: 0x8, addend: 0x0, symName: _ggml_compute_forward_mean, symObjAddr: 0xC5D4, symBinAddr: 0xD2400, symSize: 0x16C }
  - { offset: 0x2A9708, size: 0x8, addend: 0x0, symName: _ggml_compute_forward_mean, symObjAddr: 0xC5D4, symBinAddr: 0xD2400, symSize: 0x16C }
  - { offset: 0x2A984A, size: 0x8, addend: 0x0, symName: _ggml_compute_forward_argmax, symObjAddr: 0xC740, symBinAddr: 0xD256C, symSize: 0x10C }
  - { offset: 0x2A995D, size: 0x8, addend: 0x0, symName: _ggml_compute_forward_argmax, symObjAddr: 0xC740, symBinAddr: 0xD256C, symSize: 0x10C }
  - { offset: 0x2A9A61, size: 0x8, addend: 0x0, symName: _ggml_compute_forward_count_equal, symObjAddr: 0xC84C, symBinAddr: 0xD2678, symSize: 0x44C }
  - { offset: 0x2A9CE7, size: 0x8, addend: 0x0, symName: _ggml_compute_forward_count_equal, symObjAddr: 0xC84C, symBinAddr: 0xD2678, symSize: 0x44C }
  - { offset: 0x2A9F68, size: 0x8, addend: 0x0, symName: _ggml_compute_forward_repeat, symObjAddr: 0xCC98, symBinAddr: 0xD2AC4, symSize: 0xCB0 }
  - { offset: 0x2AA337, size: 0x8, addend: 0x0, symName: _ggml_compute_forward_repeat, symObjAddr: 0xCC98, symBinAddr: 0xD2AC4, symSize: 0xCB0 }
  - { offset: 0x2AA737, size: 0x8, addend: 0x0, symName: _ggml_compute_forward_repeat_back, symObjAddr: 0xD948, symBinAddr: 0xD3774, symSize: 0x81C }
  - { offset: 0x2AA979, size: 0x8, addend: 0x0, symName: _ggml_compute_forward_repeat_back, symObjAddr: 0xD948, symBinAddr: 0xD3774, symSize: 0x81C }
  - { offset: 0x2AAC82, size: 0x8, addend: 0x0, symName: _ggml_compute_forward_concat, symObjAddr: 0xE164, symBinAddr: 0xD3F90, symSize: 0xF8C }
  - { offset: 0x2AB4F3, size: 0x8, addend: 0x0, symName: _ggml_compute_forward_concat, symObjAddr: 0xE164, symBinAddr: 0xD3F90, symSize: 0xF8C }
  - { offset: 0x2ABC5B, size: 0x8, addend: 0x0, symName: _ggml_compute_forward_fill, symObjAddr: 0xF0F0, symBinAddr: 0xD4F1C, symSize: 0x228 }
  - { offset: 0x2ABD8E, size: 0x8, addend: 0x0, symName: _ggml_compute_forward_fill, symObjAddr: 0xF0F0, symBinAddr: 0xD4F1C, symSize: 0x228 }
  - { offset: 0x2AC1D1, size: 0x8, addend: 0x0, symName: _ggml_compute_forward_tri, symObjAddr: 0xF318, symBinAddr: 0xD5144, symSize: 0x1E0 }
  - { offset: 0x2AC3D6, size: 0x8, addend: 0x0, symName: _ggml_compute_forward_leaky_relu, symObjAddr: 0xF4F8, symBinAddr: 0xD5324, symSize: 0x730 }
  - { offset: 0x2AC56E, size: 0x8, addend: 0x0, symName: _ggml_compute_forward_leaky_relu, symObjAddr: 0xF4F8, symBinAddr: 0xD5324, symSize: 0x730 }
  - { offset: 0x2AC822, size: 0x8, addend: 0x0, symName: _ggml_compute_forward_silu_back, symObjAddr: 0xFC28, symBinAddr: 0xD5A54, symSize: 0x720 }
  - { offset: 0x2ACAA9, size: 0x8, addend: 0x0, symName: _ggml_compute_forward_silu_back, symObjAddr: 0xFC28, symBinAddr: 0xD5A54, symSize: 0x720 }
  - { offset: 0x2ACE0B, size: 0x8, addend: 0x0, symName: _ggml_compute_forward_norm, symObjAddr: 0x10348, symBinAddr: 0xD6174, symSize: 0x2A4 }
  - { offset: 0x2ACFFE, size: 0x8, addend: 0x0, symName: _ggml_compute_forward_norm, symObjAddr: 0x10348, symBinAddr: 0xD6174, symSize: 0x2A4 }
  - { offset: 0x2AD2AD, size: 0x8, addend: 0x0, symName: _ggml_compute_forward_rms_norm, symObjAddr: 0x105EC, symBinAddr: 0xD6418, symSize: 0x5F8 }
  - { offset: 0x2AD4DB, size: 0x8, addend: 0x0, symName: _ggml_compute_forward_rms_norm, symObjAddr: 0x105EC, symBinAddr: 0xD6418, symSize: 0x5F8 }
  - { offset: 0x2AD72F, size: 0x8, addend: 0x0, symName: _ggml_compute_forward_rms_norm_back, symObjAddr: 0x10BE4, symBinAddr: 0xD6A10, symSize: 0xA84 }
  - { offset: 0x2AD9B5, size: 0x8, addend: 0x0, symName: _ggml_compute_forward_rms_norm_back, symObjAddr: 0x10BE4, symBinAddr: 0xD6A10, symSize: 0xA84 }
  - { offset: 0x2ADDA3, size: 0x8, addend: 0x0, symName: _ggml_compute_forward_group_norm, symObjAddr: 0x11668, symBinAddr: 0xD7494, symSize: 0xA9C }
  - { offset: 0x2AE07E, size: 0x8, addend: 0x0, symName: _ggml_compute_forward_group_norm, symObjAddr: 0x11668, symBinAddr: 0xD7494, symSize: 0xA9C }
  - { offset: 0x2AE37D, size: 0x8, addend: 0x0, symName: _ggml_compute_forward_l2_norm, symObjAddr: 0x12104, symBinAddr: 0xD7F30, symSize: 0x5CC }
  - { offset: 0x2AE533, size: 0x8, addend: 0x0, symName: _ggml_compute_forward_l2_norm, symObjAddr: 0x12104, symBinAddr: 0xD7F30, symSize: 0x5CC }
  - { offset: 0x2AE77D, size: 0x8, addend: 0x0, symName: _ggml_compute_forward_out_prod, symObjAddr: 0x126D0, symBinAddr: 0xD84FC, symSize: 0x2398 }
  - { offset: 0x2AEFCF, size: 0x8, addend: 0x0, symName: _ggml_compute_forward_out_prod, symObjAddr: 0x126D0, symBinAddr: 0xD84FC, symSize: 0x2398 }
  - { offset: 0x2AF9DF, size: 0x8, addend: 0x0, symName: _ggml_compute_forward_scale, symObjAddr: 0x14A68, symBinAddr: 0xDA894, symSize: 0x20C }
  - { offset: 0x2AFB21, size: 0x8, addend: 0x0, symName: _ggml_compute_forward_scale, symObjAddr: 0x14A68, symBinAddr: 0xDA894, symSize: 0x20C }
  - { offset: 0x2AFD7A, size: 0x8, addend: 0x0, symName: _ggml_compute_forward_set, symObjAddr: 0x14C74, symBinAddr: 0xDAAA0, symSize: 0x760 }
  - { offset: 0x2B0178, size: 0x8, addend: 0x0, symName: _ggml_compute_forward_set, symObjAddr: 0x14C74, symBinAddr: 0xDAAA0, symSize: 0x760 }
  - { offset: 0x2B065E, size: 0x8, addend: 0x0, symName: _ggml_compute_forward_cpy, symObjAddr: 0x153D4, symBinAddr: 0xDB200, symSize: 0x4 }
  - { offset: 0x2B0672, size: 0x8, addend: 0x0, symName: _ggml_compute_forward_cpy, symObjAddr: 0x153D4, symBinAddr: 0xDB200, symSize: 0x4 }
  - { offset: 0x2B06AB, size: 0x8, addend: 0x0, symName: _ggml_compute_forward_cpy, symObjAddr: 0x153D4, symBinAddr: 0xDB200, symSize: 0x4 }
  - { offset: 0x2B06C7, size: 0x8, addend: 0x0, symName: _ggml_compute_forward_cont, symObjAddr: 0x153D8, symBinAddr: 0xDB204, symSize: 0x4 }
  - { offset: 0x2B0700, size: 0x8, addend: 0x0, symName: _ggml_compute_forward_cont, symObjAddr: 0x153D8, symBinAddr: 0xDB204, symSize: 0x4 }
  - { offset: 0x2B0FA2, size: 0x8, addend: 0x0, symName: _ggml_compute_forward_get_rows, symObjAddr: 0x153DC, symBinAddr: 0xDB208, symSize: 0x6F8 }
  - { offset: 0x2B15A2, size: 0x8, addend: 0x0, symName: _ggml_compute_forward_set_rows, symObjAddr: 0x15AD4, symBinAddr: 0xDB900, symSize: 0x408 }
  - { offset: 0x2B1A86, size: 0x8, addend: 0x0, symName: _ggml_compute_forward_set_rows, symObjAddr: 0x15AD4, symBinAddr: 0xDB900, symSize: 0x408 }
  - { offset: 0x2B1E51, size: 0x8, addend: 0x0, symName: _ggml_compute_forward_get_rows_back, symObjAddr: 0x15EDC, symBinAddr: 0xDBD08, symSize: 0x4E0 }
  - { offset: 0x2B1F7B, size: 0x8, addend: 0x0, symName: _ggml_compute_forward_get_rows_back, symObjAddr: 0x15EDC, symBinAddr: 0xDBD08, symSize: 0x4E0 }
  - { offset: 0x2B21E4, size: 0x8, addend: 0x0, symName: _ggml_compute_forward_diag, symObjAddr: 0x163BC, symBinAddr: 0xDC1E8, symSize: 0x3A4 }
  - { offset: 0x2B2369, size: 0x8, addend: 0x0, symName: _ggml_compute_forward_diag, symObjAddr: 0x163BC, symBinAddr: 0xDC1E8, symSize: 0x3A4 }
  - { offset: 0x2B2573, size: 0x8, addend: 0x0, symName: _ggml_compute_forward_diag_mask_inf, symObjAddr: 0x16760, symBinAddr: 0xDC58C, symSize: 0x38 }
  - { offset: 0x2B2587, size: 0x8, addend: 0x0, symName: _ggml_compute_forward_diag_mask_inf, symObjAddr: 0x16760, symBinAddr: 0xDC58C, symSize: 0x38 }
  - { offset: 0x2B25E3, size: 0x8, addend: 0x0, symName: __ZL34ggml_compute_forward_diag_mask_f32PK19ggml_compute_paramsP11ggml_tensorf, symObjAddr: 0x16798, symBinAddr: 0xDC5C4, symSize: 0x238 }
  - { offset: 0x2B25F7, size: 0x8, addend: 0x0, symName: __ZL34ggml_compute_forward_diag_mask_f32PK19ggml_compute_paramsP11ggml_tensorf, symObjAddr: 0x16798, symBinAddr: 0xDC5C4, symSize: 0x238 }
  - { offset: 0x2B2812, size: 0x8, addend: 0x0, symName: _ggml_compute_forward_diag_mask_zero, symObjAddr: 0x169D0, symBinAddr: 0xDC7FC, symSize: 0x34 }
  - { offset: 0x2B2826, size: 0x8, addend: 0x0, symName: _ggml_compute_forward_diag_mask_zero, symObjAddr: 0x169D0, symBinAddr: 0xDC7FC, symSize: 0x34 }
  - { offset: 0x2B2882, size: 0x8, addend: 0x0, symName: _ggml_compute_forward_soft_max, symObjAddr: 0x16A04, symBinAddr: 0xDC830, symSize: 0x668 }
  - { offset: 0x2B2B9E, size: 0x8, addend: 0x0, symName: _ggml_compute_forward_soft_max, symObjAddr: 0x16A04, symBinAddr: 0xDC830, symSize: 0x668 }
  - { offset: 0x2B2F80, size: 0x8, addend: 0x0, symName: _ggml_compute_forward_soft_max_ext_back, symObjAddr: 0x1706C, symBinAddr: 0xDCE98, symSize: 0x4C8 }
  - { offset: 0x2B3118, size: 0x8, addend: 0x0, symName: _ggml_compute_forward_soft_max_ext_back, symObjAddr: 0x1706C, symBinAddr: 0xDCE98, symSize: 0x4C8 }
  - { offset: 0x2B34C0, size: 0x8, addend: 0x0, symName: _ggml_compute_forward_clamp, symObjAddr: 0x17534, symBinAddr: 0xDD360, symSize: 0x63C }
  - { offset: 0x2B36FA, size: 0x8, addend: 0x0, symName: _ggml_compute_forward_clamp, symObjAddr: 0x17534, symBinAddr: 0xDD360, symSize: 0x63C }
  - { offset: 0x2B3A14, size: 0x8, addend: 0x0, symName: _ggml_compute_forward_rope, symObjAddr: 0x17B70, symBinAddr: 0xDD99C, symSize: 0x44 }
  - { offset: 0x2B3A28, size: 0x8, addend: 0x0, symName: _ggml_compute_forward_rope, symObjAddr: 0x17B70, symBinAddr: 0xDD99C, symSize: 0x44 }
  - { offset: 0x2B3AA0, size: 0x8, addend: 0x0, symName: __ZL29ggml_compute_forward_rope_fltItEvPK19ggml_compute_paramsP11ggml_tensorb, symObjAddr: 0x17BB4, symBinAddr: 0xDD9E0, symSize: 0x15DC }
  - { offset: 0x2B3AB4, size: 0x8, addend: 0x0, symName: __ZL29ggml_compute_forward_rope_fltItEvPK19ggml_compute_paramsP11ggml_tensorb, symObjAddr: 0x17BB4, symBinAddr: 0xDD9E0, symSize: 0x15DC }
  - { offset: 0x2B4C96, size: 0x8, addend: 0x0, symName: __ZL29ggml_compute_forward_rope_fltIfEvPK19ggml_compute_paramsP11ggml_tensorb, symObjAddr: 0x19190, symBinAddr: 0xDEFBC, symSize: 0x1340 }
  - { offset: 0x2B4CB3, size: 0x8, addend: 0x0, symName: __ZL29ggml_compute_forward_rope_fltIfEvPK19ggml_compute_paramsP11ggml_tensorb, symObjAddr: 0x19190, symBinAddr: 0xDEFBC, symSize: 0x1340 }
  - { offset: 0x2B572B, size: 0x8, addend: 0x0, symName: _ggml_compute_forward_rope_back, symObjAddr: 0x1A4D0, symBinAddr: 0xE02FC, symSize: 0x44 }
  - { offset: 0x2B5C0A, size: 0x8, addend: 0x0, symName: _ggml_compute_forward_rope_back, symObjAddr: 0x1A4D0, symBinAddr: 0xE02FC, symSize: 0x44 }
  - { offset: 0x2B5C82, size: 0x8, addend: 0x0, symName: _ggml_compute_forward_conv_transpose_1d, symObjAddr: 0x1A514, symBinAddr: 0xE0340, symSize: 0xD9C }
  - { offset: 0x2B62C9, size: 0x8, addend: 0x0, symName: _ggml_compute_forward_conv_transpose_1d, symObjAddr: 0x1A514, symBinAddr: 0xE0340, symSize: 0xD9C }
  - { offset: 0x2B69E6, size: 0x8, addend: 0x0, symName: _ggml_compute_forward_im2col, symObjAddr: 0x1B2B0, symBinAddr: 0xE10DC, symSize: 0x8D4 }
  - { offset: 0x2B7064, size: 0x8, addend: 0x0, symName: _ggml_compute_forward_im2col, symObjAddr: 0x1B2B0, symBinAddr: 0xE10DC, symSize: 0x8D4 }
  - { offset: 0x2B75B6, size: 0x8, addend: 0x0, symName: _ggml_compute_forward_im2col_back_f32, symObjAddr: 0x1BB84, symBinAddr: 0xE19B0, symSize: 0x560 }
  - { offset: 0x2B75CA, size: 0x8, addend: 0x0, symName: _ggml_compute_forward_im2col_back_f32, symObjAddr: 0x1BB84, symBinAddr: 0xE19B0, symSize: 0x560 }
  - { offset: 0x2B7A37, size: 0x8, addend: 0x0, symName: _ggml_compute_forward_im2col_3d, symObjAddr: 0x1C0E4, symBinAddr: 0xE1F10, symSize: 0xAD8 }
  - { offset: 0x2B81C9, size: 0x8, addend: 0x0, symName: _ggml_compute_forward_im2col_3d, symObjAddr: 0x1C0E4, symBinAddr: 0xE1F10, symSize: 0xAD8 }
  - { offset: 0x2B87CA, size: 0x8, addend: 0x0, symName: _ggml_compute_forward_conv_2d, symObjAddr: 0x1CBBC, symBinAddr: 0xE29E8, symSize: 0x9E8 }
  - { offset: 0x2B8BF2, size: 0x8, addend: 0x0, symName: _ggml_compute_forward_conv_2d, symObjAddr: 0x1CBBC, symBinAddr: 0xE29E8, symSize: 0x9E8 }
  - { offset: 0x2B95E3, size: 0x8, addend: 0x0, symName: _ggml_compute_forward_conv_3d, symObjAddr: 0x1D5A4, symBinAddr: 0xE33D0, symSize: 0xCD8 }
  - { offset: 0x2B9B7A, size: 0x8, addend: 0x0, symName: _ggml_compute_forward_conv_transpose_2d, symObjAddr: 0x1E27C, symBinAddr: 0xE40A8, symSize: 0xC90 }
  - { offset: 0x2BA1C0, size: 0x8, addend: 0x0, symName: _ggml_compute_forward_conv_2d_dw, symObjAddr: 0x1EF0C, symBinAddr: 0xE4D38, symSize: 0x7C0 }
  - { offset: 0x2BA5FA, size: 0x8, addend: 0x0, symName: _ggml_compute_forward_conv_2d_dw, symObjAddr: 0x1EF0C, symBinAddr: 0xE4D38, symSize: 0x7C0 }
  - { offset: 0x2BA98D, size: 0x8, addend: 0x0, symName: _ggml_compute_forward_pool_1d, symObjAddr: 0x1F6CC, symBinAddr: 0xE54F8, symSize: 0x5A4 }
  - { offset: 0x2BAA8B, size: 0x8, addend: 0x0, symName: _ggml_compute_forward_pool_1d, symObjAddr: 0x1F6CC, symBinAddr: 0xE54F8, symSize: 0x5A4 }
  - { offset: 0x2BAC1D, size: 0x8, addend: 0x0, symName: _ggml_compute_forward_pool_2d, symObjAddr: 0x1FC70, symBinAddr: 0xE5A9C, symSize: 0x624 }
  - { offset: 0x2BAC31, size: 0x8, addend: 0x0, symName: _ggml_compute_forward_pool_2d, symObjAddr: 0x1FC70, symBinAddr: 0xE5A9C, symSize: 0x624 }
  - { offset: 0x2BAEE3, size: 0x8, addend: 0x0, symName: _ggml_compute_forward_pool_2d_back, symObjAddr: 0x20294, symBinAddr: 0xE60C0, symSize: 0x4F0 }
  - { offset: 0x2BAEF7, size: 0x8, addend: 0x0, symName: _ggml_compute_forward_pool_2d_back, symObjAddr: 0x20294, symBinAddr: 0xE60C0, symSize: 0x4F0 }
  - { offset: 0x2BB3F3, size: 0x8, addend: 0x0, symName: _ggml_compute_forward_upscale, symObjAddr: 0x20784, symBinAddr: 0xE65B0, symSize: 0x74C }
  - { offset: 0x2BBBA6, size: 0x8, addend: 0x0, symName: _ggml_compute_forward_upscale, symObjAddr: 0x20784, symBinAddr: 0xE65B0, symSize: 0x74C }
  - { offset: 0x2BC6E3, size: 0x8, addend: 0x0, symName: _ggml_compute_forward_pad, symObjAddr: 0x20ED0, symBinAddr: 0xE6CFC, symSize: 0x62C }
  - { offset: 0x2BC8F7, size: 0x8, addend: 0x0, symName: _ggml_compute_forward_pad, symObjAddr: 0x20ED0, symBinAddr: 0xE6CFC, symSize: 0x62C }
  - { offset: 0x2BCA45, size: 0x8, addend: 0x0, symName: _ggml_compute_forward_pad_reflect_1d, symObjAddr: 0x214FC, symBinAddr: 0xE7328, symSize: 0xFB4 }
  - { offset: 0x2BCA59, size: 0x8, addend: 0x0, symName: _ggml_compute_forward_pad_reflect_1d, symObjAddr: 0x214FC, symBinAddr: 0xE7328, symSize: 0xFB4 }
  - { offset: 0x2BCCB8, size: 0x8, addend: 0x0, symName: _ggml_compute_forward_roll, symObjAddr: 0x224B0, symBinAddr: 0xE82DC, symSize: 0x350 }
  - { offset: 0x2BCF12, size: 0x8, addend: 0x0, symName: _ggml_compute_forward_roll, symObjAddr: 0x224B0, symBinAddr: 0xE82DC, symSize: 0x350 }
  - { offset: 0x2BD212, size: 0x8, addend: 0x0, symName: _ggml_compute_forward_arange, symObjAddr: 0x22800, symBinAddr: 0xE862C, symSize: 0x1D4 }
  - { offset: 0x2BD2BB, size: 0x8, addend: 0x0, symName: _ggml_compute_forward_arange, symObjAddr: 0x22800, symBinAddr: 0xE862C, symSize: 0x1D4 }
  - { offset: 0x2BD3FD, size: 0x8, addend: 0x0, symName: _ggml_compute_forward_timestep_embedding, symObjAddr: 0x229D4, symBinAddr: 0xE8800, symSize: 0x56C }
  - { offset: 0x2BD5B0, size: 0x8, addend: 0x0, symName: _ggml_compute_forward_timestep_embedding, symObjAddr: 0x229D4, symBinAddr: 0xE8800, symSize: 0x56C }
  - { offset: 0x2BD6F2, size: 0x8, addend: 0x0, symName: _ggml_compute_forward_argsort, symObjAddr: 0x22F40, symBinAddr: 0xE8D6C, symSize: 0x3E8 }
  - { offset: 0x2BD887, size: 0x8, addend: 0x0, symName: _ggml_compute_forward_argsort, symObjAddr: 0x22F40, symBinAddr: 0xE8D6C, symSize: 0x3E8 }
  - { offset: 0x2BDB61, size: 0x8, addend: 0x0, symName: _ggml_compute_forward_flash_attn_ext, symObjAddr: 0x23328, symBinAddr: 0xE9154, symSize: 0x14AC }
  - { offset: 0x2BE487, size: 0x8, addend: 0x0, symName: _ggml_compute_forward_flash_attn_ext, symObjAddr: 0x23328, symBinAddr: 0xE9154, symSize: 0x14AC }
  - { offset: 0x2BF3BF, size: 0x8, addend: 0x0, symName: _ggml_compute_forward_flash_attn_back, symObjAddr: 0x247D4, symBinAddr: 0xEA600, symSize: 0x1130 }
  - { offset: 0x2BF9DA, size: 0x8, addend: 0x0, symName: _ggml_compute_forward_flash_attn_back, symObjAddr: 0x247D4, symBinAddr: 0xEA600, symSize: 0x1130 }
  - { offset: 0x2C0676, size: 0x8, addend: 0x0, symName: _ggml_compute_forward_ssm_conv, symObjAddr: 0x25904, symBinAddr: 0xEB730, symSize: 0x468 }
  - { offset: 0x2C07D4, size: 0x8, addend: 0x0, symName: _ggml_compute_forward_ssm_conv, symObjAddr: 0x25904, symBinAddr: 0xEB730, symSize: 0x468 }
  - { offset: 0x2C0982, size: 0x8, addend: 0x0, symName: _ggml_compute_forward_ssm_scan, symObjAddr: 0x25D6C, symBinAddr: 0xEBB98, symSize: 0x10A0 }
  - { offset: 0x2C0DB6, size: 0x8, addend: 0x0, symName: _ggml_compute_forward_ssm_scan, symObjAddr: 0x25D6C, symBinAddr: 0xEBB98, symSize: 0x10A0 }
  - { offset: 0x2C1266, size: 0x8, addend: 0x0, symName: _ggml_compute_forward_win_part, symObjAddr: 0x26E0C, symBinAddr: 0xECC38, symSize: 0x628 }
  - { offset: 0x2C13E1, size: 0x8, addend: 0x0, symName: _ggml_compute_forward_win_part, symObjAddr: 0x26E0C, symBinAddr: 0xECC38, symSize: 0x628 }
  - { offset: 0x2C151F, size: 0x8, addend: 0x0, symName: _ggml_compute_forward_win_unpart, symObjAddr: 0x27434, symBinAddr: 0xED260, symSize: 0x28C }
  - { offset: 0x2C1684, size: 0x8, addend: 0x0, symName: _ggml_compute_forward_win_unpart, symObjAddr: 0x27434, symBinAddr: 0xED260, symSize: 0x28C }
  - { offset: 0x2C17AD, size: 0x8, addend: 0x0, symName: _ggml_compute_forward_unary, symObjAddr: 0x276C0, symBinAddr: 0xED4EC, symSize: 0x1180 }
  - { offset: 0x2C200E, size: 0x8, addend: 0x0, symName: _ggml_compute_forward_unary, symObjAddr: 0x276C0, symBinAddr: 0xED4EC, symSize: 0x1180 }
  - { offset: 0x2C2E49, size: 0x8, addend: 0x0, symName: _ggml_compute_forward_glu, symObjAddr: 0x28840, symBinAddr: 0xEE66C, symSize: 0x2378 }
  - { offset: 0x2C407A, size: 0x8, addend: 0x0, symName: _ggml_compute_forward_glu, symObjAddr: 0x28840, symBinAddr: 0xEE66C, symSize: 0x2378 }
  - { offset: 0x2C61EA, size: 0x8, addend: 0x0, symName: _ggml_compute_forward_get_rel_pos, symObjAddr: 0x2ABB8, symBinAddr: 0xF09E4, symSize: 0x300 }
  - { offset: 0x2C63AC, size: 0x8, addend: 0x0, symName: _ggml_compute_forward_get_rel_pos, symObjAddr: 0x2ABB8, symBinAddr: 0xF09E4, symSize: 0x300 }
  - { offset: 0x2C64A7, size: 0x8, addend: 0x0, symName: _ggml_compute_forward_add_rel_pos, symObjAddr: 0x2AEB8, symBinAddr: 0xF0CE4, symSize: 0x1B8 }
  - { offset: 0x2C6663, size: 0x8, addend: 0x0, symName: _ggml_compute_forward_add_rel_pos, symObjAddr: 0x2AEB8, symBinAddr: 0xF0CE4, symSize: 0x1B8 }
  - { offset: 0x2C6847, size: 0x8, addend: 0x0, symName: _ggml_compute_forward_rwkv_wkv6, symObjAddr: 0x2B070, symBinAddr: 0xF0E9C, symSize: 0xB70 }
  - { offset: 0x2C6BEF, size: 0x8, addend: 0x0, symName: _ggml_compute_forward_rwkv_wkv6, symObjAddr: 0x2B070, symBinAddr: 0xF0E9C, symSize: 0xB70 }
  - { offset: 0x2C6EC6, size: 0x8, addend: 0x0, symName: _ggml_compute_forward_gla, symObjAddr: 0x2BBE0, symBinAddr: 0xF1A0C, symSize: 0xC3C }
  - { offset: 0x2C723A, size: 0x8, addend: 0x0, symName: _ggml_compute_forward_gla, symObjAddr: 0x2BBE0, symBinAddr: 0xF1A0C, symSize: 0xC3C }
  - { offset: 0x2C7504, size: 0x8, addend: 0x0, symName: _ggml_compute_forward_solve_tri, symObjAddr: 0x2C81C, symBinAddr: 0xF2648, symSize: 0x3CC }
  - { offset: 0x2C77BE, size: 0x8, addend: 0x0, symName: _ggml_compute_forward_solve_tri, symObjAddr: 0x2C81C, symBinAddr: 0xF2648, symSize: 0x3CC }
  - { offset: 0x2C7A9C, size: 0x8, addend: 0x0, symName: _ggml_compute_forward_rwkv_wkv7, symObjAddr: 0x2CBE8, symBinAddr: 0xF2A14, symSize: 0x430 }
  - { offset: 0x2C7EED, size: 0x8, addend: 0x0, symName: _ggml_compute_forward_rwkv_wkv7, symObjAddr: 0x2CBE8, symBinAddr: 0xF2A14, symSize: 0x430 }
  - { offset: 0x2C827D, size: 0x8, addend: 0x0, symName: _ggml_compute_forward_map_custom1, symObjAddr: 0x2D018, symBinAddr: 0xF2E44, symSize: 0x1C }
  - { offset: 0x2C8291, size: 0x8, addend: 0x0, symName: _ggml_compute_forward_map_custom1, symObjAddr: 0x2D018, symBinAddr: 0xF2E44, symSize: 0x1C }
  - { offset: 0x2C8302, size: 0x8, addend: 0x0, symName: _ggml_compute_forward_map_custom2, symObjAddr: 0x2D034, symBinAddr: 0xF2E60, symSize: 0x20 }
  - { offset: 0x2C8384, size: 0x8, addend: 0x0, symName: _ggml_compute_forward_map_custom3, symObjAddr: 0x2D054, symBinAddr: 0xF2E80, symSize: 0x20 }
  - { offset: 0x2C8417, size: 0x8, addend: 0x0, symName: _ggml_compute_forward_custom, symObjAddr: 0x2D074, symBinAddr: 0xF2EA0, symSize: 0x18 }
  - { offset: 0x2C85EC, size: 0x8, addend: 0x0, symName: _ggml_compute_forward_cross_entropy_loss, symObjAddr: 0x2D08C, symBinAddr: 0xF2EB8, symSize: 0x4D4 }
  - { offset: 0x2C8A35, size: 0x8, addend: 0x0, symName: _ggml_compute_forward_cross_entropy_loss_back, symObjAddr: 0x2D560, symBinAddr: 0xF338C, symSize: 0x43C }
  - { offset: 0x2C8BBD, size: 0x8, addend: 0x0, symName: _ggml_compute_forward_cross_entropy_loss_back, symObjAddr: 0x2D560, symBinAddr: 0xF338C, symSize: 0x43C }
  - { offset: 0x2C9052, size: 0x8, addend: 0x0, symName: _ggml_compute_forward_opt_step_adamw, symObjAddr: 0x2D99C, symBinAddr: 0xF37C8, symSize: 0x3E8 }
  - { offset: 0x2C9309, size: 0x8, addend: 0x0, symName: _ggml_compute_forward_opt_step_adamw, symObjAddr: 0x2D99C, symBinAddr: 0xF37C8, symSize: 0x3E8 }
  - { offset: 0x2C95EA, size: 0x8, addend: 0x0, symName: _ggml_compute_forward_opt_step_sgd, symObjAddr: 0x2DD84, symBinAddr: 0xF3BB0, symSize: 0x450 }
  - { offset: 0x2C9815, size: 0x8, addend: 0x0, symName: _ggml_compute_forward_opt_step_sgd, symObjAddr: 0x2DD84, symBinAddr: 0xF3BB0, symSize: 0x450 }
  - { offset: 0x2C9A4B, size: 0x8, addend: 0x0, symName: '__ZZL28ggml_compute_forward_tri_f32PK19ggml_compute_paramsP11ggml_tensorEN3$_08__invokeEii', symObjAddr: 0x2E1D4, symBinAddr: 0xF4000, symSize: 0xC }
  - { offset: 0x2C9AA2, size: 0x8, addend: 0x0, symName: '__ZZL28ggml_compute_forward_tri_f32PK19ggml_compute_paramsP11ggml_tensorEN3$_08__invokeEii', symObjAddr: 0x2E1D4, symBinAddr: 0xF4000, symSize: 0xC }
  - { offset: 0x2C9ADB, size: 0x8, addend: 0x0, symName: '__ZZL28ggml_compute_forward_tri_f32PK19ggml_compute_paramsP11ggml_tensorEN3$_08__invokeEii', symObjAddr: 0x2E1D4, symBinAddr: 0xF4000, symSize: 0xC }
  - { offset: 0x2C9B42, size: 0x8, addend: 0x0, symName: '__ZZL28ggml_compute_forward_tri_f32PK19ggml_compute_paramsP11ggml_tensorEN3$_18__invokeEii', symObjAddr: 0x2E1E0, symBinAddr: 0xF400C, symSize: 0xC }
  - { offset: 0x2C9B7B, size: 0x8, addend: 0x0, symName: '__ZZL28ggml_compute_forward_tri_f32PK19ggml_compute_paramsP11ggml_tensorEN3$_18__invokeEii', symObjAddr: 0x2E1E0, symBinAddr: 0xF400C, symSize: 0xC }
  - { offset: 0x2C9BE2, size: 0x8, addend: 0x0, symName: '__ZZL28ggml_compute_forward_tri_f32PK19ggml_compute_paramsP11ggml_tensorEN3$_28__invokeEii', symObjAddr: 0x2E1EC, symBinAddr: 0xF4018, symSize: 0xC }
  - { offset: 0x2C9C1B, size: 0x8, addend: 0x0, symName: '__ZZL28ggml_compute_forward_tri_f32PK19ggml_compute_paramsP11ggml_tensorEN3$_28__invokeEii', symObjAddr: 0x2E1EC, symBinAddr: 0xF4018, symSize: 0xC }
  - { offset: 0x2C9C82, size: 0x8, addend: 0x0, symName: '__ZZL28ggml_compute_forward_tri_f32PK19ggml_compute_paramsP11ggml_tensorEN3$_38__invokeEii', symObjAddr: 0x2E1F8, symBinAddr: 0xF4024, symSize: 0xC }
  - { offset: 0x2C9CBB, size: 0x8, addend: 0x0, symName: '__ZZL28ggml_compute_forward_tri_f32PK19ggml_compute_paramsP11ggml_tensorEN3$_38__invokeEii', symObjAddr: 0x2E1F8, symBinAddr: 0xF4024, symSize: 0xC }
  - { offset: 0x2CBE1F, size: 0x8, addend: 0x0, symName: _quantize_row_q4_0, symObjAddr: 0x0, symBinAddr: 0xF63C0, symSize: 0x4 }
  - { offset: 0x2CBE2D, size: 0x8, addend: 0x0, symName: _ggml_vec_dot_q4_K_q8_K_generic, symObjAddr: 0x228C, symBinAddr: 0xF864C, symSize: 0x768 }
  - { offset: 0x2CC201, size: 0x8, addend: 0x0, symName: _ggml_vec_dot_q5_K_q8_K_generic, symObjAddr: 0x29F4, symBinAddr: 0xF8DB4, symSize: 0x814 }
  - { offset: 0x2CC60D, size: 0x8, addend: 0x0, symName: _kvalues_mxfp4, symObjAddr: 0x5BD0, symBinAddr: 0x152DA8, symSize: 0x0 }
  - { offset: 0x2CC652, size: 0x8, addend: 0x0, symName: _iq2xxs_grid, symObjAddr: 0x5BE0, symBinAddr: 0x152DB8, symSize: 0x0 }
  - { offset: 0x2CC691, size: 0x8, addend: 0x0, symName: _ksigns_iq2xs, symObjAddr: 0x63E0, symBinAddr: 0x1535B8, symSize: 0x0 }
  - { offset: 0x2CC6CF, size: 0x8, addend: 0x0, symName: _iq2xs_grid, symObjAddr: 0x6460, symBinAddr: 0x153638, symSize: 0x0 }
  - { offset: 0x2CC6F5, size: 0x8, addend: 0x0, symName: _iq2s_grid, symObjAddr: 0x7460, symBinAddr: 0x154638, symSize: 0x0 }
  - { offset: 0x2CC71B, size: 0x8, addend: 0x0, symName: _iq3xxs_grid, symObjAddr: 0x9460, symBinAddr: 0x156638, symSize: 0x0 }
  - { offset: 0x2CC741, size: 0x8, addend: 0x0, symName: _iq3s_grid, symObjAddr: 0x9860, symBinAddr: 0x156A38, symSize: 0x0 }
  - { offset: 0x2CC767, size: 0x8, addend: 0x0, symName: _iq1s_grid, symObjAddr: 0xA060, symBinAddr: 0x157238, symSize: 0x0 }
  - { offset: 0x2CC78D, size: 0x8, addend: 0x0, symName: _kvalues_iq4nl, symObjAddr: 0xE060, symBinAddr: 0x15B238, symSize: 0x0 }
  - { offset: 0x2CC7C9, size: 0x8, addend: 0x0, symName: _quantize_row_q4_0, symObjAddr: 0x0, symBinAddr: 0xF63C0, symSize: 0x4 }
  - { offset: 0x2CC80D, size: 0x8, addend: 0x0, symName: _quantize_row_q4_0, symObjAddr: 0x0, symBinAddr: 0xF63C0, symSize: 0x4 }
  - { offset: 0x2CC8C3, size: 0x8, addend: 0x0, symName: _quantize_row_q4_1, symObjAddr: 0x4, symBinAddr: 0xF63C4, symSize: 0x4 }
  - { offset: 0x2CC907, size: 0x8, addend: 0x0, symName: _quantize_row_q4_1, symObjAddr: 0x4, symBinAddr: 0xF63C4, symSize: 0x4 }
  - { offset: 0x2CC9C2, size: 0x8, addend: 0x0, symName: _quantize_row_q5_0, symObjAddr: 0x8, symBinAddr: 0xF63C8, symSize: 0x4 }
  - { offset: 0x2CCA06, size: 0x8, addend: 0x0, symName: _quantize_row_q5_0, symObjAddr: 0x8, symBinAddr: 0xF63C8, symSize: 0x4 }
  - { offset: 0x2CCA98, size: 0x8, addend: 0x0, symName: _quantize_row_q5_1, symObjAddr: 0xC, symBinAddr: 0xF63CC, symSize: 0x4 }
  - { offset: 0x2CCADC, size: 0x8, addend: 0x0, symName: _quantize_row_q5_1, symObjAddr: 0xC, symBinAddr: 0xF63CC, symSize: 0x4 }
  - { offset: 0x2CCB98, size: 0x8, addend: 0x0, symName: _quantize_row_q8_0_generic, symObjAddr: 0x10, symBinAddr: 0xF63D0, symSize: 0x4 }
  - { offset: 0x2CCBDC, size: 0x8, addend: 0x0, symName: _quantize_row_q8_0_generic, symObjAddr: 0x10, symBinAddr: 0xF63D0, symSize: 0x4 }
  - { offset: 0x2CCC61, size: 0x8, addend: 0x0, symName: _quantize_row_q8_1_generic, symObjAddr: 0x14, symBinAddr: 0xF63D4, symSize: 0x4 }
  - { offset: 0x2CCCA5, size: 0x8, addend: 0x0, symName: _quantize_row_q8_1_generic, symObjAddr: 0x14, symBinAddr: 0xF63D4, symSize: 0x4 }
  - { offset: 0x2CCD54, size: 0x8, addend: 0x0, symName: _quantize_row_mxfp4, symObjAddr: 0x18, symBinAddr: 0xF63D8, symSize: 0x4 }
  - { offset: 0x2CCD98, size: 0x8, addend: 0x0, symName: _quantize_row_mxfp4, symObjAddr: 0x18, symBinAddr: 0xF63D8, symSize: 0x4 }
  - { offset: 0x2CCE0F, size: 0x8, addend: 0x0, symName: _quantize_row_q2_K, symObjAddr: 0x1C, symBinAddr: 0xF63DC, symSize: 0x4 }
  - { offset: 0x2CCE53, size: 0x8, addend: 0x0, symName: _quantize_row_q2_K, symObjAddr: 0x1C, symBinAddr: 0xF63DC, symSize: 0x4 }
  - { offset: 0x2CCF28, size: 0x8, addend: 0x0, symName: _quantize_row_q3_K, symObjAddr: 0x20, symBinAddr: 0xF63E0, symSize: 0x4 }
  - { offset: 0x2CCF6C, size: 0x8, addend: 0x0, symName: _quantize_row_q3_K, symObjAddr: 0x20, symBinAddr: 0xF63E0, symSize: 0x4 }
  - { offset: 0x2CD01F, size: 0x8, addend: 0x0, symName: _quantize_row_q4_K, symObjAddr: 0x24, symBinAddr: 0xF63E4, symSize: 0x4 }
  - { offset: 0x2CD071, size: 0x8, addend: 0x0, symName: _quantize_row_q4_K, symObjAddr: 0x24, symBinAddr: 0xF63E4, symSize: 0x4 }
  - { offset: 0x2CD146, size: 0x8, addend: 0x0, symName: _quantize_row_q5_K, symObjAddr: 0x28, symBinAddr: 0xF63E8, symSize: 0x4 }
  - { offset: 0x2CD198, size: 0x8, addend: 0x0, symName: _quantize_row_q5_K, symObjAddr: 0x28, symBinAddr: 0xF63E8, symSize: 0x4 }
  - { offset: 0x2CD26D, size: 0x8, addend: 0x0, symName: _quantize_row_q6_K, symObjAddr: 0x2C, symBinAddr: 0xF63EC, symSize: 0x4 }
  - { offset: 0x2CD2BF, size: 0x8, addend: 0x0, symName: _quantize_row_q6_K, symObjAddr: 0x2C, symBinAddr: 0xF63EC, symSize: 0x4 }
  - { offset: 0x2CD364, size: 0x8, addend: 0x0, symName: _quantize_row_tq1_0, symObjAddr: 0x30, symBinAddr: 0xF63F0, symSize: 0x4 }
  - { offset: 0x2CD3B6, size: 0x8, addend: 0x0, symName: _quantize_row_tq1_0, symObjAddr: 0x30, symBinAddr: 0xF63F0, symSize: 0x4 }
  - { offset: 0x2CD448, size: 0x8, addend: 0x0, symName: _quantize_row_tq2_0, symObjAddr: 0x34, symBinAddr: 0xF63F4, symSize: 0x4 }
  - { offset: 0x2CD49A, size: 0x8, addend: 0x0, symName: _quantize_row_tq2_0, symObjAddr: 0x34, symBinAddr: 0xF63F4, symSize: 0x4 }
  - { offset: 0x2CD511, size: 0x8, addend: 0x0, symName: _quantize_row_q8_K_generic, symObjAddr: 0x38, symBinAddr: 0xF63F8, symSize: 0x4 }
  - { offset: 0x2CD555, size: 0x8, addend: 0x0, symName: _quantize_row_q8_K_generic, symObjAddr: 0x38, symBinAddr: 0xF63F8, symSize: 0x4 }
  - { offset: 0x2CD64A, size: 0x8, addend: 0x0, symName: _ggml_vec_dot_q4_0_q8_0_generic, symObjAddr: 0x3C, symBinAddr: 0xF63FC, symSize: 0xC0 }
  - { offset: 0x2CD7E1, size: 0x8, addend: 0x0, symName: _ggml_vec_dot_q4_1_q8_1_generic, symObjAddr: 0xFC, symBinAddr: 0xF64BC, symSize: 0xC4 }
  - { offset: 0x2CD9EC, size: 0x8, addend: 0x0, symName: _ggml_vec_dot_mxfp4_q8_0_generic, symObjAddr: 0x1C0, symBinAddr: 0xF6580, symSize: 0x2B0 }
  - { offset: 0x2CDB5A, size: 0x8, addend: 0x0, symName: _ggml_vec_dot_q5_0_q8_0_generic, symObjAddr: 0x470, symBinAddr: 0xF6830, symSize: 0x228 }
  - { offset: 0x2CDD1E, size: 0x8, addend: 0x0, symName: _ggml_vec_dot_q5_1_q8_1_generic, symObjAddr: 0x698, symBinAddr: 0xF6A58, symSize: 0x1C0 }
  - { offset: 0x2CDF36, size: 0x8, addend: 0x0, symName: _ggml_vec_dot_q8_0_q8_0_generic, symObjAddr: 0x858, symBinAddr: 0xF6C18, symSize: 0x84 }
  - { offset: 0x2CE0A1, size: 0x8, addend: 0x0, symName: _ggml_vec_dot_tq1_0_q8_K_generic, symObjAddr: 0x8DC, symBinAddr: 0xF6C9C, symSize: 0x624 }
  - { offset: 0x2CE2EB, size: 0x8, addend: 0x0, symName: _ggml_vec_dot_tq2_0_q8_K_generic, symObjAddr: 0xF00, symBinAddr: 0xF72C0, symSize: 0x5E8 }
  - { offset: 0x2CE469, size: 0x8, addend: 0x0, symName: _ggml_vec_dot_q2_K_q8_K_generic, symObjAddr: 0x14E8, symBinAddr: 0xF78A8, symSize: 0xAB8 }
  - { offset: 0x2CE6D4, size: 0x8, addend: 0x0, symName: _ggml_vec_dot_q3_K_q8_K_generic, symObjAddr: 0x1FA0, symBinAddr: 0xF8360, symSize: 0x2EC }
  - { offset: 0x2CEA76, size: 0x8, addend: 0x0, symName: _ggml_vec_dot_q6_K_q8_K_generic, symObjAddr: 0x3208, symBinAddr: 0xF95C8, symSize: 0x2A8 }
  - { offset: 0x2CED51, size: 0x8, addend: 0x0, symName: _ggml_vec_dot_iq2_xxs_q8_K_generic, symObjAddr: 0x34B0, symBinAddr: 0xF9870, symSize: 0x388 }
  - { offset: 0x2CEF8E, size: 0x8, addend: 0x0, symName: _ggml_vec_dot_iq2_xs_q8_K_generic, symObjAddr: 0x3838, symBinAddr: 0xF9BF8, symSize: 0x3B0 }
  - { offset: 0x2CF204, size: 0x8, addend: 0x0, symName: _ggml_vec_dot_iq2_s_q8_K_generic, symObjAddr: 0x3BE8, symBinAddr: 0xF9FA8, symSize: 0x3C4 }
  - { offset: 0x2CF48A, size: 0x8, addend: 0x0, symName: _ggml_vec_dot_iq3_xxs_q8_K_generic, symObjAddr: 0x3FAC, symBinAddr: 0xFA36C, symSize: 0x42C }
  - { offset: 0x2CF6BE, size: 0x8, addend: 0x0, symName: _ggml_vec_dot_iq3_s_q8_K_generic, symObjAddr: 0x43D8, symBinAddr: 0xFA798, symSize: 0x81C }
  - { offset: 0x2CF94F, size: 0x8, addend: 0x0, symName: _ggml_vec_dot_iq1_s_q8_K_generic, symObjAddr: 0x4BF4, symBinAddr: 0xFAFB4, symSize: 0x1B4 }
  - { offset: 0x2CFB65, size: 0x8, addend: 0x0, symName: _ggml_vec_dot_iq1_m_q8_K_generic, symObjAddr: 0x4DA8, symBinAddr: 0xFB168, symSize: 0x308 }
  - { offset: 0x2CFDE8, size: 0x8, addend: 0x0, symName: _ggml_vec_dot_iq4_nl_q8_0_generic, symObjAddr: 0x50B0, symBinAddr: 0xFB470, symSize: 0x298 }
  - { offset: 0x2CFF6D, size: 0x8, addend: 0x0, symName: _ggml_vec_dot_iq4_xs_q8_K_generic, symObjAddr: 0x5348, symBinAddr: 0xFB708, symSize: 0x5F4 }
  - { offset: 0x2D0199, size: 0x8, addend: 0x0, symName: _quantize_row_iq4_nl, symObjAddr: 0x593C, symBinAddr: 0xFBCFC, symSize: 0x4 }
  - { offset: 0x2D01E1, size: 0x8, addend: 0x0, symName: _quantize_row_iq4_nl, symObjAddr: 0x593C, symBinAddr: 0xFBCFC, symSize: 0x4 }
  - { offset: 0x2D025C, size: 0x8, addend: 0x0, symName: _quantize_row_iq4_xs, symObjAddr: 0x5940, symBinAddr: 0xFBD00, symSize: 0x10 }
  - { offset: 0x2D082D, size: 0x8, addend: 0x0, symName: _ggml_quantize_mat_q8_0_4x4_generic, symObjAddr: 0x0, symBinAddr: 0xFBD10, symSize: 0x378 }
  - { offset: 0x2D083B, size: 0x8, addend: 0x0, symName: _ggml_gemv_q4_K_8x8_q8_K, symObjAddr: 0x139C, symBinAddr: 0xFD0AC, symSize: 0x7D0 }
  - { offset: 0x2D0B98, size: 0x8, addend: 0x0, symName: _ggml_gemm_q4_K_8x8_q8_K, symObjAddr: 0x49E0, symBinAddr: 0x1006F0, symSize: 0x910 }
  - { offset: 0x2D0FBA, size: 0x8, addend: 0x0, symName: __Z35ggml_backend_cpu_repack_buffer_typev, symObjAddr: 0x8884, symBinAddr: 0x104594, symSize: 0xD4 }
  - { offset: 0x2D0FE6, size: 0x8, addend: 0x0, symName: __MergedGlobals.39, symObjAddr: 0x579B8, symBinAddr: 0x1FDB68, symSize: 0x0 }
  - { offset: 0x2D10C6, size: 0x8, addend: 0x0, symName: __ZL13kvalues_iq4nl, symObjAddr: 0x11658, symBinAddr: 0x15B358, symSize: 0x0 }
  - { offset: 0x2D10EE, size: 0x8, addend: 0x0, symName: __ZL35ggml_repack_get_optimal_repack_typePK11ggml_tensor, symObjAddr: 0x8ABC, symBinAddr: 0x1047CC, symSize: 0x29C }
  - { offset: 0x2D111A, size: 0x8, addend: 0x0, symName: __MergedGlobals, symObjAddr: 0x11F68, symBinAddr: 0x1749A8, symSize: 0x0 }
  - { offset: 0x2D1131, size: 0x8, addend: 0x0, symName: __MergedGlobals, symObjAddr: 0x11F68, symBinAddr: 0x1749A8, symSize: 0x0 }
  - { offset: 0x2D114A, size: 0x8, addend: 0x0, symName: __MergedGlobals, symObjAddr: 0x11F68, symBinAddr: 0x1749A8, symSize: 0x0 }
  - { offset: 0x2D1163, size: 0x8, addend: 0x0, symName: __MergedGlobals, symObjAddr: 0x11F68, symBinAddr: 0x1749A8, symSize: 0x0 }
  - { offset: 0x2D117C, size: 0x8, addend: 0x0, symName: __MergedGlobals, symObjAddr: 0x11F68, symBinAddr: 0x1749A8, symSize: 0x0 }
  - { offset: 0x2D1195, size: 0x8, addend: 0x0, symName: __MergedGlobals, symObjAddr: 0x11F68, symBinAddr: 0x1749A8, symSize: 0x0 }
  - { offset: 0x2D11AE, size: 0x8, addend: 0x0, symName: __MergedGlobals, symObjAddr: 0x11F68, symBinAddr: 0x1749A8, symSize: 0x0 }
  - { offset: 0x2D1C02, size: 0x8, addend: 0x0, symName: __ZN4ggml3cpu6repack6repackI10block_q4_0Lx4ELx4EEEiP11ggml_tensorPKvm, symObjAddr: 0x7048, symBinAddr: 0x102D58, symSize: 0x10 }
  - { offset: 0x2D1C60, size: 0x8, addend: 0x0, symName: __ZN4ggml3cpu6repack6repackI10block_q4_0Lx8ELx4EEEiP11ggml_tensorPKvm, symObjAddr: 0x743C, symBinAddr: 0x10314C, symSize: 0x10 }
  - { offset: 0x2D1CBE, size: 0x8, addend: 0x0, symName: __ZN4ggml3cpu6repack6repackI10block_q4_0Lx8ELx8EEEiP11ggml_tensorPKvm, symObjAddr: 0x744C, symBinAddr: 0x10315C, symSize: 0x294 }
  - { offset: 0x2D1E25, size: 0x8, addend: 0x0, symName: __ZN4ggml3cpu6repack6repackI10block_q4_KLx8ELx8EEEiP11ggml_tensorPKvm, symObjAddr: 0x76E0, symBinAddr: 0x1033F0, symSize: 0x914 }
  - { offset: 0x2D1E56, size: 0x8, addend: 0x0, symName: __ZN4ggml3cpu6repack6repackI10block_q4_KLx8ELx8EEEiP11ggml_tensorPKvm, symObjAddr: 0x76E0, symBinAddr: 0x1033F0, symSize: 0x914 }
  - { offset: 0x2D203C, size: 0x8, addend: 0x0, symName: __ZN4ggml3cpu6repack6repackI10block_q2_KLx8ELx8EEEiP11ggml_tensorPKvm, symObjAddr: 0x7FF4, symBinAddr: 0x103D04, symSize: 0x44C }
  - { offset: 0x2D206D, size: 0x8, addend: 0x0, symName: __ZN4ggml3cpu6repack6repackI10block_q2_KLx8ELx8EEEiP11ggml_tensorPKvm, symObjAddr: 0x7FF4, symBinAddr: 0x103D04, symSize: 0x44C }
  - { offset: 0x2D220D, size: 0x8, addend: 0x0, symName: __ZN4ggml3cpu6repack6repackI12block_iq4_nlLx4ELx4EEEiP11ggml_tensorPKvm, symObjAddr: 0x8440, symBinAddr: 0x104150, symSize: 0x1BC }
  - { offset: 0x2D223E, size: 0x8, addend: 0x0, symName: __ZN4ggml3cpu6repack6repackI12block_iq4_nlLx4ELx4EEEiP11ggml_tensorPKvm, symObjAddr: 0x8440, symBinAddr: 0x104150, symSize: 0x1BC }
  - { offset: 0x2D234A, size: 0x8, addend: 0x0, symName: __ZN4ggml3cpu6repack6repackI12block_iq4_nlLx8ELx8EEEiP11ggml_tensorPKvm, symObjAddr: 0x85FC, symBinAddr: 0x10430C, symSize: 0x250 }
  - { offset: 0x2D237B, size: 0x8, addend: 0x0, symName: __ZN4ggml3cpu6repack6repackI12block_iq4_nlLx8ELx8EEEiP11ggml_tensorPKvm, symObjAddr: 0x85FC, symBinAddr: 0x10430C, symSize: 0x250 }
  - { offset: 0x2D247F, size: 0x8, addend: 0x0, symName: __ZN4ggml3cpu6repack4gemvI10block_q4_0Lx4ELx4EL9ggml_type8EEEviPfmPKvS7_ii, symObjAddr: 0x884C, symBinAddr: 0x10455C, symSize: 0x4 }
  - { offset: 0x2D24B0, size: 0x8, addend: 0x0, symName: __ZN4ggml3cpu6repack4gemvI10block_q4_0Lx4ELx4EL9ggml_type8EEEviPfmPKvS7_ii, symObjAddr: 0x884C, symBinAddr: 0x10455C, symSize: 0x4 }
  - { offset: 0x2D2500, size: 0x8, addend: 0x0, symName: __ZN4ggml3cpu6repack4gemvI10block_q4_0Lx4ELx4EL9ggml_type8EEEviPfmPKvS7_ii, symObjAddr: 0x884C, symBinAddr: 0x10455C, symSize: 0x4 }
  - { offset: 0x2D2544, size: 0x8, addend: 0x0, symName: __ZN4ggml3cpu6repack4gemvI10block_q4_0Lx8ELx4EL9ggml_type8EEEviPfmPKvS7_ii, symObjAddr: 0x8850, symBinAddr: 0x104560, symSize: 0x4 }
  - { offset: 0x2D2594, size: 0x8, addend: 0x0, symName: __ZN4ggml3cpu6repack4gemvI10block_q4_0Lx8ELx4EL9ggml_type8EEEviPfmPKvS7_ii, symObjAddr: 0x8850, symBinAddr: 0x104560, symSize: 0x4 }
  - { offset: 0x2D25D8, size: 0x8, addend: 0x0, symName: __ZN4ggml3cpu6repack4gemvI10block_q4_0Lx8ELx8EL9ggml_type8EEEviPfmPKvS7_ii, symObjAddr: 0x8854, symBinAddr: 0x104564, symSize: 0x4 }
  - { offset: 0x2D2628, size: 0x8, addend: 0x0, symName: __ZN4ggml3cpu6repack4gemvI10block_q4_0Lx8ELx8EL9ggml_type8EEEviPfmPKvS7_ii, symObjAddr: 0x8854, symBinAddr: 0x104564, symSize: 0x4 }
  - { offset: 0x2D266C, size: 0x8, addend: 0x0, symName: __ZN4ggml3cpu6repack4gemvI10block_q4_KLx8ELx8EL9ggml_type15EEEviPfmPKvS7_ii, symObjAddr: 0x8858, symBinAddr: 0x104568, symSize: 0x4 }
  - { offset: 0x2D26BC, size: 0x8, addend: 0x0, symName: __ZN4ggml3cpu6repack4gemvI10block_q4_KLx8ELx8EL9ggml_type15EEEviPfmPKvS7_ii, symObjAddr: 0x8858, symBinAddr: 0x104568, symSize: 0x4 }
  - { offset: 0x2D26F0, size: 0x8, addend: 0x0, symName: __ZN4ggml3cpu6repack4gemvI10block_q2_KLx8ELx8EL9ggml_type15EEEviPfmPKvS7_ii, symObjAddr: 0x885C, symBinAddr: 0x10456C, symSize: 0x4 }
  - { offset: 0x2D2740, size: 0x8, addend: 0x0, symName: __ZN4ggml3cpu6repack4gemvI10block_q2_KLx8ELx8EL9ggml_type15EEEviPfmPKvS7_ii, symObjAddr: 0x885C, symBinAddr: 0x10456C, symSize: 0x4 }
  - { offset: 0x2D2774, size: 0x8, addend: 0x0, symName: __ZN4ggml3cpu6repack4gemvI12block_iq4_nlLx4ELx4EL9ggml_type8EEEviPfmPKvS7_ii, symObjAddr: 0x8860, symBinAddr: 0x104570, symSize: 0x4 }
  - { offset: 0x2D27C4, size: 0x8, addend: 0x0, symName: __ZN4ggml3cpu6repack4gemvI12block_iq4_nlLx4ELx4EL9ggml_type8EEEviPfmPKvS7_ii, symObjAddr: 0x8860, symBinAddr: 0x104570, symSize: 0x4 }
  - { offset: 0x2D2808, size: 0x8, addend: 0x0, symName: __ZN4ggml3cpu6repack4gemvI12block_iq4_nlLx8ELx8EL9ggml_type8EEEviPfmPKvS7_ii, symObjAddr: 0x8864, symBinAddr: 0x104574, symSize: 0x4 }
  - { offset: 0x2D2858, size: 0x8, addend: 0x0, symName: __ZN4ggml3cpu6repack4gemvI12block_iq4_nlLx8ELx8EL9ggml_type8EEEviPfmPKvS7_ii, symObjAddr: 0x8864, symBinAddr: 0x104574, symSize: 0x4 }
  - { offset: 0x2D288C, size: 0x8, addend: 0x0, symName: __ZN4ggml3cpu6repack4gemmI10block_q4_0Lx4ELx4EL9ggml_type8EEEviPfmPKvS7_ii, symObjAddr: 0x8868, symBinAddr: 0x104578, symSize: 0x4 }
  - { offset: 0x2D28DC, size: 0x8, addend: 0x0, symName: __ZN4ggml3cpu6repack4gemmI10block_q4_0Lx4ELx4EL9ggml_type8EEEviPfmPKvS7_ii, symObjAddr: 0x8868, symBinAddr: 0x104578, symSize: 0x4 }
  - { offset: 0x2D2920, size: 0x8, addend: 0x0, symName: __ZN4ggml3cpu6repack4gemmI10block_q4_0Lx8ELx4EL9ggml_type8EEEviPfmPKvS7_ii, symObjAddr: 0x886C, symBinAddr: 0x10457C, symSize: 0x4 }
  - { offset: 0x2D2970, size: 0x8, addend: 0x0, symName: __ZN4ggml3cpu6repack4gemmI10block_q4_0Lx8ELx4EL9ggml_type8EEEviPfmPKvS7_ii, symObjAddr: 0x886C, symBinAddr: 0x10457C, symSize: 0x4 }
  - { offset: 0x2D29B4, size: 0x8, addend: 0x0, symName: __ZN4ggml3cpu6repack4gemmI10block_q4_0Lx8ELx8EL9ggml_type8EEEviPfmPKvS7_ii, symObjAddr: 0x8870, symBinAddr: 0x104580, symSize: 0x4 }
  - { offset: 0x2D2A04, size: 0x8, addend: 0x0, symName: __ZN4ggml3cpu6repack4gemmI10block_q4_0Lx8ELx8EL9ggml_type8EEEviPfmPKvS7_ii, symObjAddr: 0x8870, symBinAddr: 0x104580, symSize: 0x4 }
  - { offset: 0x2D2A48, size: 0x8, addend: 0x0, symName: __ZN4ggml3cpu6repack4gemmI10block_q4_KLx8ELx8EL9ggml_type15EEEviPfmPKvS7_ii, symObjAddr: 0x8874, symBinAddr: 0x104584, symSize: 0x4 }
  - { offset: 0x2D2A98, size: 0x8, addend: 0x0, symName: __ZN4ggml3cpu6repack4gemmI10block_q4_KLx8ELx8EL9ggml_type15EEEviPfmPKvS7_ii, symObjAddr: 0x8874, symBinAddr: 0x104584, symSize: 0x4 }
  - { offset: 0x2D2ADC, size: 0x8, addend: 0x0, symName: __ZN4ggml3cpu6repack4gemmI10block_q2_KLx8ELx8EL9ggml_type15EEEviPfmPKvS7_ii, symObjAddr: 0x8878, symBinAddr: 0x104588, symSize: 0x4 }
  - { offset: 0x2D2B2C, size: 0x8, addend: 0x0, symName: __ZN4ggml3cpu6repack4gemmI10block_q2_KLx8ELx8EL9ggml_type15EEEviPfmPKvS7_ii, symObjAddr: 0x8878, symBinAddr: 0x104588, symSize: 0x4 }
  - { offset: 0x2D2B70, size: 0x8, addend: 0x0, symName: __ZN4ggml3cpu6repack4gemmI12block_iq4_nlLx4ELx4EL9ggml_type8EEEviPfmPKvS7_ii, symObjAddr: 0x887C, symBinAddr: 0x10458C, symSize: 0x4 }
  - { offset: 0x2D2BC0, size: 0x8, addend: 0x0, symName: __ZN4ggml3cpu6repack4gemmI12block_iq4_nlLx4ELx4EL9ggml_type8EEEviPfmPKvS7_ii, symObjAddr: 0x887C, symBinAddr: 0x10458C, symSize: 0x4 }
  - { offset: 0x2D2C04, size: 0x8, addend: 0x0, symName: __ZN4ggml3cpu6repack4gemmI12block_iq4_nlLx8ELx8EL9ggml_type8EEEviPfmPKvS7_ii, symObjAddr: 0x8880, symBinAddr: 0x104590, symSize: 0x4 }
  - { offset: 0x2D2C54, size: 0x8, addend: 0x0, symName: __ZN4ggml3cpu6repack4gemmI12block_iq4_nlLx8ELx8EL9ggml_type8EEEviPfmPKvS7_ii, symObjAddr: 0x8880, symBinAddr: 0x104590, symSize: 0x4 }
  - { offset: 0x2D3B18, size: 0x8, addend: 0x0, symName: __ZN4ggml3cpu6repack13tensor_traitsI10block_q4_0Lx4ELx4EL9ggml_type8EE18forward_mul_mat_idEP19ggml_compute_paramsP11ggml_tensor, symObjAddr: 0x9EA8, symBinAddr: 0x105BB8, symSize: 0x68C }
  - { offset: 0x2D4194, size: 0x8, addend: 0x0, symName: __ZN4ggml3cpu6repack13tensor_traitsI10block_q4_0Lx4ELx4EL9ggml_type8EE25forward_mul_mat_one_chunkEP19ggml_compute_paramsP11ggml_tensorxxxx, symObjAddr: 0xA534, symBinAddr: 0x106244, symSize: 0x288 }
  - { offset: 0x2D41B3, size: 0x8, addend: 0x0, symName: __ZN4ggml3cpu6repack13tensor_traitsI10block_q4_0Lx8ELx4EL9ggml_type8EE18forward_mul_mat_idEP19ggml_compute_paramsP11ggml_tensor, symObjAddr: 0xAEB8, symBinAddr: 0x106BC8, symSize: 0x68C }
  - { offset: 0x2D482F, size: 0x8, addend: 0x0, symName: __ZN4ggml3cpu6repack13tensor_traitsI10block_q4_0Lx8ELx4EL9ggml_type8EE25forward_mul_mat_one_chunkEP19ggml_compute_paramsP11ggml_tensorxxxx, symObjAddr: 0xB544, symBinAddr: 0x107254, symSize: 0x288 }
  - { offset: 0x2D4849, size: 0x8, addend: 0x0, symName: __ZN4ggml3cpu6repack13tensor_traitsI10block_q4_0Lx8ELx8EL9ggml_type8EE18forward_mul_mat_idEP19ggml_compute_paramsP11ggml_tensor, symObjAddr: 0xBEC8, symBinAddr: 0x107BD8, symSize: 0x68C }
  - { offset: 0x2D4EC5, size: 0x8, addend: 0x0, symName: __ZN4ggml3cpu6repack13tensor_traitsI10block_q4_0Lx8ELx8EL9ggml_type8EE25forward_mul_mat_one_chunkEP19ggml_compute_paramsP11ggml_tensorxxxx, symObjAddr: 0xC554, symBinAddr: 0x108264, symSize: 0x288 }
  - { offset: 0x2D4EDF, size: 0x8, addend: 0x0, symName: __ZN4ggml3cpu6repack13tensor_traitsI10block_q4_KLx8ELx8EL9ggml_type15EE18forward_mul_mat_idEP19ggml_compute_paramsP11ggml_tensor, symObjAddr: 0xD318, symBinAddr: 0x109028, symSize: 0x680 }
  - { offset: 0x2D555F, size: 0x8, addend: 0x0, symName: __ZN4ggml3cpu6repack13tensor_traitsI10block_q4_KLx8ELx8EL9ggml_type15EE25forward_mul_mat_one_chunkEP19ggml_compute_paramsP11ggml_tensorxxxx, symObjAddr: 0xD998, symBinAddr: 0x1096A8, symSize: 0x274 }
  - { offset: 0x2D5579, size: 0x8, addend: 0x0, symName: __ZN4ggml3cpu6repack13tensor_traitsI10block_q2_KLx8ELx8EL9ggml_type15EE18forward_mul_mat_idEP19ggml_compute_paramsP11ggml_tensor, symObjAddr: 0xE748, symBinAddr: 0x10A458, symSize: 0x680 }
  - { offset: 0x2D5BF9, size: 0x8, addend: 0x0, symName: __ZN4ggml3cpu6repack13tensor_traitsI10block_q2_KLx8ELx8EL9ggml_type15EE25forward_mul_mat_one_chunkEP19ggml_compute_paramsP11ggml_tensorxxxx, symObjAddr: 0xEDC8, symBinAddr: 0x10AAD8, symSize: 0x274 }
  - { offset: 0x2D5C13, size: 0x8, addend: 0x0, symName: __ZN4ggml3cpu6repack13tensor_traitsI12block_iq4_nlLx4ELx4EL9ggml_type8EE18forward_mul_mat_idEP19ggml_compute_paramsP11ggml_tensor, symObjAddr: 0xF738, symBinAddr: 0x10B448, symSize: 0x68C }
  - { offset: 0x2D628F, size: 0x8, addend: 0x0, symName: __ZN4ggml3cpu6repack13tensor_traitsI12block_iq4_nlLx4ELx4EL9ggml_type8EE25forward_mul_mat_one_chunkEP19ggml_compute_paramsP11ggml_tensorxxxx, symObjAddr: 0xFDC4, symBinAddr: 0x10BAD4, symSize: 0x288 }
  - { offset: 0x2D62A9, size: 0x8, addend: 0x0, symName: __ZN4ggml3cpu6repack13tensor_traitsI12block_iq4_nlLx8ELx8EL9ggml_type8EE18forward_mul_mat_idEP19ggml_compute_paramsP11ggml_tensor, symObjAddr: 0x10748, symBinAddr: 0x10C458, symSize: 0x680 }
  - { offset: 0x2D6929, size: 0x8, addend: 0x0, symName: __ZN4ggml3cpu6repack13tensor_traitsI12block_iq4_nlLx8ELx8EL9ggml_type8EE25forward_mul_mat_one_chunkEP19ggml_compute_paramsP11ggml_tensorxxxx, symObjAddr: 0x10DC8, symBinAddr: 0x10CAD8, symSize: 0x274 }
  - { offset: 0x2D6A92, size: 0x8, addend: 0x0, symName: _ggml_quantize_mat_q8_0_4x4_generic, symObjAddr: 0x0, symBinAddr: 0xFBD10, symSize: 0x378 }
  - { offset: 0x2D6CC7, size: 0x8, addend: 0x0, symName: _ggml_quantize_mat_q8_0_4x8_generic, symObjAddr: 0x378, symBinAddr: 0xFC088, symSize: 0x37C }
  - { offset: 0x2D6F31, size: 0x8, addend: 0x0, symName: _ggml_quantize_mat_q8_K_4x8, symObjAddr: 0x6F4, symBinAddr: 0xFC404, symSize: 0x330 }
  - { offset: 0x2D7075, size: 0x8, addend: 0x0, symName: __Z19ggml_quantize_mat_tILx4EL9ggml_type8EEvPKfPvxx, symObjAddr: 0xA24, symBinAddr: 0xFC734, symSize: 0x8 }
  - { offset: 0x2D70FE, size: 0x8, addend: 0x0, symName: __Z19ggml_quantize_mat_tILx8EL9ggml_type8EEvPKfPvxx, symObjAddr: 0xA2C, symBinAddr: 0xFC73C, symSize: 0x8 }
  - { offset: 0x2D7175, size: 0x8, addend: 0x0, symName: __Z19ggml_quantize_mat_tILx8EL9ggml_type15EEvPKfPvxx, symObjAddr: 0xA34, symBinAddr: 0xFC744, symSize: 0x8 }
  - { offset: 0x2D71D5, size: 0x8, addend: 0x0, symName: _ggml_gemv_q4_0_4x4_q8_0_generic, symObjAddr: 0xA3C, symBinAddr: 0xFC74C, symSize: 0x290 }
  - { offset: 0x2D73AF, size: 0x8, addend: 0x0, symName: _ggml_gemv_q4_0_4x8_q8_0_generic, symObjAddr: 0xCCC, symBinAddr: 0xFC9DC, symSize: 0x3F8 }
  - { offset: 0x2D7544, size: 0x8, addend: 0x0, symName: _ggml_gemv_q4_0_8x8_q8_0_generic, symObjAddr: 0x10C4, symBinAddr: 0xFCDD4, symSize: 0x2D8 }
  - { offset: 0x2D774E, size: 0x8, addend: 0x0, symName: _ggml_gemv_q2_K_8x8_q8_K, symObjAddr: 0x1B6C, symBinAddr: 0xFD87C, symSize: 0x1588 }
  - { offset: 0x2D79D8, size: 0x8, addend: 0x0, symName: _ggml_gemv_iq4_nl_4x4_q8_0_generic, symObjAddr: 0x30F4, symBinAddr: 0xFEE04, symSize: 0x3B0 }
  - { offset: 0x2D7BC4, size: 0x8, addend: 0x0, symName: _ggml_gemv_iq4_nl_8x8_q8_0, symObjAddr: 0x34A4, symBinAddr: 0xFF1B4, symSize: 0x2D4 }
  - { offset: 0x2D7DF4, size: 0x8, addend: 0x0, symName: _ggml_gemm_q4_0_4x4_q8_0_generic, symObjAddr: 0x3778, symBinAddr: 0xFF488, symSize: 0x5A0 }
  - { offset: 0x2D8078, size: 0x8, addend: 0x0, symName: _ggml_gemm_q4_0_4x8_q8_0_generic, symObjAddr: 0x3D18, symBinAddr: 0xFFA28, symSize: 0x5EC }
  - { offset: 0x2D829F, size: 0x8, addend: 0x0, symName: _ggml_gemm_q4_0_8x8_q8_0_generic, symObjAddr: 0x4304, symBinAddr: 0x100014, symSize: 0x6DC }
  - { offset: 0x2D8500, size: 0x8, addend: 0x0, symName: _ggml_gemm_q2_K_8x8_q8_K, symObjAddr: 0x52F0, symBinAddr: 0x101000, symSize: 0x12FC }
  - { offset: 0x2D8853, size: 0x8, addend: 0x0, symName: _ggml_gemm_iq4_nl_4x4_q8_0_generic, symObjAddr: 0x65EC, symBinAddr: 0x1022FC, symSize: 0x5BC }
  - { offset: 0x2D8AD3, size: 0x8, addend: 0x0, symName: _ggml_gemm_iq4_nl_8x8_q8_0, symObjAddr: 0x6BA8, symBinAddr: 0x1028B8, symSize: 0x4A0 }
  - { offset: 0x2D8D7A, size: 0x8, addend: 0x0, symName: __ZL24repack_q4_0_to_q4_0_4_blP11ggml_tensoriPKvm, symObjAddr: 0x7058, symBinAddr: 0x102D68, symSize: 0x3E4 }
  - { offset: 0x2D8FD5, size: 0x8, addend: 0x0, symName: __ZN4ggml3cpu6repack6repackI10block_q4_0Lx8ELx4EEEiP11ggml_tensorPKvm, symObjAddr: 0x743C, symBinAddr: 0x10314C, symSize: 0x10 }
  - { offset: 0x2D99AA, size: 0x8, addend: 0x0, symName: __ZL44ggml_backend_cpu_repack_buffer_type_get_nameP24ggml_backend_buffer_type, symObjAddr: 0x8958, symBinAddr: 0x104668, symSize: 0xC }
  - { offset: 0x2D99D6, size: 0x8, addend: 0x0, symName: __ZL48ggml_backend_cpu_repack_buffer_type_alloc_bufferP24ggml_backend_buffer_typem, symObjAddr: 0x8964, symBinAddr: 0x104674, symSize: 0x50 }
  - { offset: 0x2D9A71, size: 0x8, addend: 0x0, symName: __ZL49ggml_backend_cpu_repack_buffer_type_get_alignmentP24ggml_backend_buffer_type, symObjAddr: 0x89B4, symBinAddr: 0x1046C4, symSize: 0x8 }
  - { offset: 0x2D9A9D, size: 0x8, addend: 0x0, symName: __ZL42ggml_backend_cpu_repack_buffer_init_tensorP19ggml_backend_bufferP11ggml_tensor, symObjAddr: 0x89BC, symBinAddr: 0x1046CC, symSize: 0x2C }
  - { offset: 0x2D9AF1, size: 0x8, addend: 0x0, symName: __ZL41ggml_backend_cpu_repack_buffer_set_tensorP19ggml_backend_bufferP11ggml_tensorPKvmm, symObjAddr: 0x89E8, symBinAddr: 0x1046F8, symSize: 0xD4 }
  - { offset: 0x2D9BE0, size: 0x8, addend: 0x0, symName: __ZL35ggml_repack_get_optimal_repack_typePK11ggml_tensor, symObjAddr: 0x8ABC, symBinAddr: 0x1047CC, symSize: 0x29C }
  - { offset: 0x2D9C5B, size: 0x8, addend: 0x0, symName: __ZL35ggml_repack_get_optimal_repack_typePK11ggml_tensor.cold.1, symObjAddr: 0x111EC, symBinAddr: 0x137A68, symSize: 0x4C }
  - { offset: 0x2D9C73, size: 0x8, addend: 0x0, symName: __ZL35ggml_repack_get_optimal_repack_typePK11ggml_tensor.cold.2, symObjAddr: 0x11238, symBinAddr: 0x137AB4, symSize: 0x4C }
  - { offset: 0x2D9C8B, size: 0x8, addend: 0x0, symName: __ZL35ggml_repack_get_optimal_repack_typePK11ggml_tensor.cold.3, symObjAddr: 0x11284, symBinAddr: 0x137B00, symSize: 0x4C }
  - { offset: 0x2D9CA3, size: 0x8, addend: 0x0, symName: __ZL35ggml_repack_get_optimal_repack_typePK11ggml_tensor.cold.4, symObjAddr: 0x112D0, symBinAddr: 0x137B4C, symSize: 0x4C }
  - { offset: 0x2D9CBB, size: 0x8, addend: 0x0, symName: __ZL35ggml_repack_get_optimal_repack_typePK11ggml_tensor.cold.5, symObjAddr: 0x1131C, symBinAddr: 0x137B98, symSize: 0x4C }
  - { offset: 0x2D9CD3, size: 0x8, addend: 0x0, symName: __ZL35ggml_repack_get_optimal_repack_typePK11ggml_tensor.cold.6, symObjAddr: 0x11368, symBinAddr: 0x137BE4, symSize: 0x4C }
  - { offset: 0x2D9CEB, size: 0x8, addend: 0x0, symName: __ZL35ggml_repack_get_optimal_repack_typePK11ggml_tensor.cold.7, symObjAddr: 0x113B4, symBinAddr: 0x137C30, symSize: 0x4C }
  - { offset: 0x2D9D43, size: 0x8, addend: 0x0, symName: __ZN4ggml3cpu6repack13tensor_traitsI10block_q4_0Lx4ELx4EL9ggml_type8EED1Ev, symObjAddr: 0x8D58, symBinAddr: 0x104A68, symSize: 0x4 }
  - { offset: 0x2D9D67, size: 0x8, addend: 0x0, symName: __ZN4ggml3cpu6repack13tensor_traitsI10block_q4_0Lx4ELx4EL9ggml_type8EED1Ev, symObjAddr: 0x8D58, symBinAddr: 0x104A68, symSize: 0x4 }
  - { offset: 0x2D9D85, size: 0x8, addend: 0x0, symName: __ZN4ggml3cpu6repack13tensor_traitsI10block_q4_0Lx4ELx4EL9ggml_type8EED1Ev, symObjAddr: 0x8D58, symBinAddr: 0x104A68, symSize: 0x4 }
  - { offset: 0x2D9DC5, size: 0x8, addend: 0x0, symName: __ZN4ggml3cpu6repack13tensor_traitsI10block_q4_0Lx8ELx4EL9ggml_type8EED1Ev, symObjAddr: 0x8D5C, symBinAddr: 0x104A6C, symSize: 0x4 }
  - { offset: 0x2D9DE9, size: 0x8, addend: 0x0, symName: __ZN4ggml3cpu6repack13tensor_traitsI10block_q4_0Lx8ELx4EL9ggml_type8EED1Ev, symObjAddr: 0x8D5C, symBinAddr: 0x104A6C, symSize: 0x4 }
  - { offset: 0x2D9E07, size: 0x8, addend: 0x0, symName: __ZN4ggml3cpu6repack13tensor_traitsI10block_q4_0Lx8ELx4EL9ggml_type8EED1Ev, symObjAddr: 0x8D5C, symBinAddr: 0x104A6C, symSize: 0x4 }
  - { offset: 0x2D9E47, size: 0x8, addend: 0x0, symName: __ZN4ggml3cpu6repack13tensor_traitsI10block_q4_0Lx8ELx8EL9ggml_type8EED1Ev, symObjAddr: 0x8D60, symBinAddr: 0x104A70, symSize: 0x4 }
  - { offset: 0x2D9E6B, size: 0x8, addend: 0x0, symName: __ZN4ggml3cpu6repack13tensor_traitsI10block_q4_0Lx8ELx8EL9ggml_type8EED1Ev, symObjAddr: 0x8D60, symBinAddr: 0x104A70, symSize: 0x4 }
  - { offset: 0x2D9E89, size: 0x8, addend: 0x0, symName: __ZN4ggml3cpu6repack13tensor_traitsI10block_q4_0Lx8ELx8EL9ggml_type8EED1Ev, symObjAddr: 0x8D60, symBinAddr: 0x104A70, symSize: 0x4 }
  - { offset: 0x2D9EC9, size: 0x8, addend: 0x0, symName: __ZN4ggml3cpu6repack13tensor_traitsI10block_q4_KLx8ELx8EL9ggml_type15EED1Ev, symObjAddr: 0x8D64, symBinAddr: 0x104A74, symSize: 0x4 }
  - { offset: 0x2D9EED, size: 0x8, addend: 0x0, symName: __ZN4ggml3cpu6repack13tensor_traitsI10block_q4_KLx8ELx8EL9ggml_type15EED1Ev, symObjAddr: 0x8D64, symBinAddr: 0x104A74, symSize: 0x4 }
  - { offset: 0x2D9F0B, size: 0x8, addend: 0x0, symName: __ZN4ggml3cpu6repack13tensor_traitsI10block_q4_KLx8ELx8EL9ggml_type15EED1Ev, symObjAddr: 0x8D64, symBinAddr: 0x104A74, symSize: 0x4 }
  - { offset: 0x2D9F4B, size: 0x8, addend: 0x0, symName: __ZN4ggml3cpu6repack13tensor_traitsI10block_q2_KLx8ELx8EL9ggml_type15EED1Ev, symObjAddr: 0x8D68, symBinAddr: 0x104A78, symSize: 0x4 }
  - { offset: 0x2D9F6F, size: 0x8, addend: 0x0, symName: __ZN4ggml3cpu6repack13tensor_traitsI10block_q2_KLx8ELx8EL9ggml_type15EED1Ev, symObjAddr: 0x8D68, symBinAddr: 0x104A78, symSize: 0x4 }
  - { offset: 0x2D9F8D, size: 0x8, addend: 0x0, symName: __ZN4ggml3cpu6repack13tensor_traitsI10block_q2_KLx8ELx8EL9ggml_type15EED1Ev, symObjAddr: 0x8D68, symBinAddr: 0x104A78, symSize: 0x4 }
  - { offset: 0x2D9FCD, size: 0x8, addend: 0x0, symName: __ZN4ggml3cpu6repack13tensor_traitsI12block_iq4_nlLx4ELx4EL9ggml_type8EED1Ev, symObjAddr: 0x8D6C, symBinAddr: 0x104A7C, symSize: 0x4 }
  - { offset: 0x2D9FF1, size: 0x8, addend: 0x0, symName: __ZN4ggml3cpu6repack13tensor_traitsI12block_iq4_nlLx4ELx4EL9ggml_type8EED1Ev, symObjAddr: 0x8D6C, symBinAddr: 0x104A7C, symSize: 0x4 }
  - { offset: 0x2DA00F, size: 0x8, addend: 0x0, symName: __ZN4ggml3cpu6repack13tensor_traitsI12block_iq4_nlLx4ELx4EL9ggml_type8EED1Ev, symObjAddr: 0x8D6C, symBinAddr: 0x104A7C, symSize: 0x4 }
  - { offset: 0x2DA04F, size: 0x8, addend: 0x0, symName: __ZN4ggml3cpu6repack13tensor_traitsI12block_iq4_nlLx8ELx8EL9ggml_type8EED1Ev, symObjAddr: 0x8D70, symBinAddr: 0x104A80, symSize: 0x4 }
  - { offset: 0x2DA073, size: 0x8, addend: 0x0, symName: __ZN4ggml3cpu6repack13tensor_traitsI12block_iq4_nlLx8ELx8EL9ggml_type8EED1Ev, symObjAddr: 0x8D70, symBinAddr: 0x104A80, symSize: 0x4 }
  - { offset: 0x2DA091, size: 0x8, addend: 0x0, symName: __ZN4ggml3cpu6repack13tensor_traitsI12block_iq4_nlLx8ELx8EL9ggml_type8EED1Ev, symObjAddr: 0x8D70, symBinAddr: 0x104A80, symSize: 0x4 }
  - { offset: 0x2DA0CB, size: 0x8, addend: 0x0, symName: __ZN4ggml3cpu6repack13tensor_traitsI10block_q4_0Lx4ELx4EL9ggml_type8EED0Ev, symObjAddr: 0x8D74, symBinAddr: 0x104A84, symSize: 0x14 }
  - { offset: 0x2DA154, size: 0x8, addend: 0x0, symName: __ZN4ggml3cpu6repack13tensor_traitsI10block_q4_0Lx4ELx4EL9ggml_type8EE9work_sizeEiPK11ggml_tensorRm, symObjAddr: 0x8D88, symBinAddr: 0x104A98, symSize: 0xA4 }
  - { offset: 0x2DA25D, size: 0x8, addend: 0x0, symName: __ZN4ggml3cpu6repack13tensor_traitsI10block_q4_0Lx4ELx4EL9ggml_type8EE15compute_forwardEP19ggml_compute_paramsP11ggml_tensor, symObjAddr: 0x8E2C, symBinAddr: 0x104B3C, symSize: 0x48 }
  - { offset: 0x2DA2C2, size: 0x8, addend: 0x0, symName: __ZN4ggml3cpu6repack13tensor_traitsI10block_q4_0Lx4ELx4EL9ggml_type8EE15forward_mul_matEP19ggml_compute_paramsP11ggml_tensor, symObjAddr: 0x97AC, symBinAddr: 0x1054BC, symSize: 0x6FC }
  - { offset: 0x2DA8F3, size: 0x8, addend: 0x0, symName: __ZN4ggml3cpu6repack13tensor_traitsI10block_q4_0Lx4ELx4EL9ggml_type8EE18forward_mul_mat_idEP19ggml_compute_paramsP11ggml_tensor, symObjAddr: 0x9EA8, symBinAddr: 0x105BB8, symSize: 0x68C }
  - { offset: 0x2DA907, size: 0x8, addend: 0x0, symName: __ZN4ggml3cpu6repack13tensor_traitsI10block_q4_0Lx4ELx4EL9ggml_type8EE6repackEP11ggml_tensorPKvm, symObjAddr: 0x8E74, symBinAddr: 0x104B84, symSize: 0x78 }
  - { offset: 0x2DAA11, size: 0x8, addend: 0x0, symName: __ZN4ggml3cpu6repack13tensor_traitsI10block_q4_0Lx8ELx4EL9ggml_type8EED0Ev, symObjAddr: 0x8EEC, symBinAddr: 0x104BFC, symSize: 0x14 }
  - { offset: 0x2DAA9A, size: 0x8, addend: 0x0, symName: __ZN4ggml3cpu6repack13tensor_traitsI10block_q4_0Lx8ELx4EL9ggml_type8EE9work_sizeEiPK11ggml_tensorRm, symObjAddr: 0x8F00, symBinAddr: 0x104C10, symSize: 0xA4 }
  - { offset: 0x2DAB78, size: 0x8, addend: 0x0, symName: __ZN4ggml3cpu6repack13tensor_traitsI10block_q4_0Lx8ELx4EL9ggml_type8EE15compute_forwardEP19ggml_compute_paramsP11ggml_tensor, symObjAddr: 0x8FA4, symBinAddr: 0x104CB4, symSize: 0x48 }
  - { offset: 0x2DABDD, size: 0x8, addend: 0x0, symName: __ZN4ggml3cpu6repack13tensor_traitsI10block_q4_0Lx8ELx4EL9ggml_type8EE15forward_mul_matEP19ggml_compute_paramsP11ggml_tensor, symObjAddr: 0xA7BC, symBinAddr: 0x1064CC, symSize: 0x6FC }
  - { offset: 0x2DB20E, size: 0x8, addend: 0x0, symName: __ZN4ggml3cpu6repack13tensor_traitsI10block_q4_0Lx8ELx4EL9ggml_type8EE18forward_mul_mat_idEP19ggml_compute_paramsP11ggml_tensor, symObjAddr: 0xAEB8, symBinAddr: 0x106BC8, symSize: 0x68C }
  - { offset: 0x2DB222, size: 0x8, addend: 0x0, symName: __ZN4ggml3cpu6repack13tensor_traitsI10block_q4_0Lx8ELx4EL9ggml_type8EE6repackEP11ggml_tensorPKvm, symObjAddr: 0x8FEC, symBinAddr: 0x104CFC, symSize: 0x7C }
  - { offset: 0x2DB306, size: 0x8, addend: 0x0, symName: __ZN4ggml3cpu6repack13tensor_traitsI10block_q4_0Lx8ELx8EL9ggml_type8EED0Ev, symObjAddr: 0x9068, symBinAddr: 0x104D78, symSize: 0x14 }
  - { offset: 0x2DB38F, size: 0x8, addend: 0x0, symName: __ZN4ggml3cpu6repack13tensor_traitsI10block_q4_0Lx8ELx8EL9ggml_type8EE9work_sizeEiPK11ggml_tensorRm, symObjAddr: 0x907C, symBinAddr: 0x104D8C, symSize: 0xA4 }
  - { offset: 0x2DB46D, size: 0x8, addend: 0x0, symName: __ZN4ggml3cpu6repack13tensor_traitsI10block_q4_0Lx8ELx8EL9ggml_type8EE15compute_forwardEP19ggml_compute_paramsP11ggml_tensor, symObjAddr: 0x9120, symBinAddr: 0x104E30, symSize: 0x48 }
  - { offset: 0x2DB4D2, size: 0x8, addend: 0x0, symName: __ZN4ggml3cpu6repack13tensor_traitsI10block_q4_0Lx8ELx8EL9ggml_type8EE15forward_mul_matEP19ggml_compute_paramsP11ggml_tensor, symObjAddr: 0xB7CC, symBinAddr: 0x1074DC, symSize: 0x6FC }
  - { offset: 0x2DBB03, size: 0x8, addend: 0x0, symName: __ZN4ggml3cpu6repack13tensor_traitsI10block_q4_0Lx8ELx8EL9ggml_type8EE18forward_mul_mat_idEP19ggml_compute_paramsP11ggml_tensor, symObjAddr: 0xBEC8, symBinAddr: 0x107BD8, symSize: 0x68C }
  - { offset: 0x2DBB17, size: 0x8, addend: 0x0, symName: __ZN4ggml3cpu6repack13tensor_traitsI10block_q4_0Lx8ELx8EL9ggml_type8EE6repackEP11ggml_tensorPKvm, symObjAddr: 0x9168, symBinAddr: 0x104E78, symSize: 0x74 }
  - { offset: 0x2DBBBF, size: 0x8, addend: 0x0, symName: __ZN4ggml3cpu6repack13tensor_traitsI10block_q4_KLx8ELx8EL9ggml_type15EED0Ev, symObjAddr: 0x91DC, symBinAddr: 0x104EEC, symSize: 0x14 }
  - { offset: 0x2DBC48, size: 0x8, addend: 0x0, symName: __ZN4ggml3cpu6repack13tensor_traitsI10block_q4_KLx8ELx8EL9ggml_type15EE9work_sizeEiPK11ggml_tensorRm, symObjAddr: 0x91F0, symBinAddr: 0x104F00, symSize: 0xA4 }
  - { offset: 0x2DBD26, size: 0x8, addend: 0x0, symName: __ZN4ggml3cpu6repack13tensor_traitsI10block_q4_KLx8ELx8EL9ggml_type15EE15compute_forwardEP19ggml_compute_paramsP11ggml_tensor, symObjAddr: 0x9294, symBinAddr: 0x104FA4, symSize: 0x48 }
  - { offset: 0x2DBD8B, size: 0x8, addend: 0x0, symName: __ZN4ggml3cpu6repack13tensor_traitsI10block_q4_KLx8ELx8EL9ggml_type15EE15forward_mul_matEP19ggml_compute_paramsP11ggml_tensor, symObjAddr: 0xC7DC, symBinAddr: 0x1084EC, symSize: 0xB3C }
  - { offset: 0x2DC4F3, size: 0x8, addend: 0x0, symName: __ZN4ggml3cpu6repack13tensor_traitsI10block_q4_KLx8ELx8EL9ggml_type15EE6repackEP11ggml_tensorPKvm, symObjAddr: 0x92DC, symBinAddr: 0x104FEC, symSize: 0x74 }
  - { offset: 0x2DC59B, size: 0x8, addend: 0x0, symName: __ZN4ggml3cpu6repack13tensor_traitsI10block_q2_KLx8ELx8EL9ggml_type15EED0Ev, symObjAddr: 0x9350, symBinAddr: 0x105060, symSize: 0x14 }
  - { offset: 0x2DC624, size: 0x8, addend: 0x0, symName: __ZN4ggml3cpu6repack13tensor_traitsI10block_q2_KLx8ELx8EL9ggml_type15EE9work_sizeEiPK11ggml_tensorRm, symObjAddr: 0x9364, symBinAddr: 0x105074, symSize: 0xA4 }
  - { offset: 0x2DC702, size: 0x8, addend: 0x0, symName: __ZN4ggml3cpu6repack13tensor_traitsI10block_q2_KLx8ELx8EL9ggml_type15EE15compute_forwardEP19ggml_compute_paramsP11ggml_tensor, symObjAddr: 0x9408, symBinAddr: 0x105118, symSize: 0x48 }
  - { offset: 0x2DC767, size: 0x8, addend: 0x0, symName: __ZN4ggml3cpu6repack13tensor_traitsI10block_q2_KLx8ELx8EL9ggml_type15EE15forward_mul_matEP19ggml_compute_paramsP11ggml_tensor, symObjAddr: 0xDC0C, symBinAddr: 0x10991C, symSize: 0xB3C }
  - { offset: 0x2DCECF, size: 0x8, addend: 0x0, symName: __ZN4ggml3cpu6repack13tensor_traitsI10block_q2_KLx8ELx8EL9ggml_type15EE6repackEP11ggml_tensorPKvm, symObjAddr: 0x9450, symBinAddr: 0x105160, symSize: 0x74 }
  - { offset: 0x2DCF77, size: 0x8, addend: 0x0, symName: __ZN4ggml3cpu6repack13tensor_traitsI12block_iq4_nlLx4ELx4EL9ggml_type8EED0Ev, symObjAddr: 0x94C4, symBinAddr: 0x1051D4, symSize: 0x14 }
  - { offset: 0x2DD000, size: 0x8, addend: 0x0, symName: __ZN4ggml3cpu6repack13tensor_traitsI12block_iq4_nlLx4ELx4EL9ggml_type8EE9work_sizeEiPK11ggml_tensorRm, symObjAddr: 0x94D8, symBinAddr: 0x1051E8, symSize: 0xA4 }
  - { offset: 0x2DD0DE, size: 0x8, addend: 0x0, symName: __ZN4ggml3cpu6repack13tensor_traitsI12block_iq4_nlLx4ELx4EL9ggml_type8EE15compute_forwardEP19ggml_compute_paramsP11ggml_tensor, symObjAddr: 0x957C, symBinAddr: 0x10528C, symSize: 0x48 }
  - { offset: 0x2DD143, size: 0x8, addend: 0x0, symName: __ZN4ggml3cpu6repack13tensor_traitsI12block_iq4_nlLx4ELx4EL9ggml_type8EE15forward_mul_matEP19ggml_compute_paramsP11ggml_tensor, symObjAddr: 0xF03C, symBinAddr: 0x10AD4C, symSize: 0x6FC }
  - { offset: 0x2DD774, size: 0x8, addend: 0x0, symName: __ZN4ggml3cpu6repack13tensor_traitsI12block_iq4_nlLx4ELx4EL9ggml_type8EE18forward_mul_mat_idEP19ggml_compute_paramsP11ggml_tensor, symObjAddr: 0xF738, symBinAddr: 0x10B448, symSize: 0x68C }
  - { offset: 0x2DD788, size: 0x8, addend: 0x0, symName: __ZN4ggml3cpu6repack13tensor_traitsI12block_iq4_nlLx4ELx4EL9ggml_type8EE6repackEP11ggml_tensorPKvm, symObjAddr: 0x95C4, symBinAddr: 0x1052D4, symSize: 0x74 }
  - { offset: 0x2DD830, size: 0x8, addend: 0x0, symName: __ZN4ggml3cpu6repack13tensor_traitsI12block_iq4_nlLx8ELx8EL9ggml_type8EED0Ev, symObjAddr: 0x9638, symBinAddr: 0x105348, symSize: 0x14 }
  - { offset: 0x2DD8B9, size: 0x8, addend: 0x0, symName: __ZN4ggml3cpu6repack13tensor_traitsI12block_iq4_nlLx8ELx8EL9ggml_type8EE9work_sizeEiPK11ggml_tensorRm, symObjAddr: 0x964C, symBinAddr: 0x10535C, symSize: 0xA4 }
  - { offset: 0x2DD997, size: 0x8, addend: 0x0, symName: __ZN4ggml3cpu6repack13tensor_traitsI12block_iq4_nlLx8ELx8EL9ggml_type8EE15compute_forwardEP19ggml_compute_paramsP11ggml_tensor, symObjAddr: 0x96F0, symBinAddr: 0x105400, symSize: 0x48 }
  - { offset: 0x2DD9FC, size: 0x8, addend: 0x0, symName: __ZN4ggml3cpu6repack13tensor_traitsI12block_iq4_nlLx8ELx8EL9ggml_type8EE15forward_mul_matEP19ggml_compute_paramsP11ggml_tensor, symObjAddr: 0x1004C, symBinAddr: 0x10BD5C, symSize: 0x6FC }
  - { offset: 0x2DE02D, size: 0x8, addend: 0x0, symName: __ZN4ggml3cpu6repack13tensor_traitsI12block_iq4_nlLx8ELx8EL9ggml_type8EE18forward_mul_mat_idEP19ggml_compute_paramsP11ggml_tensor, symObjAddr: 0x10748, symBinAddr: 0x10C458, symSize: 0x680 }
  - { offset: 0x2DE041, size: 0x8, addend: 0x0, symName: __ZN4ggml3cpu6repack13tensor_traitsI12block_iq4_nlLx8ELx8EL9ggml_type8EE6repackEP11ggml_tensorPKvm, symObjAddr: 0x9738, symBinAddr: 0x105448, symSize: 0x74 }
  - { offset: 0x2DE18F, size: 0x8, addend: 0x0, symName: __ZN4ggml3cpu6repack13tensor_traitsI10block_q4_0Lx4ELx4EL9ggml_type8EE25forward_mul_mat_one_chunkEP19ggml_compute_paramsP11ggml_tensorxxxx, symObjAddr: 0xA534, symBinAddr: 0x106244, symSize: 0x288 }
  - { offset: 0x2DE5D3, size: 0x8, addend: 0x0, symName: __ZN4ggml3cpu6repack13tensor_traitsI10block_q4_0Lx8ELx4EL9ggml_type8EE15forward_mul_matEP19ggml_compute_paramsP11ggml_tensor, symObjAddr: 0xA7BC, symBinAddr: 0x1064CC, symSize: 0x6FC }
  - { offset: 0x2DE648, size: 0x8, addend: 0x0, symName: __ZN4ggml3cpu6repack13tensor_traitsI10block_q4_0Lx8ELx4EL9ggml_type8EE25forward_mul_mat_one_chunkEP19ggml_compute_paramsP11ggml_tensorxxxx, symObjAddr: 0xB544, symBinAddr: 0x107254, symSize: 0x288 }
  - { offset: 0x2DEA8C, size: 0x8, addend: 0x0, symName: __ZN4ggml3cpu6repack13tensor_traitsI10block_q4_0Lx8ELx8EL9ggml_type8EE15forward_mul_matEP19ggml_compute_paramsP11ggml_tensor, symObjAddr: 0xB7CC, symBinAddr: 0x1074DC, symSize: 0x6FC }
  - { offset: 0x2DEAA0, size: 0x8, addend: 0x0, symName: __ZN4ggml3cpu6repack13tensor_traitsI10block_q4_0Lx8ELx8EL9ggml_type8EE25forward_mul_mat_one_chunkEP19ggml_compute_paramsP11ggml_tensorxxxx, symObjAddr: 0xC554, symBinAddr: 0x108264, symSize: 0x288 }
  - { offset: 0x2DEEE4, size: 0x8, addend: 0x0, symName: __ZN4ggml3cpu6repack13tensor_traitsI10block_q4_KLx8ELx8EL9ggml_type15EE15forward_mul_matEP19ggml_compute_paramsP11ggml_tensor, symObjAddr: 0xC7DC, symBinAddr: 0x1084EC, symSize: 0xB3C }
  - { offset: 0x2DF062, size: 0x8, addend: 0x0, symName: __ZN4ggml3cpu6repack13tensor_traitsI10block_q4_KLx8ELx8EL9ggml_type15EE25forward_mul_mat_one_chunkEP19ggml_compute_paramsP11ggml_tensorxxxx, symObjAddr: 0xD998, symBinAddr: 0x1096A8, symSize: 0x274 }
  - { offset: 0x2DF48D, size: 0x8, addend: 0x0, symName: __ZN4ggml3cpu6repack13tensor_traitsI10block_q2_KLx8ELx8EL9ggml_type15EE15forward_mul_matEP19ggml_compute_paramsP11ggml_tensor, symObjAddr: 0xDC0C, symBinAddr: 0x10991C, symSize: 0xB3C }
  - { offset: 0x2DF4A1, size: 0x8, addend: 0x0, symName: __ZN4ggml3cpu6repack13tensor_traitsI10block_q2_KLx8ELx8EL9ggml_type15EE25forward_mul_mat_one_chunkEP19ggml_compute_paramsP11ggml_tensorxxxx, symObjAddr: 0xEDC8, symBinAddr: 0x10AAD8, symSize: 0x274 }
  - { offset: 0x2DF8CC, size: 0x8, addend: 0x0, symName: __ZN4ggml3cpu6repack13tensor_traitsI12block_iq4_nlLx4ELx4EL9ggml_type8EE15forward_mul_matEP19ggml_compute_paramsP11ggml_tensor, symObjAddr: 0xF03C, symBinAddr: 0x10AD4C, symSize: 0x6FC }
  - { offset: 0x2DF8E0, size: 0x8, addend: 0x0, symName: __ZN4ggml3cpu6repack13tensor_traitsI12block_iq4_nlLx4ELx4EL9ggml_type8EE25forward_mul_mat_one_chunkEP19ggml_compute_paramsP11ggml_tensorxxxx, symObjAddr: 0xFDC4, symBinAddr: 0x10BAD4, symSize: 0x288 }
  - { offset: 0x2DFD24, size: 0x8, addend: 0x0, symName: __ZN4ggml3cpu6repack13tensor_traitsI12block_iq4_nlLx8ELx8EL9ggml_type8EE15forward_mul_matEP19ggml_compute_paramsP11ggml_tensor, symObjAddr: 0x1004C, symBinAddr: 0x10BD5C, symSize: 0x6FC }
  - { offset: 0x2DFD38, size: 0x8, addend: 0x0, symName: __ZN4ggml3cpu6repack13tensor_traitsI12block_iq4_nlLx8ELx8EL9ggml_type8EE25forward_mul_mat_one_chunkEP19ggml_compute_paramsP11ggml_tensorxxxx, symObjAddr: 0x10DC8, symBinAddr: 0x10CAD8, symSize: 0x274 }
  - { offset: 0x2E0163, size: 0x8, addend: 0x0, symName: __ZN4ggml3cpu6repack17extra_buffer_typeD1Ev, symObjAddr: 0x1103C, symBinAddr: 0x10CD4C, symSize: 0x4 }
  - { offset: 0x2E0194, size: 0x8, addend: 0x0, symName: __ZN4ggml3cpu6repack17extra_buffer_typeD1Ev, symObjAddr: 0x1103C, symBinAddr: 0x10CD4C, symSize: 0x4 }
  - { offset: 0x2E01B8, size: 0x8, addend: 0x0, symName: __ZN4ggml3cpu6repack17extra_buffer_typeD1Ev, symObjAddr: 0x1103C, symBinAddr: 0x10CD4C, symSize: 0x4 }
  - { offset: 0x2E01F1, size: 0x8, addend: 0x0, symName: __ZN4ggml3cpu6repack17extra_buffer_typeD0Ev, symObjAddr: 0x11040, symBinAddr: 0x10CD50, symSize: 0x14 }
  - { offset: 0x2E025B, size: 0x8, addend: 0x0, symName: __ZN4ggml3cpu6repack17extra_buffer_type11supports_opEP19ggml_backend_devicePK11ggml_tensor, symObjAddr: 0x11054, symBinAddr: 0x10CD64, symSize: 0x128 }
  - { offset: 0x2E0322, size: 0x8, addend: 0x0, symName: __ZN4ggml3cpu6repack17extra_buffer_type17get_tensor_traitsEPK11ggml_tensor, symObjAddr: 0x1117C, symBinAddr: 0x10CE8C, symSize: 0x70 }
  - { offset: 0x2E2FE4, size: 0x8, addend: 0x0, symName: __ZN4ggml3cpu13tensor_traitsD2Ev, symObjAddr: 0x0, symBinAddr: 0x10CEFC, symSize: 0x4 }
  - { offset: 0x2E479B, size: 0x8, addend: 0x0, symName: __ZN4ggml3cpu13tensor_traitsD2Ev, symObjAddr: 0x0, symBinAddr: 0x10CEFC, symSize: 0x4 }
  - { offset: 0x2E47C6, size: 0x8, addend: 0x0, symName: __ZN4ggml3cpu13tensor_traitsD1Ev, symObjAddr: 0x4, symBinAddr: 0x10CF00, symSize: 0x4 }
  - { offset: 0x2E47EF, size: 0x8, addend: 0x0, symName: __ZN4ggml3cpu13tensor_traitsD0Ev, symObjAddr: 0x8, symBinAddr: 0x10CF04, symSize: 0x4 }
  - { offset: 0x2E4818, size: 0x8, addend: 0x0, symName: __ZN4ggml3cpu17extra_buffer_typeD2Ev, symObjAddr: 0xC, symBinAddr: 0x10CF08, symSize: 0x4 }
  - { offset: 0x2E4843, size: 0x8, addend: 0x0, symName: __ZN4ggml3cpu17extra_buffer_typeD1Ev, symObjAddr: 0x10, symBinAddr: 0x10CF0C, symSize: 0x4 }
  - { offset: 0x2E486C, size: 0x8, addend: 0x0, symName: __ZN4ggml3cpu17extra_buffer_typeD0Ev, symObjAddr: 0x14, symBinAddr: 0x10CF10, symSize: 0x4 }
  - { offset: 0x2E48CD, size: 0x8, addend: 0x0, symName: _ggml_cpu_extra_compute_forward, symObjAddr: 0x18, symBinAddr: 0x10CF14, symSize: 0x94 }
  - { offset: 0x2E4A0E, size: 0x8, addend: 0x0, symName: _ggml_cpu_extra_work_size, symObjAddr: 0xAC, symBinAddr: 0x10CFA8, symSize: 0xA8 }
  - { offset: 0x2E6A62, size: 0x8, addend: 0x0, symName: _ggml_compute_forward_abs, symObjAddr: 0x0, symBinAddr: 0x10D050, symSize: 0xC38 }
  - { offset: 0x2E8564, size: 0x8, addend: 0x0, symName: _ggml_compute_forward_abs, symObjAddr: 0x0, symBinAddr: 0x10D050, symSize: 0xC38 }
  - { offset: 0x2E90AD, size: 0x8, addend: 0x0, symName: _ggml_compute_forward_sgn, symObjAddr: 0xC38, symBinAddr: 0x10DC88, symSize: 0xC98 }
  - { offset: 0x2E9C9F, size: 0x8, addend: 0x0, symName: _ggml_compute_forward_sgn, symObjAddr: 0xC38, symBinAddr: 0x10DC88, symSize: 0xC98 }
  - { offset: 0x2EA7CE, size: 0x8, addend: 0x0, symName: _ggml_compute_forward_neg, symObjAddr: 0x18D0, symBinAddr: 0x10E920, symSize: 0xCE4 }
  - { offset: 0x2EB1E5, size: 0x8, addend: 0x0, symName: _ggml_compute_forward_neg, symObjAddr: 0x18D0, symBinAddr: 0x10E920, symSize: 0xCE4 }
  - { offset: 0x2EBD59, size: 0x8, addend: 0x0, symName: _ggml_compute_forward_step, symObjAddr: 0x25B4, symBinAddr: 0x10F604, symSize: 0xC38 }
  - { offset: 0x2EC723, size: 0x8, addend: 0x0, symName: _ggml_compute_forward_step, symObjAddr: 0x25B4, symBinAddr: 0x10F604, symSize: 0xC38 }
  - { offset: 0x2ED281, size: 0x8, addend: 0x0, symName: _ggml_compute_forward_tanh, symObjAddr: 0x31EC, symBinAddr: 0x11023C, symSize: 0x7E4 }
  - { offset: 0x2EDC4B, size: 0x8, addend: 0x0, symName: _ggml_compute_forward_tanh, symObjAddr: 0x31EC, symBinAddr: 0x11023C, symSize: 0x7E4 }
  - { offset: 0x2EE836, size: 0x8, addend: 0x0, symName: _ggml_compute_forward_elu, symObjAddr: 0x39D0, symBinAddr: 0x110A20, symSize: 0x844 }
  - { offset: 0x2EF200, size: 0x8, addend: 0x0, symName: _ggml_compute_forward_elu, symObjAddr: 0x39D0, symBinAddr: 0x110A20, symSize: 0x844 }
  - { offset: 0x2EFE11, size: 0x8, addend: 0x0, symName: _ggml_compute_forward_relu, symObjAddr: 0x4214, symBinAddr: 0x111264, symSize: 0xCD4 }
  - { offset: 0x2F07EE, size: 0x8, addend: 0x0, symName: _ggml_compute_forward_relu, symObjAddr: 0x4214, symBinAddr: 0x111264, symSize: 0xCD4 }
  - { offset: 0x2F13AA, size: 0x8, addend: 0x0, symName: _ggml_compute_forward_sigmoid, symObjAddr: 0x4EE8, symBinAddr: 0x111F38, symSize: 0x114C }
  - { offset: 0x2F1D74, size: 0x8, addend: 0x0, symName: _ggml_compute_forward_sigmoid, symObjAddr: 0x4EE8, symBinAddr: 0x111F38, symSize: 0x114C }
  - { offset: 0x2F294F, size: 0x8, addend: 0x0, symName: _ggml_compute_forward_hardsigmoid, symObjAddr: 0x6034, symBinAddr: 0x113084, symSize: 0xCA0 }
  - { offset: 0x2F3319, size: 0x8, addend: 0x0, symName: _ggml_compute_forward_hardsigmoid, symObjAddr: 0x6034, symBinAddr: 0x113084, symSize: 0xCA0 }
  - { offset: 0x2F3ED0, size: 0x8, addend: 0x0, symName: _ggml_compute_forward_exp, symObjAddr: 0x6CD4, symBinAddr: 0x113D24, symSize: 0x1040 }
  - { offset: 0x2F489A, size: 0x8, addend: 0x0, symName: _ggml_compute_forward_exp, symObjAddr: 0x6CD4, symBinAddr: 0x113D24, symSize: 0x1040 }
  - { offset: 0x2F54A0, size: 0x8, addend: 0x0, symName: _ggml_compute_forward_hardswish, symObjAddr: 0x7D14, symBinAddr: 0x114D64, symSize: 0xCD4 }
  - { offset: 0x2F5E6A, size: 0x8, addend: 0x0, symName: _ggml_compute_forward_hardswish, symObjAddr: 0x7D14, symBinAddr: 0x114D64, symSize: 0xCD4 }
  - { offset: 0x2F6A21, size: 0x8, addend: 0x0, symName: _ggml_compute_forward_sqr, symObjAddr: 0x89E8, symBinAddr: 0x115A38, symSize: 0xCF0 }
  - { offset: 0x2F73EB, size: 0x8, addend: 0x0, symName: _ggml_compute_forward_sqr, symObjAddr: 0x89E8, symBinAddr: 0x115A38, symSize: 0xCF0 }
  - { offset: 0x2F7FA6, size: 0x8, addend: 0x0, symName: _ggml_compute_forward_sqrt, symObjAddr: 0x96D8, symBinAddr: 0x116728, symSize: 0xB78 }
  - { offset: 0x2F8970, size: 0x8, addend: 0x0, symName: _ggml_compute_forward_sqrt, symObjAddr: 0x96D8, symBinAddr: 0x116728, symSize: 0xB78 }
  - { offset: 0x2F9527, size: 0x8, addend: 0x0, symName: _ggml_compute_forward_sin, symObjAddr: 0xA250, symBinAddr: 0x1172A0, symSize: 0x1040 }
  - { offset: 0x2F9EF1, size: 0x8, addend: 0x0, symName: _ggml_compute_forward_sin, symObjAddr: 0xA250, symBinAddr: 0x1172A0, symSize: 0x1040 }
  - { offset: 0x2FAAF7, size: 0x8, addend: 0x0, symName: _ggml_compute_forward_cos, symObjAddr: 0xB290, symBinAddr: 0x1182E0, symSize: 0x1040 }
  - { offset: 0x2FB4C1, size: 0x8, addend: 0x0, symName: _ggml_compute_forward_cos, symObjAddr: 0xB290, symBinAddr: 0x1182E0, symSize: 0x1040 }
  - { offset: 0x2FC0C7, size: 0x8, addend: 0x0, symName: _ggml_compute_forward_log, symObjAddr: 0xC2D0, symBinAddr: 0x119320, symSize: 0x1040 }
  - { offset: 0x2FCA91, size: 0x8, addend: 0x0, symName: _ggml_compute_forward_log, symObjAddr: 0xC2D0, symBinAddr: 0x119320, symSize: 0x1040 }
  - { offset: 0x2FD697, size: 0x8, addend: 0x0, symName: _ggml_compute_forward_expm1, symObjAddr: 0xD310, symBinAddr: 0x11A360, symSize: 0x10E0 }
  - { offset: 0x2FE061, size: 0x8, addend: 0x0, symName: _ggml_compute_forward_expm1, symObjAddr: 0xD310, symBinAddr: 0x11A360, symSize: 0x10E0 }
  - { offset: 0x2FEC67, size: 0x8, addend: 0x0, symName: _ggml_compute_forward_softplus, symObjAddr: 0xE3F0, symBinAddr: 0x11B440, symSize: 0xB38 }
  - { offset: 0x2FF631, size: 0x8, addend: 0x0, symName: _ggml_compute_forward_softplus, symObjAddr: 0xE3F0, symBinAddr: 0x11B440, symSize: 0xB38 }
  - { offset: 0x300206, size: 0x8, addend: 0x0, symName: _ggml_compute_forward_floor, symObjAddr: 0xEF28, symBinAddr: 0x11BF78, symSize: 0xCA8 }
  - { offset: 0x300BD0, size: 0x8, addend: 0x0, symName: _ggml_compute_forward_floor, symObjAddr: 0xEF28, symBinAddr: 0x11BF78, symSize: 0xCA8 }
  - { offset: 0x301727, size: 0x8, addend: 0x0, symName: _ggml_compute_forward_ceil, symObjAddr: 0xFBD0, symBinAddr: 0x11CC20, symSize: 0xCA8 }
  - { offset: 0x3020F1, size: 0x8, addend: 0x0, symName: _ggml_compute_forward_ceil, symObjAddr: 0xFBD0, symBinAddr: 0x11CC20, symSize: 0xCA8 }
  - { offset: 0x302C48, size: 0x8, addend: 0x0, symName: _ggml_compute_forward_round, symObjAddr: 0x10878, symBinAddr: 0x11D8C8, symSize: 0xCA8 }
  - { offset: 0x303612, size: 0x8, addend: 0x0, symName: _ggml_compute_forward_round, symObjAddr: 0x10878, symBinAddr: 0x11D8C8, symSize: 0xCA8 }
